ccopy_reg
_reconstructor
p0
(cdeap.tools.support
Logbook
p1
c__builtin__
list
p2
(lp3
(dp4
S'nevals'
p5
F300.0
sS'gen'
p6
I0
sa(dp7
g5
F522.6
sg6
I1
sa(dp8
g5
F741.2
sg6
I2
sa(dp9
g5
F960.45
sg6
I3
sa(dp10
g5
F1178.45
sg6
I4
sa(dp11
g5
F1399.05
sg6
I5
sa(dp12
g5
F1618.4
sg6
I6
sa(dp13
g5
F1839.4
sg6
I7
sa(dp14
g5
F2058.55
sg6
I8
sa(dp15
g5
F2280.4
sg6
I9
sa(dp16
g5
F2501.25
sg6
I10
sa(dp17
g5
F2720.4
sg6
I11
sa(dp18
g5
F2942.25
sg6
I12
sa(dp19
g5
F3163.35
sg6
I13
sa(dp20
g5
F3385.6
sg6
I14
sa(dp21
g5
F3608.7
sg6
I15
sa(dp22
g5
F3824.55
sg6
I16
sa(dp23
g5
F4047.05
sg6
I17
sa(dp24
g5
F4263.3
sg6
I18
sa(dp25
g5
F4482.25
sg6
I19
sa(dp26
g5
F4702.6
sg6
I20
sa(dp27
g5
F4922.7
sg6
I21
sa(dp28
g5
F5144.4
sg6
I22
sa(dp29
g5
F5364.9
sg6
I23
sa(dp30
g5
F5585.8
sg6
I24
sa(dp31
g5
F5806.4
sg6
I25
sa(dp32
g5
F6027.6
sg6
I26
sa(dp33
g5
F6247.5
sg6
I27
sa(dp34
g5
F6467.15
sg6
I28
sa(dp35
g5
F6690.5
sg6
I29
sa(dp36
g5
F6911.8
sg6
I30
sa(dp37
g5
F7132.65
sg6
I31
sa(dp38
g5
F7352.0
sg6
I32
sa(dp39
g5
F7572.45
sg6
I33
sa(dp40
g5
F7792.55
sg6
I34
sa(dp41
g5
F8012.0
sg6
I35
sa(dp42
g5
F8229.8
sg6
I36
sa(dp43
g5
F8451.25
sg6
I37
sa(dp44
g5
F8668.35
sg6
I38
sa(dp45
g5
F8885.1
sg6
I39
sa(dp46
g5
F9102.2
sg6
I40
sa(dp47
g5
F9318.8
sg6
I41
sa(dp48
g5
F9537.2
sg6
I42
sa(dp49
g5
F9753.6
sg6
I43
sa(dp50
g5
F9975.3
sg6
I44
sa(dp51
g5
F10160.166666666666
sg6
I45
satp52
Rp53
(dp54
S'log_header'
p55
I01
sS'header'
p56
NsS'columns_len'
p57
NsS'buffindex'
p58
I0
sS'chapters'
p59
ccollections
defaultdict
p60
(g1
tp61
Rp62
S'fitness'
p63
g0
(g1
g2
(lp64
(dp65
S'std'
p66
cnumpy.core.multiarray
scalar
p67
(cnumpy
dtype
p68
(S'f8'
p69
I0
I1
tp70
Rp71
(I3
S'<'
p72
NNNI-1
I-1
I0
tp73
bS'\xda\xc1)\xe4g\xe5\x8dB'
p74
tp75
Rp76
sS'max'
p77
g67
(g71
S'#\xd1\xef\xc4\xd64\xd0B'
p78
tp79
Rp80
sS'avg'
p81
g67
(g71
S'\xb0\x14\x01\xd2\xb2\xb1KB'
p82
tp83
Rp84
sS'min'
p85
g67
(g71
S'K\xdc\xc2{\x88\x15[@'
p86
tp87
Rp88
sa(dp89
g66
g67
(g71
S'\x9c\xd2(\r\x89x\x12B'
p90
tp91
Rp92
sg77
g67
(g71
S'5F%\xff\xc2\x01TB'
p93
tp94
Rp95
sg81
g67
(g71
S'r>\xd8\x08\x10\x1f\xd1A'
p96
tp97
Rp98
sg85
g67
(g71
S'E\xe3\xe6\xc6[\xa1Y@'
p99
tp100
Rp101
sa(dp102
g66
g67
(g71
S'})\\!v\xa2\xafA'
p103
tp104
Rp105
sg77
g67
(g71
S'\x04\r\x8a\x90\x94\x1e\xf1A'
p106
tp107
Rp108
sg81
g67
(g71
S'Sx\xa8\xdbr\xa2mA'
p109
tp110
Rp111
sg85
g67
(g71
S'\xbe\x12\xb6@\xea\x9aX@'
p112
tp113
Rp114
sa(dp115
g66
g67
(g71
S'\x87":\xcb\x1af\x13B'
p116
tp117
Rp118
sg77
g67
(g71
S'\xa9y)\xaf\xb0\x08UB'
p119
tp120
Rp121
sg81
g67
(g71
S'\xae[a~\x9e\xf3\xd1A'
p122
tp123
Rp124
sg85
g67
(g71
S'<\xd0\x9bg\raX@'
p125
tp126
Rp127
sa(dp128
g66
g67
(g71
S'\x06\xe4n\x19\xe4@tA'
p129
tp130
Rp131
sg77
g67
(g71
S'\xbfG\x8c\xe0Y\xf3\xb5A'
p132
tp133
Rp134
sg81
g67
(g71
S'\xdd3\x16\xbde\xd82A'
p135
tp136
Rp137
sg85
g67
(g71
S'\xc6\x88\xd10\xf3"X@'
p138
tp139
Rp140
sa(dp141
g66
g67
(g71
S'\x86\xb3\x98\xe3\xee5\x11B'
p142
tp143
Rp144
sg77
g67
(g71
S'6\x98\x1b\xcd\x87\xa9RB'
p145
tp146
Rp147
sg81
g67
(g71
S'rD\xc0\x0e\xbb\xda\xcfA'
p148
tp149
Rp150
sg85
g67
(g71
S'y\xa7\x04\xa5\x96\xd3W@'
p151
tp152
Rp153
sa(dp154
g66
g67
(g71
S'\x05\xf5N\r?\x0f!B'
p155
tp156
Rp157
sg77
g67
(g71
S'\xa0\xa4\x1c\x82\x90\x7fbB'
p158
tp159
Rp160
sg81
g67
(g71
S'\x1bd\xe6\xa2\xa6\x92\xdfA'
p161
tp162
Rp163
sg85
g67
(g71
S'?dd\x8dM\x0eX@'
p164
tp165
Rp166
sa(dp167
g66
g67
(g71
S'U\x94Y}\xa2\x89\xb0B'
p168
tp169
Rp170
sg77
g67
(g71
S'\xf1\xa8\x8f\x96\xb3\xee\xf1B'
p171
tp172
Rp173
sg81
g67
(g71
S'\xf6\xcb26\xcc\x9anB'
p174
tp175
Rp176
sg85
g67
(g71
S'\xb6\xe4\x90\x86\x04\x8aW@'
p177
tp178
Rp179
sa(dp180
g66
g67
(g71
S'\x98\xaak\x9e\xe88\xcdB'
p181
tp182
Rp183
sg77
g67
(g71
S'5y\x06\x16\xd7\xaf\x0fC'
p184
tp185
Rp186
sg81
g67
(g71
S'}\x9a\xdf\xef \n\x8bB'
p187
tp188
Rp189
sg85
g67
(g71
S'bqM<\x83\xd4V@'
p190
tp191
Rp192
sa(dp193
g66
g67
(g71
S'\xe4U\xaag\xc3"\xb0A'
p194
tp195
Rp196
sg77
g67
(g71
S'\xbe6\xfb\xce(~\xf1A'
p197
tp198
Rp199
sg81
g67
(g71
S'"\x11\x9a~w\xe9mA'
p200
tp201
Rp202
sg85
g67
(g71
S'\xda*\x0bu\xd7\x1eW@'
p203
tp204
Rp205
sa(dp206
g66
g67
(g71
S'\x86\xd0\x17\x01\x10\x8d\xacA'
p207
tp208
Rp209
sg77
g67
(g71
S'r\xaf\xbd\xdcn\xf4\xeeA'
p210
tp211
Rp212
sg81
g67
(g71
S'\x8ec\xa4{\x06yjA'
p213
tp214
Rp215
sg85
g67
(g71
S'2Hq\xe8e\xceV@'
p216
tp217
Rp218
sa(dp219
g66
g67
(g71
S'U\xb7;\x9b\tU\x9fA'
p220
tp221
Rp222
sg77
g67
(g71
S'r\x93\x8dW^\xfc\xe0A'
p223
tp224
Rp225
sg81
g67
(g71
S'\xe6\xba`\xe17\x1e]A'
p226
tp227
Rp228
sg85
g67
(g71
S'>L@C\xbdXU@'
p229
tp230
Rp231
sa(dp232
g66
g67
(g71
S'X\x13\xfa\x86\x16\xa2\xb5B'
p233
tp234
Rp235
sg77
g67
(g71
S'\xdeh\x83O,u\xf7B'
p236
tp237
Rp238
sg81
g67
(g71
S'\xe7\x05\x88 j\x04tB'
p239
tp240
Rp241
sg85
g67
(g71
S'O\xee\x11{%tU@'
p242
tp243
Rp244
sa(dp245
g66
g67
(g71
S'\xbcD\x02 \n\xbb\xb3A'
p246
tp247
Rp248
sg77
g67
(g71
S'q\x12\xc8\xbd\x02e\xf5A'
p249
tp250
Rp251
sg81
g67
(g71
S".\xef\xa2\xd3'BrA"
p252
tp253
Rp254
sg85
g67
(g71
S'\xc7\xd8\x1d9\xf7\x1cU@'
p255
tp256
Rp257
sa(dp258
g66
g67
(g71
S'ow\xa3\xea\x84x3B'
p259
tp260
Rp261
sg77
g67
(g71
S'\x1d\xe2\xe3\x81\xea\x1cuB'
p262
tp263
Rp264
sg81
g67
(g71
S'9\x00\xc4/8\x04\xf2A'
p265
tp266
Rp267
sg85
g67
(g71
S'J\xe3/N\x8dKU@'
p268
tp269
Rp270
sa(dp271
g66
g67
(g71
S'di+lV\x7f\x19B'
p272
tp273
Rp274
sg77
g67
(g71
S'x\x10\xde\x12\xdb\xa5[B'
p275
tp276
Rp277
sg81
g67
(g71
S'*\rD\xfed\x98\xd7A'
p278
tp279
Rp280
sg85
g67
(g71
S'Ffj\xdd\xb4\x9eT@'
p281
tp282
Rp283
sa(dp284
g66
g67
(g71
S']\xf1\xe4\xc8?c\xa1A'
p285
tp286
Rp287
sg77
g67
(g71
S'\x0f\x12C\xa2-\xd8\xe2A'
p288
tp289
Rp290
sg81
g67
(g71
S'b\x83\xeb\x87\x9c>`A'
p291
tp292
Rp293
sg85
g67
(g71
S'\xba\x18u8\xb50T@'
p294
tp295
Rp296
sa(dp297
g66
g67
(g71
S'>\x0c\x9fx*w\xa6A'
p298
tp299
Rp300
sg77
g67
(g71
S'\xcf}\xe5\xbe\xc0Z\xe8A'
p301
tp302
Rp303
sg81
g67
(g71
S'\x1c\xe4\xf8\xc4\xa2\x08eA'
p304
tp305
Rp306
sg85
g67
(g71
S'\x9d\x91\x1f1\xb3\xe6S@'
p307
tp308
Rp309
sa(dp310
g66
g67
(g71
S'\xd3\xcd\xf2\xb4(\xd3[B'
p311
tp312
Rp313
sg77
g67
(g71
S'#\x97\x13=/;\x9cB'
p314
tp315
Rp316
sg81
g67
(g71
S'\x92\xc1\xb3\xac\x91\xa0 B'
p317
tp318
Rp319
sg85
g67
(g71
S',>\x80>\xe1\xd3S@'
p320
tp321
Rp322
sa(dp323
g66
g67
(g71
S'\x18\xbeK\xe0L\xb0TA'
p324
tp325
Rp326
sg77
g67
(g71
S'\x96\x80\xf9\x83\xa3\x0f\x96A'
p327
tp328
Rp329
sg81
g67
(g71
S'E\x0fph,\x05\x14A'
p330
tp331
Rp332
sg85
g67
(g71
S'\n\xb1Pg8}S@'
p333
tp334
Rp335
sa(dp336
g66
g67
(g71
S'\r\x0e\x87FJ\xb4\xb6A'
p337
tp338
Rp339
sg77
g67
(g71
S'9\xe5[\xbe\x80\x91\xf8A'
p340
tp341
Rp342
sg81
g67
(g71
S'\xddb\xcc)\n7vA'
p343
tp344
Rp345
sg85
g67
(g71
S'PT\xab\x04\x93vS@'
p346
tp347
Rp348
sa(dp349
g66
g67
(g71
S'j\xc1)\xa5\x835\xa4A'
p350
tp351
Rp352
sg77
g67
(g71
S'\x15\xb8\n6\xd0\xe5\xe5A'
p353
tp354
Rp355
sg81
g67
(g71
S'&\xd9\x0b\xdc\x99\xc6bA'
p356
tp357
Rp358
sg85
g67
(g71
S'\xc2u\xa8<y\xdfR@'
p359
tp360
Rp361
sa(dp362
g66
g67
(g71
S'\x1d\\\xd0\x04^\xf0\xabB'
p363
tp364
Rp365
sg77
g67
(g71
S'\xae\xf6\xa8\xf8\x99K\xeeB'
p366
tp367
Rp368
sg81
g67
(g71
S'\xe3q\x9e\x0c\x1d\xdaiB'
p369
tp370
Rp371
sg85
g67
(g71
S'\xb2\xd6\xb6&\x7f\xf5R@'
p372
tp373
Rp374
sa(dp375
g66
g67
(g71
S"\xca\xf3'\rm7\x90A"
p376
tp377
Rp378
sg77
g67
(g71
S'\xdeIZ`\x12\x95\xd1A'
p379
tp380
Rp381
sg81
g67
(g71
S'S\x1c\xc1\xf4\x8a\tNA'
p382
tp383
Rp384
sg85
g67
(g71
S'\x8c\xaa\xba\xb6\xdf\xb9R@'
p385
tp386
Rp387
sa(dp388
g66
g67
(g71
S'V\x06\x90b\xa9\x94\xb9B'
p389
tp390
Rp391
sg77
g67
(g71
S'\x0e\xbfA\xa1\xfa\xbc\xfbB'
p392
tp393
Rp394
sg81
g67
(g71
S'\x0ei\x14\x92\x80\xabwB'
p395
tp396
Rp397
sg85
g67
(g71
S'\x12h\xc2\xd5H/R@'
p398
tp399
Rp400
sa(dp401
g66
g67
(g71
S'\xb2\x16\x03\xd7\x06\xd3\xc0A'
p402
tp403
Rp404
sg77
g67
(g71
S'#\xf3\xba\x1fC>\x02B'
p405
tp406
Rp407
sg81
g67
(g71
S':9e\xa1M#\x7fA'
p408
tp409
Rp410
sg85
g67
(g71
S'\xfe\x84\xa3g\rHR@'
p411
tp412
Rp413
sa(dp414
g66
g67
(g71
S'ZaW\xb1q\x98 B'
p415
tp416
Rp417
sg77
g67
(g71
S'\x98_\x9d\xc5\xa3\xfeaB'
p418
tp419
Rp420
sg81
g67
(g71
S'\xfe\xc8\x94\x1b\x91\xb6\xdeA'
p421
tp422
Rp423
sg85
g67
(g71
S';q\xc71q\xf0Q@'
p424
tp425
Rp426
sa(dp427
g66
g67
(g71
S'\xe6\x14\xe6\xce8\xb2%B'
p428
tp429
Rp430
sg77
g67
(g71
S'URHO\xa9\x86gB'
p431
tp432
Rp433
sg81
g67
(g71
S'\x8d\xb9\x12\xc8c\x13\xe4A'
p434
tp435
Rp436
sg85
g67
(g71
S'.\xb1\x11&\x9e\xf1Q@'
p437
tp438
Rp439
sa(dp440
g66
g67
(g71
S'.\x14\x90\xa4L\xa6\xa7B'
p441
tp442
Rp443
sg77
g67
(g71
S'\x98l9\xea\xeb\xa4\xe9B'
p444
tp445
Rp446
sg81
g67
(g71
S'\xb3\x04JI\x11\xe2eB'
p447
tp448
Rp449
sg85
g67
(g71
S'\xedQ\xb82\xf8\xddQ@'
p450
tp451
Rp452
sa(dp453
g66
g67
(g71
S'5\xb2\x86wk\xc6\xc0A'
p454
tp455
Rp456
sg77
g67
(g71
S'\xd2\x99\xb4\xefx0\x02B'
p457
tp458
Rp459
sg81
g67
(g71
S'\x8e\x0c\xca w\x0c\x7fA'
p460
tp461
Rp462
sg85
g67
(g71
S'c\x8a\xab(\xcf\xddQ@'
p463
tp464
Rp465
sa(dp466
g66
g67
(g71
S'\xbeZ\xb6\xa5\xf2\x9a!B'
p467
tp468
Rp469
sg77
g67
(g71
S'\x01L\xf4\x96:\x16cB'
p470
tp471
Rp472
sg81
g67
(g71
S'V\x94\xc4\xf0*\xa5\xe0A'
p473
tp474
Rp475
sg85
g67
(g71
S'\x03\xcaL\xa2\x82\xeeQ@'
p476
tp477
Rp478
sa(dp479
g66
g67
(g71
S'\xd3\xed1|v\xc0\xffA'
p480
tp481
Rp482
sg77
g67
(g71
S'\xfd\x8b\x8d\xc3\xfe6AB'
p483
tp484
Rp485
sg81
g67
(g71
S' \xab,\x12\xfda\xbdA'
p486
tp487
Rp488
sg85
g67
(g71
S'B\x86h#^\xd3Q@'
p489
tp490
Rp491
sa(dp492
g66
g67
(g71
S'\xa2Q\xbc\xe3\xf9\xcfjB'
p493
tp494
Rp495
sg77
g67
(g71
S'\xbb;\xf1\x04\xe3\x12\xadB'
p496
tp497
Rp498
sg81
g67
(g71
S'\xdb\xc6\xbc\xd7C\xcf(B'
p499
tp500
Rp501
sg85
g67
(g71
S'.\xe5s8\xab\xcfQ@'
p502
tp503
Rp504
sa(dp505
g66
g67
(g71
S'A\xf9\xc6\x07\xefz\xb0B'
p506
tp507
Rp508
sg77
g67
(g71
S'f\xec\x93\xab\xc2\xde\xf1B'
p509
tp510
Rp511
sg81
g67
(g71
S'\x16\x9d\xf9b\xaa\x7fnB'
p512
tp513
Rp514
sg85
g67
(g71
S']\xd2t\x0f\xe4\xc6Q@'
p515
tp516
Rp517
sa(dp518
g66
g67
(g71
S'\xda\xd4\x13\xde\x18X\xaaA'
p519
tp520
Rp521
sg77
g67
(g71
S'\x02OK A\x8f\xecA'
p522
tp523
Rp524
sg81
g67
(g71
S'n\xa2Xg\xbe\xcehA'
p525
tp526
Rp527
sg85
g67
(g71
S'\xa22\x06\x93\x8b\x7fQ@'
p528
tp529
Rp530
sa(dp531
g66
g67
(g71
S'\xb5\xd9\xde\xe8\x14\xcc\x1eB'
p532
tp533
Rp534
sg77
g67
(g71
S'B\xf8\xfa\xae\xda\xb0`B'
p535
tp536
Rp537
sg81
g67
(g71
S'j@\xeb\xaaJ\x8c\xdcA'
p538
tp539
Rp540
sg85
g67
(g71
S'\x02\xc87\x94\x11\x81Q@'
p541
tp542
Rp543
sa(dp544
g66
g67
(g71
S'\xf1y,\xaf\xad\x98\xe0A'
p545
tp546
Rp547
sg77
g67
(g71
S'\x12\x16V\xb2\xeb\xfd!B'
p548
tp549
Rp550
sg81
g67
(g71
S'K\x80\x05*\x0cy\x9fA'
p551
tp552
Rp553
sg85
g67
(g71
S';7\x8f=@|Q@'
p554
tp555
Rp556
sa(dp557
g66
g67
(g71
S't\xd4\x13\xd7 \xdb\xa5A'
p558
tp559
Rp560
sg77
g67
(g71
S'\x9a7\x9d\xf4\x08\x97\xe7A'
p561
tp562
Rp563
sg81
g67
(g71
S'\x9a(\xed\x934\xd3dA'
p564
tp565
Rp566
sg85
g67
(g71
S'w\x10auLHQ@'
p567
tp568
Rp569
sa(dp570
g66
g67
(g71
S'h\x9b\x0e\xa2)\x95[A'
p571
tp572
Rp573
sg77
g67
(g71
S'\xc3\xb3\xbc\xfb\xa6]\x9dA'
p574
tp575
Rp576
sg81
g67
(g71
S'\xf6q\x81\xec\xe1\x94\x1bA'
p577
tp578
Rp579
sg85
g67
(g71
S'\xd6\x94\xd7 \x8cUQ@'
p580
tp581
Rp582
sa(dp583
g66
g67
(g71
S'\x18\x1b\x82\xdb\xdau\xbeA'
p584
tp585
Rp586
sg77
g67
(g71
S'n\xd5\x08\xb0\x85\x83\x00B'
p587
tp588
Rp589
sg81
g67
(g71
S'\xc5\r\x08%\x9d5|A'
p590
tp591
Rp592
sg85
g67
(g71
S']\xc8\x89\x8c\xba\xa0P@'
p593
tp594
Rp595
sa(dp596
g66
g67
(g71
S'\x14\xcct\x95]\xeb\x02B'
p597
tp598
Rp599
sg77
g67
(g71
S'\x02\x15\x95#NWDB'
p600
tp601
Rp602
sg81
g67
(g71
S'\xf6\xe5\x8c\xd73\xab\xc3A'
p603
tp604
Rp605
sg85
g67
(g71
S'\xae\xd1\x1d\x0fi\x92P@'
p606
tp607
Rp608
sa(dp609
g66
g67
(g71
S'5;B\xa2\x92\x10\x0bB'
p610
tp611
Rp612
sg77
g67
(g71
S'q\x0e\xe0\x1e\x0b\x1cGB'
p613
tp614
Rp615
sg81
g67
(g71
S'i\x96\xff\xcc\xa1\x8f\xd1A'
p616
tp617
Rp618
sg85
g67
(g71
S'\xc3#[\xe7\x1c\x86P@'
p619
tp620
Rp621
sa(dp622
g66
g67
(g71
S'\xea_k<=7\xc3A'
p623
tp624
Rp625
sg77
g67
(g71
S'\xb8s\x02\x03\xbb\xd5\x04B'
p626
tp627
Rp628
sg81
g67
(g71
S'3\x8d\xc1:\x01\xcc\x81A'
p629
tp630
Rp631
sg85
g67
(g71
S'JT\xac_\xcc\x85P@'
p632
tp633
Rp634
sa(dp635
g66
g67
(g71
S'\x96$;\xfb\xa3\xaa\xe2A'
p636
tp637
Rp638
sg77
g67
(g71
S'\x85Z?\xd0\xc0\xf0"B'
p639
tp640
Rp641
sg81
g67
(g71
S'\xdeZ\xa4\x0e\x80\x96\xa4A'
p642
tp643
Rp644
sg85
g67
(g71
S'b{\xad\x086pP@'
p645
tp646
Rp647
sa(dp648
g66
g67
(g71
S'\x9d\x16\x10\xf2S\xe1-B'
p649
tp650
Rp651
sg77
g67
(g71
S'\x1f-A\xd4<3pB'
p652
tp653
Rp654
sg81
g67
(g71
S'c{n\xb9\x02\xa6\xebA'
p655
tp656
Rp657
sg85
g67
(g71
S'@\x18k\xea\xd4oP@'
p658
tp659
Rp660
sa(dp661
g66
g67
(g71
S'\xd7nQ\xf5\x8f+\\A'
p662
tp663
Rp664
sg77
g67
(g71
S'\x81m\x0b\x826%\x9eA'
p665
tp666
Rp667
sg81
g67
(g71
S'-\x87^73\x14\x1bA'
p668
tp669
Rp670
sg85
g67
(g71
S')*\xd1y\xa0\xa3M@'
p671
tp672
Rp673
satp674
Rp675
(dp676
g55
I01
sg56
Nsg57
Nsg58
I0
sg59
g60
(g1
tp677
Rp678
sbsS'size'
p679
g0
(g1
g2
(lp680
(dp681
g66
g67
(g71
S'\xc7\xeef=\x8bP\xf7?'
p682
tp683
Rp684
sg77
F7.0
sg81
g67
(g71
S'\xca\xbd\xe6B\xd2\x94\x0b@'
p685
tp686
Rp687
sg85
F2.0
sa(dp688
g66
g67
(g71
S'\xa2p\xa4\xb2\xf0B\xf5?'
p689
tp690
Rp691
sg77
F9.15
sg81
g67
(g71
S'3^\xbaI\x0c\x82\t@'
p692
tp693
Rp694
sg85
F1.05
sa(dp695
g66
g67
(g71
S',\x97k\xd7R7\xf5?'
p696
tp697
Rp698
sg77
F9.35
sg81
g67
(g71
S'L7\x89A`e\t@'
p699
tp700
Rp701
sg85
F1.0
sa(dp702
g66
g67
(g71
S'\x9a\xf4d\xa0\x8e\xee\xf4?'
p703
tp704
Rp705
sg77
F9.6
sg81
g67
(g71
S'\xe5\x17K~\xb1\xe4\t@'
p706
tp707
Rp708
sg85
F1.05
sa(dp709
g66
g67
(g71
S'\x8bGI\xb5\xaf\xbf\xf4?'
p710
tp711
Rp712
sg77
F10.05
sg81
g67
(g71
S"\x98'\xea\xdf\x08e\n@"
p713
tp714
Rp715
sg85
F1.2
sa(dp716
g66
g67
(g71
S'~\x1bO\xd2\xb1\xcb\xf4?'
p717
tp718
Rp719
sg77
F10.0
sg81
g67
(g71
S'\x92\xed|?5\xde\n@'
p720
tp721
Rp722
sg85
F1.1
sa(dp723
g66
g67
(g71
S'\xddn<]>\xbc\xf4?'
p724
tp725
Rp726
sg77
F9.95
sg81
g67
(g71
S' \xb0rh\x91m\x0b@'
p727
tp728
Rp729
sg85
F1.1
sa(dp730
g66
g67
(g71
S'\x81\x16\x19i^\xed\xf4?'
p731
tp732
Rp733
sg77
F10.5
sg81
g67
(g71
S'\x83\x07\xf3D\xfd\x1b\x0c@'
p734
tp735
Rp736
sg85
F1.05
sa(dp737
g66
g67
(g71
S'\xdc_Z\xc4c\x03\xf5?'
p738
tp739
Rp740
sg77
F10.7
sg81
g67
(g71
S'Z\x1d\x13<\x98\xa7\x0c@'
p741
tp742
Rp743
sg85
F1.05
sa(dp744
g66
g67
(g71
S'\xb3o\xe9\x03\xc4\x12\xf4?'
p745
tp746
Rp747
sg77
F10.65
sg81
g67
(g71
S'#M\xa98\xfb\xf0\x0c@'
p748
tp749
Rp750
sg85
F1.1
sa(dp751
g66
g67
(g71
S'\xb6\r\xd0\xfd4\x81\xf3?'
p752
tp753
Rp754
sg77
F10.4
sg81
g67
(g71
S'+@\xee5\x17\x12\r@'
p755
tp756
Rp757
sg85
F1.1
sa(dp758
g66
g67
(g71
S'4\x13J\xaeU\x9e\xf4?'
p759
tp760
Rp761
sg77
F10.25
sg81
g67
(g71
S'\x93\xd1\xdb\xb2V\xc7\r@'
p762
tp763
Rp764
sg85
F1.0
sa(dp765
g66
g67
(g71
S'0\xe7\xaf]\x89\xba\xf5?'
p766
tp767
Rp768
sg77
F10.4
sg81
g67
(g71
S'\x0e\xe6\x89\xfa7\xc2\x0e@'
p769
tp770
Rp771
sg85
F1.05
sa(dp772
g66
g67
(g71
S"\x9e\xd8\xa9\x05'\xbf\xf6?"
p773
tp774
Rp775
sg77
F10.1
sg81
g67
(g71
S'\xe3\xa5\x9b\xc4 \xb0\x0f@'
p776
tp777
Rp778
sg85
F1.25
sa(dp779
g66
g67
(g71
S'a2\xfdt\x82\x04\xf8?'
p780
tp781
Rp782
sg77
F10.55
sg81
g67
(g71
S'\xf0\xa7\xc6K7\x89\x10@'
p783
tp784
Rp785
sg85
F1.1
sa(dp786
g66
g67
(g71
S's\xc3$\xbc\x15y\xfa?'
p787
tp788
Rp789
sg77
F11.6
sg81
g67
(g71
S'\x9a\x0bIS*\x8e\x11@'
p790
tp791
Rp792
sg85
F1.3
sa(dp793
g66
g67
(g71
S'\x1b\xef\xedT.\x1a\xfc?'
p794
tp795
Rp796
sg77
F11.85
sg81
g67
(g71
S'\xbe-kuLp\x12@'
p797
tp798
Rp799
sg85
F1.15
sa(dp800
g66
g67
(g71
S'\xe8\xbb\x19\x0c\x15\x97\xfc?'
p801
tp802
Rp803
sg77
F11.95
sg81
g67
(g71
S'\x14\xaeG\xe1zT\x13@'
p804
tp805
Rp806
sg85
F1.35
sa(dp807
g66
g67
(g71
S'\x15N\xae1\x8b\x06\xfe?'
p808
tp809
Rp810
sg77
F12.35
sg81
g67
(g71
S'\x08\x81\x95C\x8b,\x14@'
p811
tp812
Rp813
sg85
F1.25
sa(dp814
g66
g67
(g71
S'e\xb7\xe3\xf8\x17\xf3\xff?'
p815
tp816
Rp817
sg77
F13.5
sg81
g67
(g71
S'7\xfb\xf0\x19vE\x15@'
p818
tp819
Rp820
sg85
F1.45
sa(dp821
g66
g67
(g71
S'\x8ex\n\xb92\x0e\x01@'
p822
tp823
Rp824
sg77
F14.15
sg81
g67
(g71
S'\xe23\xec\n\x90;\x16@'
p825
tp826
Rp827
sg85
F1.0
sa(dp828
g66
g67
(g71
S'E[\xa3\xbbn&\x02@'
p829
tp830
Rp831
sg77
F15.3
sg81
g67
(g71
S'\x92\xed|?5\x9e\x17@'
p832
tp833
Rp834
sg85
F1.5
sa(dp835
g66
g67
(g71
S'<)\xc1\x94E\xe5\x03@'
p836
tp837
Rp838
sg77
F16.55
sg81
g67
(g71
S'{\x14\xaeG\xe1\xfa\x18@'
p839
tp840
Rp841
sg85
F1.35
sa(dp842
g66
g67
(g71
S'D\xa7\xfc\xb6\xc5\x0c\x05@'
p843
tp844
Rp845
sg77
F16.95
sg81
g67
(g71
S'P\x8d\x97n\x12\x83\x1a@'
p846
tp847
Rp848
sg85
F1.25
sa(dp849
g66
g67
(g71
S'\x14-3k[Z\x06@'
p850
tp851
Rp852
sg77
F18.25
sg81
g67
(g71
S'\x95\x8a\xb3\x0f\x9f!\x1c@'
p853
tp854
Rp855
sg85
F1.3
sa(dp856
g66
g67
(g71
S'\xbe\x00\xf5\x06"S\x07@'
p857
tp858
Rp859
sg77
F19.9
sg81
g67
(g71
S'\x83\xebQ\xb8\x1e\xc5\x1d@'
p860
tp861
Rp862
sg85
F1.6
sa(dp863
g66
g67
(g71
S'O%\xd9\x9f\x97\xaf\x08@'
p864
tp865
Rp866
sg77
F20.1
sg81
g67
(g71
S"\x82\x95C\x8bl'\x1f@"
p867
tp868
Rp869
sg85
F1.55
sa(dp870
g66
g67
(g71
S'k\xee\xde6\x8a\xba\t@'
p871
tp872
Rp873
sg77
F20.85
sg81
g67
(g71
S'\xe8\xfb\xa9\xf1\xd2m @'
p874
tp875
Rp876
sg85
F1.65
sa(dp877
g66
g67
(g71
S'\xe6\x03\xd0\x1dDn\x0b@'
p878
tp879
Rp880
sg77
F23.05
sg81
g67
(g71
S'B\xd2\x94\x8a\xb3O!@'
p881
tp882
Rp883
sg85
F1.65
sa(dp884
g66
g67
(g71
S'\xdb\xc0\x04\x84\x18&\r@'
p885
tp886
Rp887
sg77
F25.05
sg81
g67
(g71
S'\xf8S\xe3\xa5\x9b$"@'
p888
tp889
Rp890
sg85
F1.4
sa(dp891
g66
g67
(g71
S'\r\xaf\xd1t=\xbc\x0e@'
p892
tp893
Rp894
sg77
F24.25
sg81
g67
(g71
S'\x1b/\xdd$\x06\xe1"@'
p895
tp896
Rp897
sg85
F1.5
sa(dp898
g66
g67
(g71
S'Z,Q\xd0y\x05\x10@'
p899
tp900
Rp901
sg77
F26.35
sg81
g67
(g71
S'\x11\xca\xe8mYk#@'
p902
tp903
Rp904
sg85
F1.4
sa(dp905
g66
g67
(g71
S'\x82.\x88\xff<\x9f\x10@'
p906
tp907
Rp908
sg77
F26.1
sg81
g67
(g71
S"'\xea\xdf\x08e\xf4#@"
p909
tp910
Rp911
sg85
F1.6
sa(dp912
g66
g67
(g71
S'\x8a\x08\x91A\x9e@\x11@'
p913
tp914
Rp915
sg77
F27.45
sg81
g67
(g71
S'\xaa\x7f#\x94\xd1\xbb$@'
p916
tp917
Rp918
sg85
F1.75
sa(dp919
g66
g67
(g71
S'\xe5\xb4\xef\xd5\x9f\x13\x12@'
p920
tp921
Rp922
sg77
F28.7
sg81
g67
(g71
S'5^\xbaI\x0cB%@'
p923
tp924
Rp925
sg85
F1.6
sa(dp926
g66
g67
(g71
S'\xfc\x81\\\xf4\xd3\xba\x12@'
p927
tp928
Rp929
sg77
F30.6
sg81
g67
(g71
S'\x82\x95C\x8bl\xa7%@'
p930
tp931
Rp932
sg85
F1.8
sa(dp933
g66
g67
(g71
S'\x97\xca\xe0n\x8d\xc2\x12@'
p934
tp935
Rp936
sg77
F30.5
sg81
g67
(g71
S'\xa6\x9b\xc4 \xb0\x12&@'
p937
tp938
Rp939
sg85
F1.9
sa(dp940
g66
g67
(g71
S'+\xf6\xe5,\xc9\x93\x13@'
p941
tp942
Rp943
sg77
F30.95
sg81
g67
(g71
S'[\x8f\xc2\xf5(\x9c&@'
p944
tp945
Rp946
sg85
F1.65
sa(dp947
g66
g67
(g71
S'|C\x90R\x0b\xf9\x14@'
p948
tp949
Rp950
sg77
F33.15
sg81
g67
(g71
S"i\xd8\x15 \xf7Z'@"
p951
tp952
Rp953
sg85
F2.0
sa(dp954
g66
g67
(g71
S'Kd\xde\xc1F\x8f\x15@'
p955
tp956
Rp957
sg77
F34.25
sg81
g67
(g71
S"\x1dZd;\xdf\xaf'@"
p958
tp959
Rp960
sg85
F1.95
sa(dp961
g66
g67
(g71
S'\x1dB#\xe5\xd1\xa3\x15@'
p962
tp963
Rp964
sg77
F35.15
sg81
g67
(g71
S'\x19\xbd-ku\x0c(@'
p965
tp966
Rp967
sg85
F1.9
sa(dp968
g66
g67
(g71
S"\\\x18\x88'\xf5p\x16@"
p969
tp970
Rp971
sg77
F36.75
sg81
g67
(g71
S'\x8ePFo\xcb\xba(@'
p972
tp973
Rp974
sg85
F1.75
sa(dp975
g66
g67
(g71
S'\xfa\x85\x0c\xd4\xebe\x15@'
p976
tp977
Rp978
sg77
F34.15
sg81
g67
(g71
S'43333\xd3(@'
p979
tp980
Rp981
sg85
F2.0
sa(dp982
g66
g67
(g71
S'+\xa6S\x18\xe7\x1a\x15@'
p983
tp984
Rp985
sg77
F33.85
sg81
g67
(g71
S'_\xbaI\x0c\x02\xeb(@'
p986
tp987
Rp988
sg85
F2.25
sa(dp989
g66
g67
(g71
S'\x9f&nbG*\x16@'
p990
tp991
Rp992
sg77
F35.6
sg81
g67
(g71
S'\x9e\xa8\x7f#\x94q)@'
p993
tp994
Rp995
sg85
F1.8
sa(dp996
g66
g67
(g71
S'k6?\xec4\x98\x16@'
p997
tp998
Rp999
sg77
F36.666666666666664
sg81
g67
(g71
S'\xff Ce\x87\x89*@'
p1000
tp1001
Rp1002
sg85
F2.0833333333333335
satp1003
Rp1004
(dp1005
g55
I01
sg56
Nsg57
Nsg58
I0
sg59
g60
(g1
tp1006
Rp1007
sbssb.