ccopy_reg
_reconstructor
p0
(cdeap.tools.support
Logbook
p1
c__builtin__
list
p2
(lp3
(dp4
S'nevals'
p5
F200.0
sS'gen'
p6
I0
sa(dp7
g5
F348.6
sg6
I1
sa(dp8
g5
F495.95
sg6
I2
sa(dp9
g5
F641.9
sg6
I3
sa(dp10
g5
F789.2
sg6
I4
sa(dp11
g5
F934.55
sg6
I5
sa(dp12
g5
F1081.65
sg6
I6
sa(dp13
g5
F1229.75
sg6
I7
sa(dp14
g5
F1376.4
sg6
I8
sa(dp15
g5
F1520.05
sg6
I9
sa(dp16
g5
F1668.0
sg6
I10
sa(dp17
g5
F1816.6
sg6
I11
sa(dp18
g5
F1963.2
sg6
I12
sa(dp19
g5
F2107.55
sg6
I13
sa(dp20
g5
F2253.75
sg6
I14
sa(dp21
g5
F2399.75
sg6
I15
sa(dp22
g5
F2544.8
sg6
I16
sa(dp23
g5
F2691.7
sg6
I17
sa(dp24
g5
F2839.05
sg6
I18
sa(dp25
g5
F2984.35
sg6
I19
sa(dp26
g5
F3129.8
sg6
I20
sa(dp27
g5
F3277.55
sg6
I21
sa(dp28
g5
F3427.45
sg6
I22
sa(dp29
g5
F3575.8
sg6
I23
sa(dp30
g5
F3725.85
sg6
I24
sa(dp31
g5
F3877.65
sg6
I25
sa(dp32
g5
F4030.15
sg6
I26
sa(dp33
g5
F4182.3
sg6
I27
sa(dp34
g5
F4337.65
sg6
I28
sa(dp35
g5
F4494.65
sg6
I29
sa(dp36
g5
F4650.45
sg6
I30
sa(dp37
g5
F4808.1
sg6
I31
sa(dp38
g5
F4965.25
sg6
I32
sa(dp39
g5
F5123.85
sg6
I33
sa(dp40
g5
F5281.25
sg6
I34
sa(dp41
g5
F5438.85
sg6
I35
sa(dp42
g5
F5593.7
sg6
I36
sa(dp43
g5
F5752.7
sg6
I37
sa(dp44
g5
F5912.1
sg6
I38
sa(dp45
g5
F6072.25
sg6
I39
sa(dp46
g5
F6231.2
sg6
I40
sa(dp47
g5
F6390.0
sg6
I41
sa(dp48
g5
F6550.2
sg6
I42
sa(dp49
g5
F6709.55
sg6
I43
sa(dp50
g5
F6870.35
sg6
I44
sa(dp51
g5
F7031.05
sg6
I45
sa(dp52
g5
F7190.25
sg6
I46
sa(dp53
g5
F7349.9
sg6
I47
sa(dp54
g5
F7512.7
sg6
I48
sa(dp55
g5
F7676.35
sg6
I49
sa(dp56
g5
F7840.0
sg6
I50
sa(dp57
g5
F8003.85
sg6
I51
sa(dp58
g5
F8167.75
sg6
I52
sa(dp59
g5
F8330.65
sg6
I53
sa(dp60
g5
F8492.7
sg6
I54
sa(dp61
g5
F8653.5
sg6
I55
sa(dp62
g5
F8813.8
sg6
I56
sa(dp63
g5
F8976.8
sg6
I57
sa(dp64
g5
F9138.75
sg6
I58
sa(dp65
g5
F9303.75
sg6
I59
sa(dp66
g5
F9469.4
sg6
I60
sa(dp67
g5
F9631.85
sg6
I61
sa(dp68
g5
F9767.368421052632
sg6
I62
sa(dp69
g5
F9810.642857142857
sg6
I63
sa(dp70
g5
F9765.5
sg6
I64
sa(dp71
g5
F9879.57142857143
sg6
I65
sa(dp72
g5
F9967.2
sg6
I66
sa(dp73
g5
F10073.333333333334
sg6
I67
satp74
Rp75
(dp76
S'log_header'
p77
I01
sS'header'
p78
NsS'columns_len'
p79
NsS'buffindex'
p80
I0
sS'chapters'
p81
ccollections
defaultdict
p82
(g1
tp83
Rp84
S'fitness'
p85
g0
(g1
g2
(lp86
(dp87
S'std'
p88
cnumpy.core.multiarray
scalar
p89
(cnumpy
dtype
p90
(S'f8'
p91
I0
I1
tp92
Rp93
(I3
S'<'
p94
NNNI-1
I-1
I0
tp95
bS'\x9eDY\x00\xa9\x1e\x9cK'
p96
tp97
Rp98
sS'max'
p99
g89
(g93
S'\xc8\x0ce\xd2\xbe\xea\xd8K'
p100
tp101
Rp102
sS'avg'
p103
g89
(g93
S'\xf2C\x1f\xa3\x91\xfd_K'
p104
tp105
Rp106
sS'min'
p107
g89
(g93
S'v\x0b\xc5V\xb1U\xb7@'
p108
tp109
Rp110
sa(dp111
g88
g89
(g93
S'n\xb0\xe3\xc9\x8d\xb9\tG'
p112
tp113
Rp114
sg99
g89
(g93
S'\xaf\x97C\x1dx\xcbFG'
p115
tp116
Rp117
sg103
g89
(g93
S'2\xa5\xdb\x8bf-\xcdF'
p118
tp119
Rp120
sg107
g89
(g93
S'\x13p\x86\xc8}]\xb6@'
p121
tp122
Rp123
sa(dp124
g88
g89
(g93
S'2\xc7\x1dh\xca\xb7\x87C'
p125
tp126
Rp127
sg99
g89
(g93
S'\x86\x16\x0b5:\xea\xc4C'
p128
tp129
Rp130
sg103
g89
(g93
S'\xbe\x1dM\x0f\xa49KC'
p131
tp132
Rp133
sg107
g89
(g93
S'\xfa\xdc\x8c\x1d5\x06\xb6@'
p134
tp135
Rp136
sa(dp137
g88
g89
(g93
S'\x02\xd1\x01N6\x8e$E'
p138
tp139
Rp140
sg99
g89
(g93
S'"\xb6\xd1\xa5\xda6bE'
p141
tp142
Rp143
sg103
g89
(g93
S'\xac\xfdr\x07tP\xe7D'
p144
tp145
Rp146
sg107
g89
(g93
S'\x1aI\x7f\xc5\x98\xae\xb5@'
p147
tp148
Rp149
sa(dp150
g88
g89
(g93
S'\xdbp\r\xc5u%NC'
p151
tp152
Rp153
sg99
g89
(g93
S'\xfb\xcd\\Xs\xb6\x8aC'
p154
tp155
Rp156
sg103
g89
(g93
S'\xcc~\x16\xdc\xa7\x18\x11C'
p157
tp158
Rp159
sg107
g89
(g93
S'\xdd5\xcbHvn\xb5@'
p160
tp161
Rp162
sa(dp163
g88
g89
(g93
S'K5$\x1918?D'
p164
tp165
Rp166
sg99
g89
(g93
S'"[\xee\xfa]\xa9{D'
p167
tp168
Rp169
sg103
g89
(g93
S'R\x92\xd7\xaf\xe8\xb4\x01D'
p170
tp171
Rp172
sg107
g89
(g93
S'\x98v&\xa9\x9bL\xb5@'
p173
tp174
Rp175
sa(dp176
g88
g89
(g93
S'\x9d2\x1b\xfeM\x9b5C'
p177
tp178
Rp179
sg99
g89
(g93
S'.\xbb~WJ%sC'
p180
tp181
Rp182
sg103
g89
(g93
S'\x0bYL&\xaf\x81\xf8B'
p183
tp184
Rp185
sg107
g89
(g93
S'\x9aP\xea\x8d\x84\x1f\xb5@'
p186
tp187
Rp188
sa(dp189
g88
g89
(g93
S'\x86n\xe5CC=6D'
p190
tp191
Rp192
sg99
g89
(g93
S'\x94\xfb`\x00\xcf\xb4sD'
p193
tp194
Rp195
sg103
g89
(g93
S'\x86\xd0\x88j\\9\xf9C'
p196
tp197
Rp198
sg107
g89
(g93
S'\x80\x14\xe7\xc3\xa8\xeb\xb4@'
p199
tp200
Rp201
sa(dp202
g88
g89
(g93
S'q\xb4\x9b{#\x898C'
p203
tp204
Rp205
sg99
g89
(g93
S'\x1a#\x07\xc8\xb8\xbduC'
p206
tp207
Rp208
sg103
g89
(g93
S'3\x99)\xe3+\xd4\xfbB'
p209
tp210
Rp211
sg107
g89
(g93
S'6V\xe6\xaa"\xc6\xb4@'
p212
tp213
Rp214
sa(dp215
g88
g89
(g93
S'\xd7m\x0br)8cD'
p216
tp217
Rp218
sg99
g89
(g93
S'\xd8\xdf\x18N\xc3\x07\xa1D'
p219
tp220
Rp221
sg103
g89
(g93
S'@\xb6J\xea\x81\xcc%D'
p222
tp223
Rp224
sg107
g89
(g93
S'+\xebn\xbc\xe4\x94\xb4@'
p225
tp226
Rp227
sa(dp228
g88
g89
(g93
S'O\xe9\xdd67\xd3HE'
p229
tp230
Rp231
sg99
g89
(g93
S'\x00\xcdv\xbe]\xff\x85E'
p232
tp233
Rp234
sg103
g89
(g93
S'`\x9a\x83\x12&(\x0cE'
p235
tp236
Rp237
sg107
g89
(g93
S';E\xe7\x11\xb4W\xb4@'
p238
tp239
Rp240
sa(dp241
g88
g89
(g93
S'\xe3]\x95\xc9\x88\x88\x89D'
p242
tp243
Rp244
sg99
g89
(g93
S'\xc0V\xffl\x08\xa0\xc6D'
p245
tp246
Rp247
sg103
g89
(g93
S'}\xed:m\xcd\xf5LD'
p248
tp249
Rp250
sg107
g89
(g93
S'2\xda-\x0c\xd3 \xb4@'
p251
tp252
Rp253
sa(dp254
g88
g89
(g93
S'\xc6dq\x07!\xe3"E'
p255
tp256
Rp257
sg99
g89
(g93
S'\x14\xf7zDj\xbc`E'
p258
tp259
Rp260
sg103
g89
(g93
S')uw$\rl\xe5D'
p261
tp262
Rp263
sg107
g89
(g93
S'\xea\xf9\x96\xab\xe5\xea\xb3@'
p264
tp265
Rp266
sa(dp267
g88
g89
(g93
S'\x0bZ\xf4\x87f\xb1*D'
p268
tp269
Rp270
sg99
g89
(g93
S'\xd1}\xa11\x16\xa7gD'
p271
tp272
Rp273
sg103
g89
(g93
S'[{M\x99\x93F\xeeC'
p274
tp275
Rp276
sg107
g89
(g93
S'\xde\x98\x0f\x1d\xb2\xbc\xb3@'
p277
tp278
Rp279
sa(dp280
g88
g89
(g93
S'b\x9f\x1e\xd0\xc17\x15D'
p281
tp282
Rp283
sg99
g89
(g93
S'\xc9OE\x8f\x16\xcdRD'
p284
tp285
Rp286
sg103
g89
(g93
S'5j\x7f\xbd\xc0\x10\xd8C'
p287
tp288
Rp289
sg107
g89
(g93
S'\xb1~\xf7t\xa0\x95\xb3@'
p290
tp291
Rp292
sa(dp293
g88
g89
(g93
S'B&q/\x8f\xf5\x18E'
p294
tp295
Rp296
sg99
g89
(g93
S'N8\x9fR\xcc\x1dVE'
p297
tp298
Rp299
sg103
g89
(g93
S'\xbb|[\x03\x1aO\xdcD'
p300
tp301
Rp302
sg107
g89
(g93
S'v\xba\xbc\x8b\x99r\xb3@'
p303
tp304
Rp305
sa(dp306
g88
g89
(g93
S'X$\x87\x06\xae\xff|C'
p307
tp308
Rp309
sg99
g89
(g93
S'\x9bE+\x917\xb2\xb9C'
p310
tp311
Rp312
sg103
g89
(g93
S'\n\xf3\ni\xc7\x8a@C'
p313
tp314
Rp315
sg107
g89
(g93
S'+\x7f\x07\xee\xbaR\xb3@'
p316
tp317
Rp318
sa(dp319
g88
g89
(g93
S'\xb83\xd7\x10`\x814F'
p320
tp321
Rp322
sg99
g89
(g93
S'\x1a\xd4\xda\xb4z+rF'
p323
tp324
Rp325
sg103
g89
(g93
S'\x92\xbd\x88\xbe\xe4A\xf7E'
p326
tp327
Rp328
sg107
g89
(g93
S'\xbe\xd8e\xed\xef&\xb3@'
p329
tp330
Rp331
sa(dp332
g88
g89
(g93
S'Ym\x1a\x0b\x81lbD'
p333
tp334
Rp335
sg99
g89
(g93
S'!\xf0M&MS\xa0D'
p336
tp337
Rp338
sg103
g89
(g93
S'\xd0]\xb7x\x81\xe5$D'
p339
tp340
Rp341
sg107
g89
(g93
S'\xb7-\x99*\x84\x17\xb3@'
p342
tp343
Rp344
sa(dp345
g88
g89
(g93
S'.\xd8\xe8\xb3\xb6\xc4\x0eD'
p346
tp347
Rp348
sg99
g89
(g93
S'\x05{<^\x96CKD'
p349
tp350
Rp351
sg103
g89
(g93
S'.\x9ay\x99\x99u\xd1C'
p352
tp353
Rp354
sg107
g89
(g93
S'\x8amY7\x92\x00\xb3@'
p355
tp356
Rp357
sa(dp358
g88
g89
(g93
S'E&\xdc:\xd4;\xf7B'
p359
tp360
Rp361
sg99
g89
(g93
S'\xab\r\xbbz@\x964C'
p362
tp363
Rp364
sg103
g89
(g93
S'\xaa\xbf\x94A\xb9\\\xbaB'
p365
tp366
Rp367
sg107
g89
(g93
S'\x18\xa1\x1dR7\xe1\xb2@'
p368
tp369
Rp370
sa(dp371
g88
g89
(g93
S'\x13\xd0\xcf\xaa1\xc44D'
p372
tp373
Rp374
sg99
g89
(g93
S'gyz\x01\xb0frD'
p375
tp376
Rp377
sg103
g89
(g93
S'\x18\xc4\xfd\x1f\xae\x8d\xf7C'
p378
tp379
Rp380
sg107
g89
(g93
S'\xead\xfa\x82\xbf\xac\xb2@'
p381
tp382
Rp383
sa(dp384
g88
g89
(g93
S'\x06\xb5\rFX\xaf\x82C'
p385
tp386
Rp387
sg99
g89
(g93
S'"\x00S\xb6W\x8e\xc0C'
p388
tp389
Rp390
sg103
g89
(g93
S'&!in\xda1EC'
p391
tp392
Rp393
sg107
g89
(g93
S'Qvy\xec\xfd\x9a\xb2@'
p394
tp395
Rp396
sa(dp397
g88
g89
(g93
S'\x03\xb9oE?&\xafC'
p398
tp399
Rp400
sg99
g89
(g93
S'f\x96i\x13\xfe\x99\xebC'
p401
tp402
Rp403
sg103
g89
(g93
S'\x8c\x1du\x80W\xaaqC'
p404
tp405
Rp406
sg107
g89
(g93
S'e\xd0px\xb9\x83\xb2@'
p407
tp408
Rp409
sa(dp410
g88
g89
(g93
S'(Csp\xfc\xee\xeeC'
p411
tp412
Rp413
sg99
g89
(g93
S'\x1b\x90$\x87\x06i+D'
p414
tp415
Rp416
sg103
g89
(g93
S'\xf2\xf1t\x7f\xe5\x8a\xb1C'
p417
tp418
Rp419
sg107
g89
(g93
S'\x8e\x8a\x9c\xd7\xe2X\xb2@'
p420
tp421
Rp422
sa(dp423
g88
g89
(g93
S'\tm\x84o\xb9u\xf9C'
p424
tp425
Rp426
sg99
g89
(g93
S'\xb0\x02N\xf4\\\x8f6D'
p427
tp428
Rp429
sg103
g89
(g93
S'\x05\x0e\x8b\x01\x81\xe0\xbcC'
p430
tp431
Rp432
sg107
g89
(g93
S'\xec\xcd2iN-\xb2@'
p433
tp434
Rp435
sa(dp436
g88
g89
(g93
S'\xdb\xe2|\xfb\x7f\x93\xa7D'
p437
tp438
Rp439
sg99
g89
(g93
S'\x8a\xb5\xd8\xc9\x10\xe4\xe4D'
p440
tp441
Rp442
sg103
g89
(g93
S'\x8e\xfeJ!\x86\xbdjD'
p443
tp444
Rp445
sg107
g89
(g93
S'\xd6\xefh\x8bc\xdd\xb1@'
p446
tp447
Rp448
sa(dp449
g88
g89
(g93
S'\xaeN\xa8\xeb\x12\x8bbD'
p450
tp451
Rp452
sg99
g89
(g93
S'j\n\xd2\xabcn\xa0D'
p453
tp454
Rp455
sg103
g89
(g93
S'\x13\x9e.\xa9-\x08%D'
p456
tp457
Rp458
sg107
g89
(g93
S'\x9eu!y\xcd\xc6\xb1@'
p459
tp460
Rp461
sa(dp462
g88
g89
(g93
S'LB\x06/CT\x93C'
p463
tp464
Rp465
sg99
g89
(g93
S'\xfe\x9c\x96\xa4\xa9 \xd1C'
p466
tp467
Rp468
sg103
g89
(g93
S'#\x05\xdf#_\xecUC'
p469
tp470
Rp471
sg107
g89
(g93
S'dN\xf1x\xd3\xa7\xb1@'
p472
tp473
Rp474
sa(dp475
g88
g89
(g93
S'\xde\x07"L\xd7L\x14C'
p476
tp477
Rp478
sg99
g89
(g93
S'=u\xe8l%]QC'
p479
tp480
Rp481
sg103
g89
(g93
S'\x9e\xc1H\xfa/\x03\xd9B'
p482
tp483
Rp484
sg107
g89
(g93
S'aAZ\x01\x07\x90\xb1@'
p485
tp486
Rp487
sa(dp488
g88
g89
(g93
S'\xca\xd6E4\xddWiD'
p489
tp490
Rp491
sg99
g89
(g93
S'\x91\x90q\xf9\xe7t\xa6D'
p492
tp493
Rp494
sg103
g89
(g93
S'R\x0cX\xb1\x9a\xbe,D'
p495
tp496
Rp497
sg107
g89
(g93
S'\x95\xfe\x14i9I\xb1@'
p498
tp499
Rp500
sa(dp501
g88
g89
(g93
S'\xaf\xc2\x18\x84U\x8b\xd8D'
p502
tp503
Rp504
sg99
g89
(g93
S'\x02\xe0\xa8\xf8\xab\xbf\x15E'
p505
tp506
Rp507
sg103
g89
(g93
S'}\xda\x89\xaf\x9e\xd6\x9bD'
p508
tp509
Rp510
sg107
g89
(g93
S'O\xfb\x9f\x0ef;\xb1@'
p511
tp512
Rp513
sa(dp514
g88
g89
(g93
S'6\xa2\x86\x89\x82\xd4\xb1C'
p515
tp516
Rp517
sg99
g89
(g93
S'\xe2\x13\xef\xf59\x99\xefC'
p518
tp519
Rp520
sg103
g89
(g93
S'\x80VYg19tC'
p521
tp522
Rp523
sg107
g89
(g93
S'\xf5\x80\xe3\x03~\x03\xb1@'
p524
tp525
Rp526
sa(dp527
g88
g89
(g93
S'\x8aA\x1b\xde\x9d\xd7\x08C'
p528
tp529
Rp530
sg99
g89
(g93
S'\xdcG\x84\x98\xf1\x02FC'
p531
tp532
Rp533
sg103
g89
(g93
S'\xb8\xe3ow\xaa.\xccB'
p534
tp535
Rp536
sg107
g89
(g93
S'\xba_,\xe4R\xcc\xb0@'
p537
tp538
Rp539
sa(dp540
g88
g89
(g93
S'\xa8 M\x1f\xfc\xb5"D'
p541
tp542
Rp543
sg99
g89
(g93
S'\xd0\x84\x04\xadi\x94`D'
p544
tp545
Rp546
sg103
g89
(g93
S'\xc2BOq\xd98\xe5C'
p547
tp548
Rp549
sg107
g89
(g93
S'R\xf7\x1d[F\xa9\xb0@'
p550
tp551
Rp552
sa(dp553
g88
g89
(g93
S'>)YG\xda\x07\xa8C'
p554
tp555
Rp556
sg99
g89
(g93
S'\xde\xec\x18k*K\xe5C'
p557
tp558
Rp559
sg103
g89
(g93
S'\xf3)4\x97\x7fAkC'
p560
tp561
Rp562
sg107
g89
(g93
S'\x1d\xc7\xd1\x06\xd1\x8e\xb0@'
p563
tp564
Rp565
sa(dp566
g88
g89
(g93
S'\xc9\x07\xb6`\x0c\x1e&D'
p567
tp568
Rp569
sg99
g89
(g93
S"'\x17\xedF&\x99cD"
p570
tp571
Rp572
sg103
g89
(g93
S'/\xfc\xb0\xf8\xf3\x15\xe9C'
p573
tp574
Rp575
sg107
g89
(g93
S'\xca\xa6gk\xccl\xb0@'
p576
tp577
Rp578
sa(dp579
g88
g89
(g93
S';\xe9\xd8\xd3\xc7\xa2GD'
p580
tp581
Rp582
sg99
g89
(g93
S'\xa7\xe1s\x1c\xb9{\x84D'
p583
tp584
Rp585
sg103
g89
(g93
S'\xfaYoX\xd4\xaa\x0eD'
p586
tp587
Rp588
sg107
g89
(g93
S'\x0eN\xed\x1b\xd8M\xb0@'
p589
tp590
Rp591
sa(dp592
g88
g89
(g93
S'\xbe\x9d\x92w\xa7\x85.D'
p593
tp594
Rp595
sg99
g89
(g93
S'\xcd=7\xea\x99\x0bkD'
p596
tp597
Rp598
sg103
g89
(g93
S'&\xc5\xd1rfO\xf1C'
p599
tp600
Rp601
sg107
g89
(g93
S'\xdeK\xb0}5.\xb0@'
p602
tp603
Rp604
sa(dp605
g88
g89
(g93
S'\x86\xd9v\xa4\xf3\x90<C'
p606
tp607
Rp608
sg99
g89
(g93
S'\x1e\x06\xbb\x86\x03PyC'
p609
tp610
Rp611
sg103
g89
(g93
S'\x82N\xd06F3\x00C'
p612
tp613
Rp614
sg107
g89
(g93
S'\xd2\xe8\xe5\xd9k\x01\xb0@'
p615
tp616
Rp617
sa(dp618
g88
g89
(g93
S'=E\x8a\x9az6\xb2D'
p619
tp620
Rp621
sg99
g89
(g93
S'v_\x92\xfam#\xf0D'
p622
tp623
Rp624
sg103
g89
(g93
S'Y\xb7\x12\x85;\xa8tD'
p625
tp626
Rp627
sg107
g89
(g93
S'\xa6\xf2\x9d\xe2\xa8\xb5\xaf@'
p628
tp629
Rp630
sa(dp631
g88
g89
(g93
S'm\x9b\xd20\x0f\xd2\nE'
p632
tp633
Rp634
sg99
g89
(g93
S'\xda\r\x9e\x88\x06\xc4GE'
p635
tp636
Rp637
sg103
g89
(g93
S'\xfe\x94\xac{\x8dk\xceD'
p638
tp639
Rp640
sg107
g89
(g93
S'\x08L,\x12\x16X\xaf@'
p641
tp642
Rp643
sa(dp644
g88
g89
(g93
S'N\xd19\r\x02\xbb\x10D'
p645
tp646
Rp647
sg99
g89
(g93
S'-J\x14\x16\\\xa6MD'
p648
tp649
Rp650
sg103
g89
(g93
S'\xf3\x9f^\xda\xd4\xf9\xd2C'
p651
tp652
Rp653
sg107
g89
(g93
S'\xa84nX\x8c\xf9\xae@'
p654
tp655
Rp656
sa(dp657
g88
g89
(g93
S' \x15s\xa6.\xc5\xedD'
p658
tp659
Rp660
sg99
g89
(g93
S'\x80\xa6\xec\x1b$a*E'
p661
tp662
Rp663
sg103
g89
(g93
S'\x8a*=\xa1\x02\xe2\xb0D'
p664
tp665
Rp666
sg107
g89
(g93
S'\x8a\xd1[;~Y\xae@'
p667
tp668
Rp669
sa(dp670
g88
g89
(g93
S'\xe5T\xf1\x10\t\x82\xb2D'
p671
tp672
Rp673
sg99
g89
(g93
S'\xb2\x99\x7f\\af\xf0D'
p674
tp675
Rp676
sg103
g89
(g93
S'\x7f\xd6[C\xed\xfdtD'
p677
tp678
Rp679
sg107
g89
(g93
S'\x8d%\xdc\x9d\xe0G\xae@'
p680
tp681
Rp682
sa(dp683
g88
g89
(g93
S'2Z\n\xb5\xbcC\x81E'
p684
tp685
Rp686
sg99
g89
(g93
S'\xc3\\\xe6$\xac\x98\xbeE'
p687
tp688
Rp689
sg103
g89
(g93
S'-\x92\xf5\xb4\x08\x95CE'
p690
tp691
Rp692
sg107
g89
(g93
S'\xc2\xc7i%\xadT\xae@'
p693
tp694
Rp695
sa(dp696
g88
g89
(g93
S'-\x8ePc\xc1N\x83F'
p697
tp698
Rp699
sg99
g89
(g93
S'\x1ayFt\xc8\x1b\xc1F'
p700
tp701
Rp702
sg103
g89
(g93
S"j\x01'M\x1f\xe6EF"
p703
tp704
Rp705
sg107
g89
(g93
S'[\xc1}f\x0c\x1e\xae@'
p706
tp707
Rp708
sa(dp709
g88
g89
(g93
S'\xa2#\x06\xeaX\xbe\xdaC'
p710
tp711
Rp712
sg99
g89
(g93
S'J\n\xf6\xd6\x8d\xb2\x17D'
p713
tp714
Rp715
sg103
g89
(g93
S'\xc0\xbb\xac\xfa4U\x9eC'
p716
tp717
Rp718
sg107
g89
(g93
S'x\x1e\x1a\x17\xd3\xaf\xad@'
p719
tp720
Rp721
sa(dp722
g88
g89
(g93
S',\x1f+\xa1\xfeE\x03E'
p723
tp724
Rp725
sg99
g89
(g93
S'u\xee\x83$\x05\x14AE'
p726
tp727
Rp728
sg103
g89
(g93
S'\x12\xf8C\x8c/\xdc\xc5D'
p729
tp730
Rp731
sg107
g89
(g93
S'\r8\x1a\xa5;\xbc\xad@'
p732
tp733
Rp734
sa(dp735
g88
g89
(g93
S'\xc0\xea\xb7\x08\xf3eGD'
p736
tp737
Rp738
sg99
g89
(g93
S'n\xfbG\x01\xb4\xbb\x84D'
p739
tp740
Rp741
sg103
g89
(g93
S'\x9d\xd5\xfaJ\xdc\x89\nD'
p742
tp743
Rp744
sg107
g89
(g93
S'\xe6\x82\x135\xbcp\xad@'
p745
tp746
Rp747
sa(dp748
g88
g89
(g93
S'\xe0\xdf\xe0{O\x9d\xafC'
p749
tp750
Rp751
sg99
g89
(g93
S'VW\xde\xff\xf2\x06\xe5C'
p752
tp753
Rp754
sg103
g89
(g93
S'\xee(y/\xfa`xC'
p755
tp756
Rp757
sg107
g89
(g93
S'(r\x81H\xb6l\xad@'
p758
tp759
Rp760
sa(dp761
g88
g89
(g93
S'\xfbl\xff\xb4BJ\x18D'
p762
tp763
Rp764
sg99
g89
(g93
S'\xc0\xec\xd1\x92\x02\x86UD'
p765
tp766
Rp767
sg103
g89
(g93
S'\x12\xcaO\x1d\xd0\x8c\xdbC'
p768
tp769
Rp770
sg107
g89
(g93
S'\x05\xf8e\xf9\xfbV\xad@'
p771
tp772
Rp773
sa(dp774
g88
g89
(g93
S'&\xa4\xc0\xccx\x97\x95E'
p775
tp776
Rp777
sg99
g89
(g93
S'V\xc0\xff\xb1\xe6!\xd3E'
p778
tp779
Rp780
sg103
g89
(g93
S'"Ku@P}XE'
p781
tp782
Rp783
sg107
g89
(g93
S'{\xf6\xb4g\xac\x06\xad@'
p784
tp785
Rp786
sa(dp787
g88
g89
(g93
S'\xc6#\xe3\x841\xe6\x11D'
p788
tp789
Rp790
sg99
g89
(g93
S'\xd2\xf3\xaa\xb6\x93\xb8OD'
p791
tp792
Rp793
sg103
g89
(g93
S'\x95\xf0jW+M\xd4C'
p794
tp795
Rp796
sg107
g89
(g93
S'\xcd\x1c\x81xi\xe2\xac@'
p797
tp798
Rp799
sa(dp800
g88
g89
(g93
S'\x94z\xe3\x13\x99\x04HF'
p801
tp802
Rp803
sg99
g89
(g93
S'\xaa\xba{+HH\x85F'
p804
tp805
Rp806
sg103
g89
(g93
S'\xd0iu\x04\xcd=\x0bF'
p807
tp808
Rp809
sg107
g89
(g93
S'6w\x07\xa3T\xaf\xac@'
p810
tp811
Rp812
sa(dp813
g88
g89
(g93
S'\x0e\x87~a\xd6k\x8eD'
p814
tp815
Rp816
sg99
g89
(g93
S'\x15\xb4\xca|\xd0\xf4\xcaD'
p817
tp818
Rp819
sg103
g89
(g93
S'\x7f0\x9ey\x85@QD'
p820
tp821
Rp822
sg107
g89
(g93
S'{\xce\x18\x84\xa1f\xac@'
p823
tp824
Rp825
sa(dp826
g88
g89
(g93
S'\xea\xf4\xf2\x06\x88vJD'
p827
tp828
Rp829
sg99
g89
(g93
S'(\xc3\xb7$\xecr\x87D'
p830
tp831
Rp832
sg103
g89
(g93
S'F\x8e(\xa4\xbd\x03\x0eD'
p833
tp834
Rp835
sg107
g89
(g93
S'kD\xd0\x99\x15e\xac@'
p836
tp837
Rp838
sa(dp839
g88
g89
(g93
S'R\x89O\x8a\xa2pxC'
p840
tp841
Rp842
sg99
g89
(g93
S'\x92;"\xf8\xfe\xa7\xb5C'
p843
tp844
Rp845
sg103
g89
(g93
S'\x1e\n\xc9\xfe\x90\xb8;C'
p846
tp847
Rp848
sg107
g89
(g93
S'\x85e:\xd3G\xdb\xab@'
p849
tp850
Rp851
sa(dp852
g88
g89
(g93
S'^\x1a)p\xde\xb9\x9fD'
p853
tp854
Rp855
sg99
g89
(g93
S'zw.\xde\xcc\x1c\xdcD'
p856
tp857
Rp858
sg103
g89
(g93
S'\xb6S\x9f\xc3\xf3\xfdaD'
p859
tp860
Rp861
sg107
g89
(g93
S'%\xd8/\xc8\x11{\xab@'
p862
tp863
Rp864
sa(dp865
g88
g89
(g93
S'\xd4\xed+\xbd\xd2\xa4\xb7E'
p866
tp867
Rp868
sg99
g89
(g93
S'\xe6\x1a\xd7nj\xf3\xf4E'
p869
tp870
Rp871
sg103
g89
(g93
S'\xca\xda\xfe\x12,\xd1zE'
p872
tp873
Rp874
sg107
g89
(g93
S'\xb2\xf4\x1c)\xcc\x1e\xab@'
p875
tp876
Rp877
sa(dp878
g88
g89
(g93
S'\x96\xcf\x96\x0eE\x05\x83D'
p879
tp880
Rp881
sg99
g89
(g93
S'\xa6\xca\xc3\xd1\xaa\xda\xc0D'
p882
tp883
Rp884
sg103
g89
(g93
S'X\ti,\xc6\x92ED'
p885
tp886
Rp887
sg107
g89
(g93
S' X\x82\x9f\xc48\xab@'
p888
tp889
Rp890
sa(dp891
g88
g89
(g93
S'\xf3O:\xb2\xd5E\xf1D'
p892
tp893
Rp894
sg99
g89
(g93
S'\x80\x8d\xbc\x8cc\x9c.E'
p895
tp896
Rp897
sg103
g89
(g93
S'"\xee\xab\xf3I\x97\xb3D'
p898
tp899
Rp900
sg107
g89
(g93
S'C\xdd\x97\x9a\x95\x1b\xab@'
p901
tp902
Rp903
sa(dp904
g88
g89
(g93
S'\xca\x90\xd58\xaf\xe0,D'
p905
tp906
Rp907
sg99
g89
(g93
S'j\xa2\xc7+\xab\x96iD'
p908
tp909
Rp910
sg103
g89
(g93
S'\n\xb1 \xa3m`\xf0C'
p911
tp912
Rp913
sg107
g89
(g93
S'\xb8<\xf2\xf7\xfcd\xab@'
p914
tp915
Rp916
sa(dp917
g88
g89
(g93
S'\x15\xf0K\x0e\xda)CD'
p918
tp919
Rp920
sg99
g89
(g93
S'\x154?(\x15\xfb\x80D'
p921
tp922
Rp923
sg103
g89
(g93
S'\x83\xea\xa1\x0cD\xbc\x05D'
p924
tp925
Rp926
sg107
g89
(g93
S'\xeeG[\x0e\x0e\x14\xb0@'
p927
tp928
Rp929
sa(dp930
g88
g89
(g93
S'U\xc2q\xbdf}cC'
p931
tp932
Rp933
sg99
g89
(g93
S'\xf5\xcf\xb8\xb4\x1dE\xa1C'
p934
tp935
Rp936
sg103
g89
(g93
S'\xc4l\xb0\x01\t\x1b&C'
p937
tp938
Rp939
sg107
g89
(g93
S'\x0e6v\x0f\xdd\x0c\xb2@'
p940
tp941
Rp942
sa(dp943
g88
g89
(g93
S'+!O\x02T\x1f&C'
p944
tp945
Rp946
sg99
g89
(g93
S'\xf7\xee\xceA=\x9acC'
p947
tp948
Rp949
sg103
g89
(g93
S'7M\x80\xf3\xda\x18\xe9B'
p950
tp951
Rp952
sg107
g89
(g93
S'\x89<\x1f\x9e\xdd\x08\xb2@'
p953
tp954
Rp955
sa(dp956
g88
g89
(g93
S'\x1e\xcc\x8e\xdf\xb8x\x12C'
p957
tp958
Rp959
sg99
g89
(g93
S'\xb1\xb2)7\x14^PC'
p960
tp961
Rp962
sg103
g89
(g93
S'C\xb8X\xe4\x1b\xf8\xd4B'
p963
tp964
Rp965
sg107
g89
(g93
S'\xb9\xc8x\xdd\xf0\xf4\xb3@'
p966
tp967
Rp968
sa(dp969
g88
g89
(g93
S'\x99\x82\xf13"\xb1\xc7B'
p970
tp971
Rp972
sg99
g89
(g93
S'n\xc0\x0f\xff\xf7\xfa\x04C'
p973
tp974
Rp975
sg103
g89
(g93
S'\xb3\xe3\xece\x04\xea\x8aB'
p976
tp977
Rp978
sg107
g89
(g93
S'#m\xf8\xfe\x97y\xb4@'
p979
tp980
Rp981
satp982
Rp983
(dp984
g77
I01
sg78
Nsg79
Nsg80
I0
sg81
g82
(g1
tp985
Rp986
sbsS'size'
p987
g0
(g1
g2
(lp988
(dp989
g88
g89
(g93
S'S>\xae\xba\xf4l5@'
p990
tp991
Rp992
sg99
F125.45
sg103
g89
(g93
S'\x03+\x87\x16\xd9\xfe*@'
p993
tp994
Rp995
sg107
F2.0
sa(dp996
g88
g89
(g93
S'\xe1r\x0c\xbbn\x0f&@'
p997
tp998
Rp999
sg99
F76.7
sg103
g89
(g93
S'\xe3\xa5\x9b\xc4 \x90\x1e@'
p1000
tp1001
Rp1002
sg107
F1.15
sa(dp1003
g88
g89
(g93
S'h\xa6_\xb4\x81\xeb\x10@'
p1004
tp1005
Rp1006
sg99
F37.1
sg103
g89
(g93
S'`\xe5\xd0"\xdb9\x11@'
p1007
tp1008
Rp1009
sg107
F1.2
sa(dp1010
g88
g89
(g93
S'\xc7\xf5\xce\x89\xcd\xcc\x01@'
p1011
tp1012
Rp1013
sg99
F13.4
sg103
g89
(g93
S'\xa9\xf1\xd2Mb\x90\x10@'
p1014
tp1015
Rp1016
sg107
F1.2
sa(dp1017
g88
g89
(g93
S'\xca\x90k%$\xb1\xff?'
p1018
tp1019
Rp1020
sg99
F13.25
sg103
g89
(g93
S'\xa5\x9b\xc4 \xb0\xf2\x11@'
p1021
tp1022
Rp1023
sg107
F1.3
sa(dp1024
g88
g89
(g93
S'-\xd0\xa3,`\x01\xff?'
p1025
tp1026
Rp1027
sg99
F13.6
sg103
g89
(g93
S'v\x93\x18\x04V\x8e\x13@'
p1028
tp1029
Rp1030
sg107
F1.2
sa(dp1031
g88
g89
(g93
S'\x1eT\xa4+_`\x00@'
p1032
tp1033
Rp1034
sg99
F13.3
sg103
g89
(g93
S'\xac\x1cZd;\xbf\x15@'
p1035
tp1036
Rp1037
sg107
F1.45
sa(dp1038
g88
g89
(g93
S'\xb1r\xd6\x14\x99/\x02@'
p1039
tp1040
Rp1041
sg99
F14.5
sg103
g89
(g93
S'~?5^\xbai\x18@'
p1042
tp1043
Rp1044
sg107
F1.55
sa(dp1045
g88
g89
(g93
S'z\xe9.\x9aNt\x02@'
p1046
tp1047
Rp1048
sg99
F15.8
sg103
g89
(g93
S'#\xdb\xf9~j\x1c\x1b@'
p1049
tp1050
Rp1051
sg107
F1.75
sa(dp1052
g88
g89
(g93
S'\xaa\xabHDi\xca\x03@'
p1053
tp1054
Rp1055
sg99
F16.35
sg103
g89
(g93
S' \xb0rh\x91-\x1e@'
p1056
tp1057
Rp1058
sg107
F1.8
sa(dp1059
g88
g89
(g93
S'\xee\xfa\xe0$\xb1\xc1\x06@'
p1060
tp1061
Rp1062
sg99
F18.35
sg103
g89
(g93
S'\xd2"\xdb\xf9~*!@'
p1063
tp1064
Rp1065
sg107
F1.85
sa(dp1066
g88
g89
(g93
S'R\xdd\x97\xfb\r;\x0b@'
p1067
tp1068
Rp1069
sg99
F22.2
sg103
g89
(g93
S'\xe1z\x14\xaeG\xc1#@'
p1070
tp1071
Rp1072
sg107
F2.25
sa(dp1073
g88
g89
(g93
S'\xfa:\x8f\xee\x94\x8b\x0f@'
p1074
tp1075
Rp1076
sg99
F26.15
sg103
g89
(g93
S'B`\xe5\xd0"\xdb%@'
p1077
tp1078
Rp1079
sg107
F2.3
sa(dp1080
g88
g89
(g93
S'f\xc4^\xc1}\x8a\x11@'
p1081
tp1082
Rp1083
sg99
F27.9
sg103
g89
(g93
S"G\xe1z\x14\xae\xf7'@"
p1084
tp1085
Rp1086
sg107
F2.1
sa(dp1087
g88
g89
(g93
S'\x86\x17\xf6\x9eM\x81\x12@'
p1088
tp1089
Rp1090
sg99
F30.15
sg103
g89
(g93
S'\xb5\xc8v\xbe\x9f\xea)@'
p1091
tp1092
Rp1093
sg107
F2.4
sa(dp1094
g88
g89
(g93
S'\xd6b5\xb8\x8d\x01\x14@'
p1095
tp1096
Rp1097
sg99
F31.9
sg103
g89
(g93
S'R\xb8\x1e\x85\xeb\x91+@'
p1098
tp1099
Rp1100
sg107
F2.2
sa(dp1101
g88
g89
(g93
S'\x04k~\x06\xd2\x8c\x15@'
p1102
tp1103
Rp1104
sg99
F32.95
sg103
g89
(g93
S'&\x06\x81\x95C\xdb,@'
p1105
tp1106
Rp1107
sg107
F2.65
sa(dp1108
g88
g89
(g93
S'i\xd08_\x1f\xd2\x16@'
p1109
tp1110
Rp1111
sg99
F34.4
sg103
g89
(g93
S'n\x12\x83\xc0\xca\xf1-@'
p1112
tp1113
Rp1114
sg107
F2.3
sa(dp1115
g88
g89
(g93
S'\r\xdd\xcaj\xeb\xef\x17@'
p1116
tp1117
Rp1118
sg99
F37.5
sg103
g89
(g93
S'X9\xb4\xc8v\xfe.@'
p1119
tp1120
Rp1121
sg107
F2.65
sa(dp1122
g88
g89
(g93
S'm"\x95\x9a\x84\xdf\x19@'
p1123
tp1124
Rp1125
sg99
F38.9
sg103
g89
(g93
S'\xed|?5^B0@'
p1126
tp1127
Rp1128
sg107
F3.05
sa(dp1129
g88
g89
(g93
S'0\xa0\xeau0\x8e\x1b@'
p1130
tp1131
Rp1132
sg99
F41.7
sg103
g89
(g93
S'd;\xdfO\x8d\xd70@'
p1133
tp1134
Rp1135
sg107
F1.95
sa(dp1136
g88
g89
(g93
S'\xf6\x88N\x1d!q\x1c@'
p1137
tp1138
Rp1139
sg99
F42.0
sg103
g89
(g93
S'.\xb2\x9d\xef\xa7\x9e1@'
p1140
tp1141
Rp1142
sg107
F2.6
sa(dp1143
g88
g89
(g93
S'\x02\x9e\xa8\xe0Hy\x1f@'
p1144
tp1145
Rp1146
sg99
F46.1
sg103
g89
(g93
S'\x82\x95C\x8bl_2@'
p1147
tp1148
Rp1149
sg107
F2.7
sa(dp1150
g88
g89
(g93
S'\xe2U\xf1\x88\x1f\xa7 @'
p1151
tp1152
Rp1153
sg99
F47.95
sg103
g89
(g93
S'h\x91\xed|?%3@'
p1154
tp1155
Rp1156
sg107
F2.4
sa(dp1157
g88
g89
(g93
S'\x0cAv\xa4\xec\xbc!@'
p1158
tp1159
Rp1160
sg99
F52.05
sg103
g89
(g93
S'<\xdfO\x8d\x97\xb63@'
p1161
tp1162
Rp1163
sg107
F2.4
sa(dp1164
g88
g89
(g93
S'\x86N\t\x16*\xfd"@'
p1165
tp1166
Rp1167
sg99
F53.75
sg103
g89
(g93
S'\xff\xff\xff\xff\xffg4@'
p1168
tp1169
Rp1170
sg107
F2.75
sa(dp1171
g88
g89
(g93
S'>\xe30\xfc\nb$@'
p1172
tp1173
Rp1174
sg99
F57.95
sg103
g89
(g93
S'\xebQ\xb8\x1e\x85K5@'
p1175
tp1176
Rp1177
sg107
F3.4
sa(dp1178
g88
g89
(g93
S'\xaet\x00B%\xff$@'
p1179
tp1180
Rp1181
sg99
F59.85
sg103
g89
(g93
S'|\xe9&1\x08\xcc5@'
p1182
tp1183
Rp1184
sg107
F3.0
sa(dp1185
g88
g89
(g93
S'\xb04-\xea\xeb\xb0&@'
p1186
tp1187
Rp1188
sg99
F62.6
sg103
g89
(g93
S'\xa2E\xb6\xf3\xfd|6@'
p1189
tp1190
Rp1191
sg107
F2.15
sa(dp1192
g88
g89
(g93
S"\xb29k\x83Wa'@"
p1193
tp1194
Rp1195
sg99
F65.0
sg103
g89
(g93
S'\xd0\xf7S\xe3\xa5K7@'
p1196
tp1197
Rp1198
sg107
F2.7
sa(dp1199
g88
g89
(g93
S'b\n4\xf9\xe4\xa3(@'
p1200
tp1201
Rp1202
sg99
F69.4
sg103
g89
(g93
S'\xd8\xce\xf7S\xe3=8@'
p1203
tp1204
Rp1205
sg107
F2.2
sa(dp1206
g88
g89
(g93
S'F\x06\x9eU;&(@'
p1207
tp1208
Rp1209
sg99
F66.3
sg103
g89
(g93
S'\xe7\xfb\xa9\xf1\xd2]8@'
p1210
tp1211
Rp1212
sg107
F2.75
sa(dp1213
g88
g89
(g93
S'\x92S\xab\xc1\xb9\x1a)@'
p1214
tp1215
Rp1216
sg99
F69.15
sg103
g89
(g93
S'\x98n\x12\x83\xc0:9@'
p1217
tp1218
Rp1219
sg107
F2.55
sa(dp1220
g88
g89
(g93
S'\xf6e\xefp\xcbB)@'
p1221
tp1222
Rp1223
sg99
F69.55
sg103
g89
(g93
S'\xc0\x9f\x1a/\xdd\x949@'
p1224
tp1225
Rp1226
sg107
F2.7
sa(dp1227
g88
g89
(g93
S'\xe3\x9b\xc87\x10\xa9)@'
p1228
tp1229
Rp1230
sg99
F71.3
sg103
g89
(g93
S'\xb5\xc8v\xbe\x9f*:@'
p1231
tp1232
Rp1233
sg107
F2.3
sa(dp1234
g88
g89
(g93
S'%\x01y\xcf\xbb\xfa*@'
p1235
tp1236
Rp1237
sg99
F73.95
sg103
g89
(g93
S'~j\xbct\x93\xa0:@'
p1238
tp1239
Rp1240
sg107
F2.55
sa(dp1241
g88
g89
(g93
S'-\x7f\x03\xec\x92\x8e+@'
p1242
tp1243
Rp1244
sg99
F78.7
sg103
g89
(g93
S'n\x12\x83\xc0\xca1;@'
p1245
tp1246
Rp1247
sg107
F2.2
sa(dp1248
g88
g89
(g93
S'\x03\x9f\x9c\xdax\xbe+@'
p1249
tp1250
Rp1251
sg99
F79.3
sg103
g89
(g93
S'\x88A`\xe5\xd0\xca;@'
p1252
tp1253
Rp1254
sg107
F2.65
sa(dp1255
g88
g89
(g93
S'K  I\xad\x08,@'
p1256
tp1257
Rp1258
sg99
F80.85
sg103
g89
(g93
S'\x00\x00\x00\x00\x00\xd8;@'
p1259
tp1260
Rp1261
sg107
F2.55
sa(dp1262
g88
g89
(g93
S'\xb6\x00\xadb\x0f\xbf-@'
p1263
tp1264
Rp1265
sg99
F86.25
sg103
g89
(g93
S'\x85\xebQ\xb8\x1ee<@'
p1266
tp1267
Rp1268
sg107
F3.75
sa(dp1269
g88
g89
(g93
S'=\x03\xa1\x86\x11t-@'
p1270
tp1271
Rp1272
sg99
F85.7
sg103
g89
(g93
S'b\x10X9\xb4\xe8<@'
p1273
tp1274
Rp1275
sg107
F3.2
sa(dp1276
g88
g89
(g93
S'c&\xb4x\xbc\x8f-@'
p1277
tp1278
Rp1279
sg99
F84.6
sg103
g89
(g93
S'\r\x02+\x87\x16\x01=@'
p1280
tp1281
Rp1282
sg107
F2.5
sa(dp1283
g88
g89
(g93
S'\x92\x81\xfe\x8d\xba\x0e/@'
p1284
tp1285
Rp1286
sg99
F87.9
sg103
g89
(g93
S'\r-\xb2\x9d\xefo=@'
p1287
tp1288
Rp1289
sg107
F2.55
sa(dp1290
g88
g89
(g93
S'\xc0\x9d\xae\x89\xbfx/@'
p1291
tp1292
Rp1293
sg99
F88.6
sg103
g89
(g93
S'\xa2p=\n\xd73>@'
p1294
tp1295
Rp1296
sg107
F3.1
sa(dp1297
g88
g89
(g93
S'\xd7\xed!vi\x930@'
p1298
tp1299
Rp1300
sg99
F96.35
sg103
g89
(g93
S'\x10X9\xb4\xc8n>@'
p1301
tp1302
Rp1303
sg107
F2.7
sa(dp1304
g88
g89
(g93
S'\xfd3p\x87\xae\x020@'
p1305
tp1306
Rp1307
sg99
F93.7
sg103
g89
(g93
S'=\xdfO\x8d\x97\xae>@'
p1308
tp1309
Rp1310
sg107
F3.05
sa(dp1311
g88
g89
(g93
S'\x80\x84\xb2W\x7f\x980@'
p1312
tp1313
Rp1314
sg99
F96.1
sg103
g89
(g93
S'-\xb2\x9d\xef\xa7\x1e?@'
p1315
tp1316
Rp1317
sg107
F2.45
sa(dp1318
g88
g89
(g93
S'\x02\x1e\x86\x90#\x041@'
p1319
tp1320
Rp1321
sg99
F98.9
sg103
g89
(g93
S'\x9an\x12\x83\xc0\xba?@'
p1322
tp1323
Rp1324
sg107
F2.25
sa(dp1325
g88
g89
(g93
S'&J\xb1)\x0c01@'
p1326
tp1327
Rp1328
sg99
F98.25
sg103
g89
(g93
S'\t\xac\x1cZd+@@'
p1329
tp1330
Rp1331
sg107
F2.8
sa(dp1332
g88
g89
(g93
S'M\xa4\xccCD\xfa1@'
p1333
tp1334
Rp1335
sg99
F102.05
sg103
g89
(g93
S'`\xe5\xd0"\xdb\x95@@'
p1336
tp1337
Rp1338
sg107
F2.75
sa(dp1339
g88
g89
(g93
S'f3\x0eTGi1@'
p1340
tp1341
Rp1342
sg99
F101.4
sg103
g89
(g93
S'~j\xbct\x93x@@'
p1343
tp1344
Rp1345
sg107
F2.8
sa(dp1346
g88
g89
(g93
S'wxk\xa5O\x9f1@'
p1347
tp1348
Rp1349
sg99
F101.05
sg103
g89
(g93
S'\x9e\xef\xa7\xc6Ks@@'
p1350
tp1351
Rp1352
sg107
F3.35
sa(dp1353
g88
g89
(g93
S'#\x0e\xcb\xc1\x1d\xda1@'
p1354
tp1355
Rp1356
sg99
F102.65
sg103
g89
(g93
S'\xb2\x9d\xef\xa7\xc6w@@'
p1357
tp1358
Rp1359
sg107
F2.25
sa(dp1360
g88
g89
(g93
S'\xbaa+\xe6\xef\xe51@'
p1361
tp1362
Rp1363
sg99
F101.2
sg103
g89
(g93
S'\xa2E\xb6\xf3\xfd\x94@@'
p1364
tp1365
Rp1366
sg107
F3.35
sa(dp1367
g88
g89
(g93
S'\xbb\xa3\xc9xfx2@'
p1368
tp1369
Rp1370
sg99
F107.95
sg103
g89
(g93
S'\xfe\xd4x\xe9&\xdd@@'
p1371
tp1372
Rp1373
sg107
F3.6
sa(dp1374
g88
g89
(g93
S'\x13f_\xde\xc7q2@'
p1375
tp1376
Rp1377
sg99
F104.3
sg103
g89
(g93
S'2\x08\xac\x1cZ\xec@@'
p1378
tp1379
Rp1380
sg107
F3.8
sa(dp1381
g88
g89
(g93
S'\xb7\x8c\x10\xb0\xc8\xa02@'
p1382
tp1383
Rp1384
sg99
F105.7
sg103
g89
(g93
S'\xb0rh\x91\xedLA@'
p1385
tp1386
Rp1387
sg107
F3.0
sa(dp1388
g88
g89
(g93
S'\xc8\xac\xfe\xae\x01\xa22@'
p1389
tp1390
Rp1391
sg99
F103.55
sg103
g89
(g93
S'\x8aA`\xe5\xd0VA@'
p1392
tp1393
Rp1394
sg107
F3.05
sa(dp1395
g88
g89
(g93
S'T\x1d,\xfc6\x8e2@'
p1396
tp1397
Rp1398
sg99
F106.45
sg103
g89
(g93
S'\x16\xd9\xce\xf7SGA@'
p1399
tp1400
Rp1401
sg107
F2.7
sa(dp1402
g88
g89
(g93
S'3!\xe3\xa3C\xe92@'
p1403
tp1404
Rp1405
sg99
F109.05
sg103
g89
(g93
S'H\xe1z\x14\xae_A@'
p1406
tp1407
Rp1408
sg107
F2.55
sa(dp1409
g88
g89
(g93
S':\xda\xc8\xd4\xd1\n3@'
p1410
tp1411
Rp1412
sg99
F107.4
sg103
g89
(g93
S'\xdeO\x8d\x97nrA@'
p1413
tp1414
Rp1415
sg107
F3.25
sa(dp1416
g88
g89
(g93
S')9\x96\xdeM\xd03@'
p1417
tp1418
Rp1419
sg99
F113.95
sg103
g89
(g93
S'\xe1z\x14\xaeG\tB@'
p1420
tp1421
Rp1422
sg107
F2.05
sa(dp1423
g88
g89
(g93
S'\xed\x0b \xb0\xa7F3@'
p1424
tp1425
Rp1426
sg99
F112.15789473684211
sg103
g89
(g93
S'\xd4\xef\xb9%N}A@'
p1427
tp1428
Rp1429
sg107
F2.473684210526316
sa(dp1430
g88
g89
(g93
S'*6t?.\x991@'
p1431
tp1432
Rp1433
sg99
F104.28571428571429
sg103
g89
(g93
S'iyc\x04\x13\x8d=@'
p1434
tp1435
Rp1436
sg107
F2.357142857142857
sa(dp1437
g88
g89
(g93
S').\xb3\xa2\x92=,@'
p1438
tp1439
Rp1440
sg99
F79.25
sg103
g89
(g93
S'\x9a\x99\x99\x99\x99\xc98@'
p1441
tp1442
Rp1443
sg107
F3.125
sa(dp1444
g88
g89
(g93
S'\xbf\r\xb4h\xaa\xb2*@'
p1445
tp1446
Rp1447
sg99
F74.0
sg103
g89
(g93
S'\xed\x02bSi(7@'
p1448
tp1449
Rp1450
sg107
F2.7142857142857144
sa(dp1451
g88
g89
(g93
S'$\x92,\x858\x7f%@'
p1452
tp1453
Rp1454
sg99
F58.2
sg103
g89
(g93
S'}?5^\xba\xe92@'
p1455
tp1456
Rp1457
sg107
F2.4
sa(dp1458
g88
g89
(g93
S'\xfb\xfe\x87\\\xdf\xec\x1d@'
p1459
tp1460
Rp1461
sg99
F37.333333333333336
sg103
g89
(g93
S'X\xf2\x8b%\xbf\x18*@'
p1462
tp1463
Rp1464
sg107
F1.0
satp1465
Rp1466
(dp1467
g77
I01
sg78
Nsg79
Nsg80
I0
sg81
g82
(g1
tp1468
Rp1469
sbssb.