ccopy_reg
_reconstructor
p0
(cdeap.tools.support
Logbook
p1
c__builtin__
list
p2
(lp3
(dp4
S'nevals'
p5
F500.0
sS'gen'
p6
I0
sa(dp7
g5
F867.35
sg6
I1
sa(dp8
g5
F1236.6
sg6
I2
sa(dp9
g5
F1599.85
sg6
I3
sa(dp10
g5
F1966.6
sg6
I4
sa(dp11
g5
F2333.3
sg6
I5
sa(dp12
g5
F2700.4
sg6
I6
sa(dp13
g5
F3065.2
sg6
I7
sa(dp14
g5
F3435.75
sg6
I8
sa(dp15
g5
F3802.25
sg6
I9
sa(dp16
g5
F4169.05
sg6
I10
sa(dp17
g5
F4533.25
sg6
I11
sa(dp18
g5
F4901.5
sg6
I12
sa(dp19
g5
F5266.25
sg6
I13
sa(dp20
g5
F5630.4
sg6
I14
sa(dp21
g5
F5998.2
sg6
I15
sa(dp22
g5
F6362.05
sg6
I16
sa(dp23
g5
F6725.0
sg6
I17
sa(dp24
g5
F7087.6
sg6
I18
sa(dp25
g5
F7454.5
sg6
I19
sa(dp26
g5
F7817.55
sg6
I20
sa(dp27
g5
F8181.25
sg6
I21
sa(dp28
g5
F8546.1
sg6
I22
sa(dp29
g5
F8908.75
sg6
I23
sa(dp30
g5
F9273.75
sg6
I24
sa(dp31
g5
F9637.45
sg6
I25
sa(dp32
g5
F9999.7
sg6
I26
sa(dp33
g5
F10307.272727272728
sg6
I27
satp34
Rp35
(dp36
S'log_header'
p37
I01
sS'header'
p38
NsS'columns_len'
p39
NsS'buffindex'
p40
I0
sS'chapters'
p41
ccollections
defaultdict
p42
(g1
tp43
Rp44
S'fitness'
p45
g0
(g1
g2
(lp46
(dp47
S'std'
p48
cnumpy.core.multiarray
scalar
p49
(cnumpy
dtype
p50
(S'f8'
p51
I0
I1
tp52
Rp53
(I3
S'<'
p54
NNNI-1
I-1
I0
tp55
bS'\xc6\x04\x08\xcc\xa9d\xfa?'
p56
tp57
Rp58
sS'max'
p59
g49
(g53
S'~\xa2i\x8b\x16\xfa0@'
p60
tp61
Rp62
sS'avg'
p63
g49
(g53
S'f\xea\x8a\xa6\xe0\xeb\xf8?'
p64
tp65
Rp66
sS'min'
p67
g49
(g53
S'\xef\xd8o\xf0\xfc\xd7\xa0?'
p68
tp69
Rp70
sa(dp71
g48
g49
(g53
S'\x8e\x1c[\xd6gD\xe8?'
p72
tp73
Rp74
sg59
g49
(g53
S'\xeb\xffT\x90*4\x1d@'
p75
tp76
Rp77
sg63
g49
(g53
S'^\xecd\x03\xda\xb0\xea?'
p78
tp79
Rp80
sg67
g49
(g53
S'\xc3\t\xf8\xa7\xe7\xec\x9b?'
p81
tp82
Rp83
sa(dp84
g48
g49
(g53
S'\xe58K\x06!\xdb\xe4?'
p85
tp86
Rp87
sg59
g49
(g53
S'*\xb3\xab\n\xb9\xf6\x18@'
p88
tp89
Rp90
sg63
g49
(g53
S'PxN\x8c{\xae\xe1?'
p91
tp92
Rp93
sg67
g49
(g53
S"uu\xbd\xf0'\x83\x97?"
p94
tp95
Rp96
sa(dp97
g48
g49
(g53
S'\x90\x1e\xdf\xf4_n\xe4?'
p98
tp99
Rp100
sg59
g49
(g53
S'{\xa0n\xd0\xf9O\x1a@'
p101
tp102
Rp103
sg63
g49
(g53
S'\x18\x87\xcb|=\x98\xda?'
p104
tp105
Rp106
sg67
g49
(g53
S'\x9d{[%bN\x90?'
p107
tp108
Rp109
sa(dp110
g48
g49
(g53
S'O\xa6\xb6\x0b]?\xe5?'
p111
tp112
Rp113
sg59
g49
(g53
S'@7\x85\xac\xa6\x1c\x1c@'
p114
tp115
Rp116
sg63
g49
(g53
S'\xd8\x9a\x14n\x88/\xd7?'
p117
tp118
Rp119
sg67
g49
(g53
S'\xabj\xcd\x7f\xdd\xa3\x86?'
p120
tp121
Rp122
sa(dp123
g48
g49
(g53
S'\xddV\x0c~\xb7\xce\xe1?'
p124
tp125
Rp126
sg59
g49
(g53
S"'\x1c\xc3a>H\x17@"
p127
tp128
Rp129
sg63
g49
(g53
S'\xee\xc8\x15c\x99\x8b\xd2?'
p130
tp131
Rp132
sg67
g49
(g53
S'\xfeg|^MR\x82?'
p133
tp134
Rp135
sa(dp136
g48
g49
(g53
S'\x9a\x8f\x91\xda:\xff\xe2?'
p137
tp138
Rp139
sg59
g49
(g53
S'\x9036<\x896\x1d@'
p140
tp141
Rp142
sg63
g49
(g53
S'\xc5!/\xcf)w\xd2?'
p143
tp144
Rp145
sg67
g49
(g53
S'~\xabt\x913\xb9u?'
p146
tp147
Rp148
sa(dp149
g48
g49
(g53
S'\x1e`\tA\xb4\xd3\xe2?'
p150
tp151
Rp152
sg59
g49
(g53
S'F\x8cC\xa2u\xc7\x16@'
p153
tp154
Rp155
sg63
g49
(g53
S'\xca(M\xd3\xba\xfd\xd2?'
p156
tp157
Rp158
sg67
g49
(g53
S'k\xc4\xb3\xa1\xeeEu?'
p159
tp160
Rp161
sa(dp162
g48
g49
(g53
S'b\x80\x81\x9c\x8c<\xe6?'
p163
tp164
Rp165
sg59
g49
(g53
S'\xbe\xca\x94"l\xb9\x1e@'
p166
tp167
Rp168
sg63
g49
(g53
S':\xaa:\xcd\xfd\xa6\xd3?'
p169
tp170
Rp171
sg67
g49
(g53
S'\xf0Mtj\x97}o?'
p172
tp173
Rp174
sa(dp175
g48
g49
(g53
S'\nT\x83\x9c\x96\xe9\xea?'
p176
tp177
Rp178
sg59
g49
(g53
S"y\t\x8f\x11yz'@"
p179
tp180
Rp181
sg63
g49
(g53
S'1\xa3$o:1\xd3?'
p182
tp183
Rp184
sg67
g49
(g53
S'"\x12\x07\xce\xee\xd0g?'
p185
tp186
Rp187
sa(dp188
g48
g49
(g53
S'\x88<\x83sr{\xea?'
p189
tp190
Rp191
sg59
g49
(g53
S"jSo\x1f\x0f]'@"
p192
tp193
Rp194
sg63
g49
(g53
S'\xf2\xb0O\xe2\tg\xd2?'
p195
tp196
Rp197
sg67
g49
(g53
S'\xfe\xdb\xa4\xae\xf8z^?'
p198
tp199
Rp200
sa(dp201
g48
g49
(g53
S'fh\x8b;\x8d\xfb\xea?'
p202
tp203
Rp204
sg59
g49
(g53
S'n\xae\xe29n\x90&@'
p205
tp206
Rp207
sg63
g49
(g53
S'\x9b\x98\x9dSY\xbb\xd2?'
p208
tp209
Rp210
sg67
g49
(g53
S'"\xef\x06p\x05\'W?'
p211
tp212
Rp213
sa(dp214
g48
g49
(g53
S'\xd0\xe3\xbe\t{M\xec?'
p215
tp216
Rp217
sg59
g49
(g53
S'v\xb0\xd9Y\xde\x84&@'
p218
tp219
Rp220
sg63
g49
(g53
S'z\xad\xe6S#v\xd3?'
p221
tp222
Rp223
sg67
g49
(g53
S's\xd3\xfaL~%W?'
p224
tp225
Rp226
sa(dp227
g48
g49
(g53
S'J\xa5\xd4\xdbZ\x8e\xe3?'
p228
tp229
Rp230
sg59
g49
(g53
S':\x8c`\xefjY\x19@'
p231
tp232
Rp233
sg63
g49
(g53
S's\xb1m\xb3%M\xd0?'
p234
tp235
Rp236
sg67
g49
(g53
S'\xf0p\x81\xa2V\xdeI?'
p237
tp238
Rp239
sa(dp240
g48
g49
(g53
S'\x1fK\x83S\xe4u\xe1?'
p241
tp242
Rp243
sg59
g49
(g53
S'#v\x9b\xf9$\xcc\x16@'
p244
tp245
Rp246
sg63
g49
(g53
S'\xc3\xd6\xa4\xa1\xa2\x0b\xcd?'
p247
tp248
Rp249
sg67
g49
(g53
S'\x93\x99ard1A?'
p250
tp251
Rp252
sa(dp253
g48
g49
(g53
S'\xc0\xe0\x02\x8a\xa8\x96\xe1?'
p254
tp255
Rp256
sg59
g49
(g53
S'C\x87:\xa10\xc5\x16@'
p257
tp258
Rp259
sg63
g49
(g53
S'\xa8\xd6k7sQ\xcd?'
p260
tp261
Rp262
sg67
g49
(g53
S'\xfb\xcc\xf9\x83\xff+;?'
p263
tp264
Rp265
sa(dp266
g48
g49
(g53
S'[\xc4\xb0\xea"\x1c\xe1?'
p267
tp268
Rp269
sg59
g49
(g53
S'\x9e\x99\xc5\xfa)O\x13@'
p270
tp271
Rp272
sg63
g49
(g53
S'\x16\xe4[<i\x8b\xcc?'
p273
tp274
Rp275
sg67
g49
(g53
S'n{9\xd9\x8a\xa0:?'
p276
tp277
Rp278
sa(dp279
g48
g49
(g53
S'\xec\xf0\xb6o\xbb\xe6\xe1?'
p280
tp281
Rp282
sg59
g49
(g53
S'\xf6\xb8\xf4\x10\x1b\xba\x17@'
p283
tp284
Rp285
sg63
g49
(g53
S'\xf8?\xe0cb\xd3\xcb?'
p286
tp287
Rp288
sg67
g49
(g53
S'\x9e-"\x18S\xa4:?'
p289
tp290
Rp291
sa(dp292
g48
g49
(g53
S'\x0b\xdc]{\xa3n\xe1?'
p293
tp294
Rp295
sg59
g49
(g53
S'0d`\x1e\xe4\xa2\x18@'
p296
tp297
Rp298
sg63
g49
(g53
S'=Y\x90%?\r\xca?'
p299
tp300
Rp301
sg67
g49
(g53
S'\x9e-"\x18S\xa4:?'
p302
tp303
Rp304
sa(dp305
g48
g49
(g53
S'\xba\xe3\xaa\\$<\xe2?'
p306
tp307
Rp308
sg59
g49
(g53
S'\xf0q\xe00m\x0f\x1a@'
p309
tp310
Rp311
sg63
g49
(g53
S'S\x95\xeb{\x91\x97\xcb?'
p312
tp313
Rp314
sg67
g49
(g53
S'\x9dg\x15\x91z\xb0,?'
p315
tp316
Rp317
sa(dp318
g48
g49
(g53
S'b\xa1 +\xc0&\xe2?'
p319
tp320
Rp321
sg59
g49
(g53
S'\x1d\xfe\x19%\xa9[\x1a@'
p322
tp323
Rp324
sg63
g49
(g53
S'\x98\x85|\x18\x82\x11\xca?'
p325
tp326
Rp327
sg67
g49
(g53
S'\x97U@\xc6z6(?'
p328
tp329
Rp330
sa(dp331
g48
g49
(g53
S'\xb85\xe9\xc4\x10\x14\xe3?'
p332
tp333
Rp334
sg59
g49
(g53
S'6\x8c\x14-xY\x18@'
p335
tp336
Rp337
sg63
g49
(g53
S'\xfa\x93G\xd6n\x16\xcc?'
p338
tp339
Rp340
sg67
g49
(g53
S'\xe6\xb6\x9bO\xe8\xa7!?'
p341
tp342
Rp343
sa(dp344
g48
g49
(g53
S'~\xa8\xddj\x97\x9f\xe2?'
p345
tp346
Rp347
sg59
g49
(g53
S'\xee\t\xcd\xcbR\xa4\x1d@'
p348
tp349
Rp350
sg63
g49
(g53
S'?a7\xaf\xc2s\xc9?'
p351
tp352
Rp353
sg67
g49
(g53
S'9`\xacq\xe1\x11 ?'
p354
tp355
Rp356
sa(dp357
g48
g49
(g53
S'\xefi\xe6s\x0c\x99\xe1?'
p358
tp359
Rp360
sg59
g49
(g53
S'\x08iWW\x1d\xd5\x16@'
p361
tp362
Rp363
sg63
g49
(g53
S'\ni\x86NdJ\xca?'
p364
tp365
Rp366
sg67
g49
(g53
S'\xad\xc3\xba\xd2\x8e  ?'
p367
tp368
Rp369
sa(dp370
g48
g49
(g53
S'\x99Z\xdb\x079\x19\xe1?'
p371
tp372
Rp373
sg59
g49
(g53
S'\xe2\xa4y\xde\\:\x14@'
p374
tp375
Rp376
sg63
g49
(g53
S'>\xa0\x8a\xfe~\x88\xcb?'
p377
tp378
Rp379
sg67
g49
(g53
S'\x05`|I\x8a  ?'
p380
tp381
Rp382
sa(dp383
g48
g49
(g53
S'\x7f\xef\x13];\x8d\xe1?'
p384
tp385
Rp386
sg59
g49
(g53
S'\r\x86\x8c\x1by4\x15@'
p387
tp388
Rp389
sg63
g49
(g53
S'\xfb\xac$\xec\x88\xfc\xcb?'
p390
tp391
Rp392
sg67
g49
(g53
S'\xb3\xc1r\x8a\x8a\x95\x1e?'
p393
tp394
Rp395
sa(dp396
g48
g49
(g53
S'\xda%2^U\x05\xe2?'
p397
tp398
Rp399
sg59
g49
(g53
S'U\x88\xc4\x88]\xee\x1a@'
p400
tp401
Rp402
sg63
g49
(g53
S'k\x82y\x1bX\xca\xca?'
p403
tp404
Rp405
sg67
g49
(g53
S'\xed\xa5L\xce~\xf6\x1b?'
p406
tp407
Rp408
sa(dp409
g48
g49
(g53
S'/\xdd\xceMNb\xe0?'
p410
tp411
Rp412
sg59
g49
(g53
S'\xb6\xb0\xbe\x90\xd4\xe5\x12@'
p413
tp414
Rp415
sg63
g49
(g53
S'\xc6|\xacM\xb4\xfc\xcc?'
p416
tp417
Rp418
sg67
g49
(g53
S'\x139\x0f\x97\xca\x8f\x07?'
p419
tp420
Rp421
satp422
Rp423
(dp424
g37
I01
sg38
Nsg39
Nsg40
I0
sg41
g42
(g1
tp425
Rp426
sbsS'size'
p427
g0
(g1
g2
(lp428
(dp429
g48
g49
(g53
S'=\xe3\xf2\x01\xe0\xcf\x14@'
p430
tp431
Rp432
sg59
F28.2
sg63
g49
(g53
S'\xae\xb6b\x7f\xd9}\x1b@'
p433
tp434
Rp435
sg67
F2.0
sa(dp436
g48
g49
(g53
S'zB\xf5\x8bg\x19\x13@'
p437
tp438
Rp439
sg59
F26.45
sg63
g49
(g53
S'\x8aA`\xe5\xd0"\x19@'
p440
tp441
Rp442
sg67
F1.05
sa(dp443
g48
g49
(g53
S'\x1a\xf5g6f\xfd\x12@'
p444
tp445
Rp446
sg59
F27.85
sg63
g49
(g53
S'\t\xce\x19Q\xda[\x19@'
p447
tp448
Rp449
sg67
F1.0
sa(dp450
g48
g49
(g53
S'\n\xed\xa1\x01E\x08\x14@'
p451
tp452
Rp453
sg59
F29.1
sg63
g49
(g53
S'\x08\x8a\x1fc\xee\x1a\x1c@'
p454
tp455
Rp456
sg67
F1.1
sa(dp457
g48
g49
(g53
S'B\xc5\x85\xdf8h\x14@'
p458
tp459
Rp460
sg59
F29.45
sg63
g49
(g53
S'\x9e^)\xcb\x10\x07 @'
p461
tp462
Rp463
sg67
F1.1
sa(dp464
g48
g49
(g53
S'J\xba\x1e\x9e\x03\xbd\x13@'
p465
tp466
Rp467
sg59
F30.45
sg63
g49
(g53
S'\xbf\x9f\x1a/\xddd!@'
p468
tp469
Rp470
sg67
F1.15
sa(dp471
g48
g49
(g53
S'G\xb3\x17\xbd\xcfm\x13@'
p472
tp473
Rp474
sg59
F30.25
sg63
g49
(g53
S'\'\xc2\x86\xa7W\xea"@'
p475
tp476
Rp477
sg67
F1.2
sa(dp478
g48
g49
(g53
S'9Q\xfeq\x17Q\x14@'
p479
tp480
Rp481
sg59
F31.35
sg63
g49
(g53
S'\xf1A\xcff\xd5g$@'
p482
tp483
Rp484
sg67
F1.3
sa(dp485
g48
g49
(g53
S'\x98\xd7\x07\x1a\xf1\xbf\x14@'
p486
tp487
Rp488
sg59
F32.35
sg63
g49
(g53
S'\xef\xa7\xc6K7\xc9%@'
p489
tp490
Rp491
sg67
F1.25
sa(dp492
g48
g49
(g53
S'\xc1\x00I&\x1e9\x16@'
p493
tp494
Rp495
sg59
F33.7
sg63
g49
(g53
S"\xb6\xf3\xfd\xd4x\xa9'@"
p496
tp497
Rp498
sg67
F1.4
sa(dp499
g48
g49
(g53
S'h\xb6\xc8\x9b#\xee\x16@'
p500
tp501
Rp502
sg59
F35.6
sg63
g49
(g53
S'V}\xae\xb6b_)@'
p503
tp504
Rp505
sg67
F1.5
sa(dp506
g48
g49
(g53
S')#\xe9\x1a&\x1f\x18@'
p507
tp508
Rp509
sg59
F39.25
sg63
g49
(g53
S'\rq\xac\x8b\xdb(+@'
p510
tp511
Rp512
sg67
F1.5
sa(dp513
g48
g49
(g53
S'\x08S/\x01\xdc\xcf\x18@'
p514
tp515
Rp516
sg59
F40.8
sg63
g49
(g53
S'\xda\x1b|a2u,@'
p517
tp518
Rp519
sg67
F1.3
sa(dp520
g48
g49
(g53
S':\x9a\x16\xbd\xd7g\x19@'
p521
tp522
Rp523
sg59
F40.85
sg63
g49
(g53
S'&\xa0\x89\xb0\xe1I-@'
p524
tp525
Rp526
sg67
F1.7
sa(dp527
g48
g49
(g53
S'\xc0\xa0y\x81\x80i\x1a@'
p528
tp529
Rp530
sg59
F44.15
sg63
g49
(g53
S'\xed|?5^:.@'
p531
tp532
Rp533
sg67
F2.05
sa(dp534
g48
g49
(g53
S'\xb5\x12w\xedJ!\x1b@'
p535
tp536
Rp537
sg59
F44.95
sg63
g49
(g53
S'\xa8W\xca2\xc4\xd1.@'
p538
tp539
Rp540
sg67
F1.9
sa(dp541
g48
g49
(g53
S'\x13\xfa\x8e\xda`o\x1b@'
p542
tp543
Rp544
sg59
F46.3
sg63
g49
(g53
S'2U0*\xa9s/@'
p545
tp546
Rp547
sg67
F1.9
sa(dp548
g48
g49
(g53
S'\xc6\x8cp\xc6\xb8\xf4\x1c@'
p549
tp550
Rp551
sg59
F47.35
sg63
g49
(g53
S'@5^\xbaI,0@'
p552
tp553
Rp554
sg67
F1.9
sa(dp555
g48
g49
(g53
S'Vs\xbe\xd6{\xd9\x1c@'
p556
tp557
Rp558
sg59
F48.85
sg63
g49
(g53
S'\xa2\xd64\xef8U0@'
p559
tp560
Rp561
sg67
F1.9
sa(dp562
g48
g49
(g53
S'E\xdb\xfe\xf7\x11b\x1d@'
p563
tp564
Rp565
sg59
F49.45
sg63
g49
(g53
S'f\x88c]\xdc\x960@'
p566
tp567
Rp568
sg67
F2.0
sa(dp569
g48
g49
(g53
S'-\tl\xa5\x9a\xbc\x1e@'
p570
tp571
Rp572
sg59
F50.75
sg63
g49
(g53
S'C\xadi\xdeq\xfa0@'
p573
tp574
Rp575
sg67
F2.1
sa(dp576
g48
g49
(g53
S"\x8a\x93\xb5\xde\xdd'\x1f@"
p577
tp578
Rp579
sg59
F53.45
sg63
g49
(g53
S'J\x0c\x02+\x8761@'
p580
tp581
Rp582
sg67
F1.5
sa(dp583
g48
g49
(g53
S'\xd3\xac\xda\xaeH6\x1f@'
p584
tp585
Rp586
sg59
F53.95
sg63
g49
(g53
S'm\xc5\xfe\xb2{b1@'
p587
tp588
Rp589
sg67
F2.3
sa(dp590
g48
g49
(g53
S'\xf6\xd1\x16\xaar\x0f @'
p591
tp592
Rp593
sg59
F54.35
sg63
g49
(g53
S'\xeaH.\xff!}1@'
p594
tp595
Rp596
sg67
F1.65
sa(dp597
g48
g49
(g53
S'\xaeh\t\xa6(O\x1f@'
p598
tp599
Rp600
sg59
F53.4
sg63
g49
(g53
S'U\xc1\xa8\xa4Np1@'
p601
tp602
Rp603
sg67
F1.9
sa(dp604
g48
g49
(g53
S'\xa0xZt\x8d`\x1f@'
p605
tp606
Rp607
sg59
F54.4
sg63
g49
(g53
S'%u\x02\x9a\x08[1@'
p608
tp609
Rp610
sg67
F1.5
sa(dp611
g48
g49
(g53
S'\xa3\x01\x96=\xa1\\\x1f@'
p612
tp613
Rp614
sg59
F54.7
sg63
g49
(g53
S'z\xc7):\x92k1@'
p615
tp616
Rp617
sg67
F1.65
sa(dp618
g48
g49
(g53
S'F&kfp\x1e!@'
p619
tp620
Rp621
sg59
F64.0909090909091
sg63
g49
(g53
S'\x1c\xbb\xcd\xb1\xdb\\2@'
p622
tp623
Rp624
sg67
F1.4545454545454546
satp625
Rp626
(dp627
g37
I01
sg38
Nsg39
Nsg40
I0
sg41
g42
(g1
tp628
Rp629
sbssb.