ccopy_reg
_reconstructor
p0
(cdeap.tools.support
Logbook
p1
c__builtin__
list
p2
(lp3
(dp4
S'nevals'
p5
F500.0
sS'gen'
p6
I0
sa(dp7
g5
F866.55
sg6
I1
sa(dp8
g5
F1233.15
sg6
I2
sa(dp9
g5
F1605.7
sg6
I3
sa(dp10
g5
F1972.2
sg6
I4
sa(dp11
g5
F2338.85
sg6
I5
sa(dp12
g5
F2705.3
sg6
I6
sa(dp13
g5
F3069.75
sg6
I7
sa(dp14
g5
F3435.7
sg6
I8
sa(dp15
g5
F3805.5
sg6
I9
sa(dp16
g5
F4170.8
sg6
I10
sa(dp17
g5
F4541.55
sg6
I11
sa(dp18
g5
F4905.55
sg6
I12
sa(dp19
g5
F5275.75
sg6
I13
sa(dp20
g5
F5641.35
sg6
I14
sa(dp21
g5
F6007.3
sg6
I15
sa(dp22
g5
F6373.9
sg6
I16
sa(dp23
g5
F6744.7
sg6
I17
sa(dp24
g5
F7112.7
sg6
I18
sa(dp25
g5
F7478.3
sg6
I19
sa(dp26
g5
F7847.6
sg6
I20
sa(dp27
g5
F8211.1
sg6
I21
sa(dp28
g5
F8578.4
sg6
I22
sa(dp29
g5
F8945.15
sg6
I23
sa(dp30
g5
F9313.9
sg6
I24
sa(dp31
g5
F9677.1
sg6
I25
sa(dp32
g5
F10042.7
sg6
I26
sa(dp33
g5
F10407.9
sg6
I27
sa(dp34
g5
F10774.65
sg6
I28
sa(dp35
g5
F11137.5
sg6
I29
sa(dp36
g5
F11503.1
sg6
I30
sa(dp37
g5
F11863.7
sg6
I31
sa(dp38
g5
F12235.6
sg6
I32
sa(dp39
g5
F12593.35
sg6
I33
sa(dp40
g5
F12956.65
sg6
I34
sa(dp41
g5
F13319.9
sg6
I35
sa(dp42
g5
F13680.3
sg6
I36
sa(dp43
g5
F14042.9
sg6
I37
sa(dp44
g5
F14407.5
sg6
I38
sa(dp45
g5
F14767.45
sg6
I39
sa(dp46
g5
F15129.05
sg6
I40
sa(dp47
g5
F15495.05
sg6
I41
sa(dp48
g5
F15854.9
sg6
I42
sa(dp49
g5
F16219.0
sg6
I43
sa(dp50
g5
F16574.9
sg6
I44
sa(dp51
g5
F16937.1
sg6
I45
sa(dp52
g5
F17298.4
sg6
I46
sa(dp53
g5
F17660.5
sg6
I47
sa(dp54
g5
F18024.6
sg6
I48
sa(dp55
g5
F18387.9
sg6
I49
sa(dp56
g5
F18748.75
sg6
I50
sa(dp57
g5
F19110.1
sg6
I51
sa(dp58
g5
F19468.3
sg6
I52
sa(dp59
g5
F19829.95
sg6
I53
sa(dp60
g5
F20189.85
sg6
I54
sa(dp61
g5
F20550.9
sg6
I55
sa(dp62
g5
F20913.4
sg6
I56
sa(dp63
g5
F21273.55
sg6
I57
sa(dp64
g5
F21639.3
sg6
I58
sa(dp65
g5
F22004.05
sg6
I59
sa(dp66
g5
F22364.7
sg6
I60
sa(dp67
g5
F22727.15
sg6
I61
sa(dp68
g5
F23086.05
sg6
I62
sa(dp69
g5
F23444.95
sg6
I63
sa(dp70
g5
F23808.5
sg6
I64
sa(dp71
g5
F24165.75
sg6
I65
sa(dp72
g5
F24526.95
sg6
I66
sa(dp73
g5
F24889.35
sg6
I67
sa(dp74
g5
F25248.4
sg6
I68
sa(dp75
g5
F25606.85
sg6
I69
sa(dp76
g5
F25967.1
sg6
I70
sa(dp77
g5
F26326.25
sg6
I71
sa(dp78
g5
F26686.95
sg6
I72
sa(dp79
g5
F27048.25
sg6
I73
sa(dp80
g5
F27408.05
sg6
I74
sa(dp81
g5
F27770.85
sg6
I75
sa(dp82
g5
F28130.85
sg6
I76
sa(dp83
g5
F28491.6
sg6
I77
sa(dp84
g5
F28850.85
sg6
I78
sa(dp85
g5
F29213.9
sg6
I79
sa(dp86
g5
F29573.35
sg6
I80
sa(dp87
g5
F29931.8
sg6
I81
sa(dp88
g5
F30292.7
sg6
I82
sa(dp89
g5
F30651.6
sg6
I83
sa(dp90
g5
F31007.9
sg6
I84
sa(dp91
g5
F31367.5
sg6
I85
sa(dp92
g5
F31729.15
sg6
I86
sa(dp93
g5
F32088.7
sg6
I87
sa(dp94
g5
F32451.7
sg6
I88
sa(dp95
g5
F32813.1
sg6
I89
sa(dp96
g5
F33175.25
sg6
I90
sa(dp97
g5
F33533.65
sg6
I91
sa(dp98
g5
F33890.3
sg6
I92
sa(dp99
g5
F34251.8
sg6
I93
sa(dp100
g5
F34609.65
sg6
I94
sa(dp101
g5
F34970.0
sg6
I95
sa(dp102
g5
F35329.55
sg6
I96
sa(dp103
g5
F35688.3
sg6
I97
sa(dp104
g5
F36047.7
sg6
I98
sa(dp105
g5
F36406.55
sg6
I99
sa(dp106
g5
F36765.7
sg6
I100
sa(dp107
g5
F37124.5
sg6
I101
sa(dp108
g5
F37489.1
sg6
I102
sa(dp109
g5
F37847.3
sg6
I103
sa(dp110
g5
F38206.8
sg6
I104
sa(dp111
g5
F38567.75
sg6
I105
sa(dp112
g5
F38925.95
sg6
I106
sa(dp113
g5
F39284.15
sg6
I107
sa(dp114
g5
F39641.25
sg6
I108
sa(dp115
g5
F39996.75
sg6
I109
sa(dp116
g5
F40355.95
sg6
I110
sa(dp117
g5
F40716.3
sg6
I111
sa(dp118
g5
F41076.25
sg6
I112
sa(dp119
g5
F41434.5
sg6
I113
sa(dp120
g5
F41795.7
sg6
I114
sa(dp121
g5
F42152.65
sg6
I115
sa(dp122
g5
F42515.55
sg6
I116
sa(dp123
g5
F42871.65
sg6
I117
sa(dp124
g5
F43229.5
sg6
I118
sa(dp125
g5
F43580.2
sg6
I119
sa(dp126
g5
F43940.95
sg6
I120
sa(dp127
g5
F44298.65
sg6
I121
sa(dp128
g5
F44657.85
sg6
I122
sa(dp129
g5
F45013.95
sg6
I123
sa(dp130
g5
F45371.8
sg6
I124
sa(dp131
g5
F45728.25
sg6
I125
sa(dp132
g5
F46087.6
sg6
I126
sa(dp133
g5
F46446.3
sg6
I127
sa(dp134
g5
F46802.85
sg6
I128
sa(dp135
g5
F47160.35
sg6
I129
sa(dp136
g5
F47516.0
sg6
I130
sa(dp137
g5
F47870.6
sg6
I131
sa(dp138
g5
F48229.5
sg6
I132
sa(dp139
g5
F48586.3
sg6
I133
sa(dp140
g5
F48949.25
sg6
I134
sa(dp141
g5
F49303.25
sg6
I135
sa(dp142
g5
F49660.15
sg6
I136
sa(dp143
g5
F50020.4
sg6
I137
sa(dp144
g5
F50379.2
sg6
I138
sa(dp145
g5
F50737.45
sg6
I139
sa(dp146
g5
F51096.65
sg6
I140
sa(dp147
g5
F51452.65
sg6
I141
sa(dp148
g5
F51809.55
sg6
I142
sa(dp149
g5
F52169.0
sg6
I143
sa(dp150
g5
F52531.8
sg6
I144
sa(dp151
g5
F52889.65
sg6
I145
sa(dp152
g5
F53248.45
sg6
I146
sa(dp153
g5
F53603.7
sg6
I147
sa(dp154
g5
F53962.7
sg6
I148
sa(dp155
g5
F54321.95
sg6
I149
sa(dp156
g5
F54684.55
sg6
I150
sa(dp157
g5
F55045.3
sg6
I151
sa(dp158
g5
F55404.25
sg6
I152
sa(dp159
g5
F55764.05
sg6
I153
sa(dp160
g5
F56124.75
sg6
I154
sa(dp161
g5
F56487.85
sg6
I155
sa(dp162
g5
F56844.2
sg6
I156
sa(dp163
g5
F57201.4
sg6
I157
sa(dp164
g5
F57559.7
sg6
I158
sa(dp165
g5
F57917.5
sg6
I159
sa(dp166
g5
F58277.95
sg6
I160
sa(dp167
g5
F58637.75
sg6
I161
sa(dp168
g5
F58999.3
sg6
I162
sa(dp169
g5
F59359.5
sg6
I163
sa(dp170
g5
F59714.5
sg6
I164
sa(dp171
g5
F60073.4
sg6
I165
sa(dp172
g5
F60432.75
sg6
I166
sa(dp173
g5
F60785.9
sg6
I167
sa(dp174
g5
F61140.45
sg6
I168
sa(dp175
g5
F61497.4
sg6
I169
sa(dp176
g5
F61858.15
sg6
I170
sa(dp177
g5
F62221.3
sg6
I171
sa(dp178
g5
F62581.3
sg6
I172
sa(dp179
g5
F62943.9
sg6
I173
sa(dp180
g5
F63306.55
sg6
I174
sa(dp181
g5
F63669.35
sg6
I175
sa(dp182
g5
F64026.35
sg6
I176
sa(dp183
g5
F64385.45
sg6
I177
sa(dp184
g5
F64744.55
sg6
I178
sa(dp185
g5
F65103.2
sg6
I179
sa(dp186
g5
F65461.8
sg6
I180
sa(dp187
g5
F65820.25
sg6
I181
sa(dp188
g5
F66179.4
sg6
I182
sa(dp189
g5
F66537.2
sg6
I183
sa(dp190
g5
F66894.0
sg6
I184
sa(dp191
g5
F67254.8
sg6
I185
sa(dp192
g5
F67616.6
sg6
I186
sa(dp193
g5
F67973.65
sg6
I187
sa(dp194
g5
F68334.65
sg6
I188
sa(dp195
g5
F68694.6
sg6
I189
sa(dp196
g5
F69056.35
sg6
I190
sa(dp197
g5
F69417.6
sg6
I191
sa(dp198
g5
F69773.7
sg6
I192
sa(dp199
g5
F70135.75
sg6
I193
sa(dp200
g5
F70500.0
sg6
I194
sa(dp201
g5
F70856.35
sg6
I195
sa(dp202
g5
F71215.0
sg6
I196
sa(dp203
g5
F71579.7
sg6
I197
sa(dp204
g5
F71940.65
sg6
I198
sa(dp205
g5
F72302.6
sg6
I199
sa(dp206
g5
F72663.95
sg6
I200
sa(dp207
g5
F73024.6
sg6
I201
sa(dp208
g5
F73384.35
sg6
I202
sa(dp209
g5
F73744.0
sg6
I203
sa(dp210
g5
F74102.7
sg6
I204
sa(dp211
g5
F74464.3
sg6
I205
sa(dp212
g5
F74823.55
sg6
I206
sa(dp213
g5
F75182.6
sg6
I207
sa(dp214
g5
F75543.4
sg6
I208
sa(dp215
g5
F75901.35
sg6
I209
sa(dp216
g5
F76258.0
sg6
I210
sa(dp217
g5
F76615.4
sg6
I211
sa(dp218
g5
F76972.55
sg6
I212
sa(dp219
g5
F77332.6
sg6
I213
sa(dp220
g5
F77692.35
sg6
I214
sa(dp221
g5
F78051.7
sg6
I215
sa(dp222
g5
F78412.5
sg6
I216
sa(dp223
g5
F78772.35
sg6
I217
sa(dp224
g5
F79129.95
sg6
I218
sa(dp225
g5
F79491.2
sg6
I219
sa(dp226
g5
F79849.9
sg6
I220
sa(dp227
g5
F80207.35
sg6
I221
sa(dp228
g5
F80562.9
sg6
I222
sa(dp229
g5
F80922.4
sg6
I223
sa(dp230
g5
F81281.55
sg6
I224
sa(dp231
g5
F81640.0
sg6
I225
sa(dp232
g5
F81998.4
sg6
I226
sa(dp233
g5
F82355.25
sg6
I227
sa(dp234
g5
F82713.9
sg6
I228
sa(dp235
g5
F83069.75
sg6
I229
sa(dp236
g5
F83433.5
sg6
I230
sa(dp237
g5
F83791.65
sg6
I231
sa(dp238
g5
F84149.85
sg6
I232
sa(dp239
g5
F84510.0
sg6
I233
sa(dp240
g5
F84868.9
sg6
I234
sa(dp241
g5
F85223.55
sg6
I235
sa(dp242
g5
F85577.2
sg6
I236
sa(dp243
g5
F85935.9
sg6
I237
sa(dp244
g5
F86294.15
sg6
I238
sa(dp245
g5
F86654.2
sg6
I239
sa(dp246
g5
F87009.95
sg6
I240
sa(dp247
g5
F87368.75
sg6
I241
sa(dp248
g5
F87729.65
sg6
I242
sa(dp249
g5
F88092.3
sg6
I243
sa(dp250
g5
F88448.25
sg6
I244
sa(dp251
g5
F88806.7
sg6
I245
sa(dp252
g5
F89160.4
sg6
I246
sa(dp253
g5
F89518.2
sg6
I247
sa(dp254
g5
F89877.65
sg6
I248
sa(dp255
g5
F90237.15
sg6
I249
sa(dp256
g5
F90593.0
sg6
I250
sa(dp257
g5
F90954.7
sg6
I251
sa(dp258
g5
F91315.85
sg6
I252
sa(dp259
g5
F91674.15
sg6
I253
sa(dp260
g5
F92030.9
sg6
I254
sa(dp261
g5
F92390.7
sg6
I255
sa(dp262
g5
F92752.85
sg6
I256
sa(dp263
g5
F93116.5
sg6
I257
sa(dp264
g5
F93470.15
sg6
I258
sa(dp265
g5
F93830.3
sg6
I259
sa(dp266
g5
F94188.05
sg6
I260
sa(dp267
g5
F94545.15
sg6
I261
sa(dp268
g5
F94904.2
sg6
I262
sa(dp269
g5
F95265.85
sg6
I263
sa(dp270
g5
F95618.1
sg6
I264
sa(dp271
g5
F95978.75
sg6
I265
sa(dp272
g5
F96337.1
sg6
I266
sa(dp273
g5
F96692.65
sg6
I267
sa(dp274
g5
F97055.7
sg6
I268
sa(dp275
g5
F97415.45
sg6
I269
sa(dp276
g5
F97773.3
sg6
I270
sa(dp277
g5
F98129.55
sg6
I271
sa(dp278
g5
F98489.35
sg6
I272
sa(dp279
g5
F98847.75
sg6
I273
sa(dp280
g5
F99206.6
sg6
I274
sa(dp281
g5
F99564.0
sg6
I275
sa(dp282
g5
F99829.05882352941
sg6
I276
sa(dp283
g5
F100055.41666666667
sg6
I277
sa(dp284
g5
F100186.2
sg6
I278
sa(dp285
g5
F100324.0
sg6
I279
satp286
Rp287
(dp288
S'log_header'
p289
I01
sS'header'
p290
NsS'columns_len'
p291
NsS'buffindex'
p292
I0
sS'chapters'
p293
ccollections
defaultdict
p294
(g1
tp295
Rp296
S'fitness'
p297
g0
(g1
g2
(lp298
(dp299
S'std'
p300
cnumpy.core.multiarray
scalar
p301
(cnumpy
dtype
p302
(S'f8'
p303
I0
I1
tp304
Rp305
(I3
S'<'
p306
NNNI-1
I-1
I0
tp307
bS'~\xd0,\xc7\xa6\x04\xefB'
p308
tp309
Rp310
sS'max'
p311
g301
(g305
S'\xae\xd3\xbau>\xb25C'
p312
tp313
Rp314
sS'avg'
p315
g301
(g305
S'\xe2\xa7\x7f\xd8\x947\xa6B'
p316
tp317
Rp318
sS'min'
p319
g301
(g305
S'\x06K\x0c\xb8\tQ\xa2@'
p320
tp321
Rp322
sa(dp323
g300
g301
(g305
S'\xe3\xa4\x855,\xae1B'
p324
tp325
Rp326
sg311
g301
(g305
S'\x90\xa2\x16D\xd9\xbbxB'
p327
tp328
Rp329
sg315
g301
(g305
S'O\x1dOI[T\xe9A'
p330
tp331
Rp332
sg319
g301
(g305
S'q\x0eHe\xfcU\xa1@'
p333
tp334
Rp335
sa(dp336
g300
g301
(g305
S'\x8cCG\t\x12\xbb\x91A'
p337
tp338
Rp339
sg311
g301
(g305
S'\x90Q\x0b\xdb\xb7\xca\xd8A'
p340
tp341
Rp342
sg315
g301
(g305
S'5\x16\xb2\x1cq\xaaIA'
p343
tp344
Rp345
sg319
g301
(g305
S"'\x0c\x02\xfdB\x04\xa0@"
p346
tp347
Rp348
sa(dp349
g300
g301
(g305
S'\xca\xe2\x05c)\xfaUA'
p350
tp351
Rp352
sg311
g301
(g305
S'%\x0f\xda*/a\x9eA'
p353
tp354
Rp355
sg315
g301
(g305
S'g\x18\xe8\x02\x9bZ\x10A'
p356
tp357
Rp358
sg319
g301
(g305
S'h\xfac\xdb.H\x9d@'
p359
tp360
Rp361
sa(dp362
g300
g301
(g305
S'\x0c\xebI\xa8\xd85\x14A'
p363
tp364
Rp365
sg311
g301
(g305
S'\xd8\xc0bf`\xf8[A'
p366
tp367
Rp368
sg315
g301
(g305
S'\xa7\x02\xc8\xbd\x83\x93\xd3@'
p369
tp370
Rp371
sg319
g301
(g305
S'*j\xfe\xd3Zp\x9c@'
p372
tp373
Rp374
sa(dp375
g300
g301
(g305
S'6\xf0\xd1\xae\xe4tbA'
p376
tp377
Rp378
sg311
g301
(g305
S'\xbdTd\xf5g\xc8\xa9A'
p379
tp380
Rp381
sg315
g301
(g305
S'\xf5\n\xfe\xc2\xd6\xe0\x1aA'
p382
tp383
Rp384
sg319
g301
(g305
S'\xbb-\x8d\xd0d\xd4\x9b@'
p385
tp386
Rp387
sa(dp388
g300
g301
(g305
S'\xde\xa5\x1e\xbe\xf6\x93pA'
p389
tp390
Rp391
sg311
g301
(g305
S'S\xc2;\xddh\x06\xb7A'
p392
tp393
Rp394
sg315
g301
(g305
S'\x9dMb\xce\x92\x9d*A'
p395
tp396
Rp397
sg319
g301
(g305
S'"\x8e\x83\x96\xa2U\x9b@'
p398
tp399
Rp400
sa(dp401
g300
g301
(g305
S'b;3z{\xa37A'
p402
tp403
Rp404
sg311
g301
(g305
S">\xfa\xe8\xd0'K\x80A"
p405
tp406
Rp407
sg315
g301
(g305
S'\xe6\x87\x9eJoz\xf2@'
p408
tp409
Rp410
sg319
g301
(g305
S'b\xe3:\x0e\xb15\x9b@'
p411
tp412
Rp413
sa(dp414
g300
g301
(g305
S'F\x1fm\x1b\xb2}\x9fA'
p415
tp416
Rp417
sg311
g301
(g305
S'\xc4\xc9\xf8\x80\x89\x04\xe6A'
p418
tp419
Rp420
sg315
g301
(g305
S'\xe0v+|\xae\x96VA'
p421
tp422
Rp423
sg319
g301
(g305
S'\x88\x88\xfbU\x84\xf7\x9a@'
p424
tp425
Rp426
sa(dp427
g300
g301
(g305
S'pu\xa2\xb6\xa9\xe0\x9aA'
p428
tp429
Rp430
sg311
g301
(g305
S'8M\xb9hX\xcc\xe2A'
p431
tp432
Rp433
sg315
g301
(g305
S'%\x85\xf5\x9a\xccMSA'
p434
tp435
Rp436
sg319
g301
(g305
S'\xee\x96\xe0\x1e\xba\xb1\x9a@'
p437
tp438
Rp439
sa(dp440
g300
g301
(g305
S'\xe6\x96\xa1\xad\x8f\xd9TA'
p441
tp442
Rp443
sg311
g301
(g305
S"#=\xd1c'\t\x9dA"
p444
tp445
Rp446
sg315
g301
(g305
S'\xf2\xb5\x9cA\x97\x00\x0fA'
p447
tp448
Rp449
sg319
g301
(g305
S'\x13F\xccn\x81K\x9a@'
p450
tp451
Rp452
sa(dp453
g300
g301
(g305
S'\x8e\xa2\x03\xe4\x84\x9b\x0fA'
p454
tp455
Rp456
sg311
g301
(g305
S'\x89\xcf\xc2e\xab\xaeSA'
p457
tp458
Rp459
sg315
g301
(g305
S'`RSI\xcf\xff\xd0@'
p460
tp461
Rp462
sg319
g301
(g305
S'c\xd4\xc0d\x07N\x9a@'
p463
tp464
Rp465
sa(dp466
g300
g301
(g305
S'fZ\xcf0\xbe\x03\x8dA'
p467
tp468
Rp469
sg311
g301
(g305
S'\x02\\\xd0\xceu*\xd4A'
p470
tp471
Rp472
sg315
g301
(g305
S'\xb2\n\xe8\xf6\xc3\x99EA'
p473
tp474
Rp475
sg319
g301
(g305
S'&\xe4\xa3\xb5\xac\x00\x9a@'
p476
tp477
Rp478
sa(dp479
g300
g301
(g305
S'.\x81L||\x06\xd1A'
p480
tp481
Rp482
sg311
g301
(g305
S'`\xea*\xfc\xeb\xd0\x17B'
p483
tp484
Rp485
sg315
g301
(g305
S'\x16\xdbd\x11\xbc\xa5\x88A'
p486
tp487
Rp488
sg319
g301
(g305
S'up;\x08e\xb6\x99@'
p489
tp490
Rp491
sa(dp492
g300
g301
(g305
S'\x0cT6Ww8xA'
p493
tp494
Rp495
sg311
g301
(g305
S'V\xa7JX\xb2n\xb8A'
p496
tp497
Rp498
sg315
g301
(g305
S'\xfa\xa7\x8f\xa5O\x888A'
p499
tp500
Rp501
sg319
g301
(g305
S'\x93H%j`s\x99@'
p502
tp503
Rp504
sa(dp505
g300
g301
(g305
S'\xc1vt\xf6k\xdf\xa6A'
p506
tp507
Rp508
sg311
g301
(g305
S'\xd8\xcb\xc6\x02\xa2\xfe\xefA'
p509
tp510
Rp511
sg315
g301
(g305
S'\x9cc\x0cw\xccd`A'
p512
tp513
Rp514
sg319
g301
(g305
S'PA\xe0`_f\x99@'
p515
tp516
Rp517
sa(dp518
g300
g301
(g305
S'\x8aKjI\xcf\x83\x91A'
p519
tp520
Rp521
sg311
g301
(g305
S'\x8c\xed%8\xcf"\xd8A'
p522
tp523
Rp524
sg315
g301
(g305
S'S\xb4N\xf5[\xf9LA'
p525
tp526
Rp527
sg319
g301
(g305
S'\xc9!!\\\x89&\x99@'
p528
tp529
Rp530
sa(dp531
g300
g301
(g305
S'\x7f\x9f\x8b\x9eb/4A'
p532
tp533
Rp534
sg311
g301
(g305
S'\x96\xd2\x91\xf29\xd4{A'
p535
tp536
Rp537
sg315
g301
(g305
S'\x00s\xf47^\x8f\xf0@'
p538
tp539
Rp540
sg319
g301
(g305
S'\x12\x9d2\xf9\xc0\t\x99@'
p541
tp542
Rp543
sa(dp544
g300
g301
(g305
S'\xa0\xa25p\x14\xbcCA'
p545
tp546
Rp547
sg311
g301
(g305
S'\xc6\xda\xa0\xf8"a\x8bA'
p548
tp549
Rp550
sg315
g301
(g305
S'vz\x8f\xebYX\xfe@'
p551
tp552
Rp553
sg319
g301
(g305
S'\xb5 \xca\xc9\x92\xd5\x98@'
p554
tp555
Rp556
sa(dp557
g300
g301
(g305
S'\xd5t\x99\xcc\xf2i\x14A'
p558
tp559
Rp560
sg311
g301
(g305
S'\xe0\xa1y\xd8g\xc4YA'
p561
tp562
Rp563
sg315
g301
(g305
S'\xe65W\x11y\xd7\xd8@'
p564
tp565
Rp566
sg319
g301
(g305
S'\x84\xbcx\x08K\xb9\x98@'
p567
tp568
Rp569
sa(dp570
g300
g301
(g305
S'\xe0\xf0\xa2\x19\xca\x83zA'
p571
tp572
Rp573
sg311
g301
(g305
S'bR=o:/\xc0A'
p574
tp575
Rp576
sg315
g301
(g305
S'\xfeQ"b\xb0e8A'
p577
tp578
Rp579
sg319
g301
(g305
S'\xad\xff\x91\x1f;\x92\x98@'
p580
tp581
Rp582
sa(dp583
g300
g301
(g305
S'\x86\xca\xaa\xe7#\xc5\x98A'
p584
tp585
Rp586
sg311
g301
(g305
S'\xd0\x99H0\xaaR\xe1A'
p587
tp588
Rp589
sg315
g301
(g305
S'"\x87\x1b\x0bG\xdcQA'
p590
tp591
Rp592
sg319
g301
(g305
S'\x81Df1\x1a\x17\x98@'
p593
tp594
Rp595
sa(dp596
g300
g301
(g305
S'\xe3\\\xe3\x97\x88\xfaFA'
p597
tp598
Rp599
sg311
g301
(g305
S'\xabk\xb8\x89k\xca\x8eA'
p600
tp601
Rp602
sg315
g301
(g305
S'R\xbc\x88B3\xcb\x02A'
p603
tp604
Rp605
sg319
g301
(g305
S'1\x0b\x10\x04\xd2\x06\x98@'
p606
tp607
Rp608
sa(dp609
g300
g301
(g305
S'\xca\xea8q\xba\x07\xbfA'
p610
tp611
Rp612
sg311
g301
(g305
S'7\x17#\xdc)\xb4\x05B'
p613
tp614
Rp615
sg315
g301
(g305
S'Il:\x9a]>vA'
p616
tp617
Rp618
sg319
g301
(g305
S'\x9d\xe1\x83\x1c\xac\xc2\x97@'
p619
tp620
Rp621
sa(dp622
g300
g301
(g305
S'\xbb\n\x91\xe9\xe0\xcd-A'
p623
tp624
Rp625
sg311
g301
(g305
S'-\xbfC\xaf\xb2\xfasA'
p626
tp627
Rp628
sg315
g301
(g305
S'\x00\x1f\xcbh\xd7\xdd\xea@'
p629
tp630
Rp631
sg319
g301
(g305
S'\xf1\xdcj\x8eL\xaa\x97@'
p632
tp633
Rp634
sa(dp635
g300
g301
(g305
S'\x0bO\x1d\xb1\x94?]A'
p636
tp637
Rp638
sg311
g301
(g305
S'\xb7C\xfd\xd2\x1bU\xa4A'
p639
tp640
Rp641
sg315
g301
(g305
S'i\xec\xd5J!G\x16A'
p642
tp643
Rp644
sg319
g301
(g305
S'g\xfa\x8c\xe6\xc2\x91\x97@'
p645
tp646
Rp647
sa(dp648
g300
g301
(g305
S'\xdf\x85\x11h\xf2\x1e\xb0A'
p649
tp650
Rp651
sg311
g301
(g305
S'\xba\x92\x15\x889\x8c\xf6A'
p652
tp653
Rp654
sg315
g301
(g305
S'{o\x82\xff\x05GgA'
p655
tp656
Rp657
sg319
g301
(g305
S'Ff\tr_\x88\x97@'
p658
tp659
Rp660
sa(dp661
g300
g301
(g305
S'\xa7\xa2\x89\x88\xcf\xad\x90A'
p662
tp663
Rp664
sg311
g301
(g305
S'\xf4\x04\n uO\xd7A'
p665
tp666
Rp667
sg315
g301
(g305
S'\x96\xc8\x0c\x1c\x11\x0cHA'
p668
tp669
Rp670
sg319
g301
(g305
S'\x15\xeaBC=x\x97@'
p671
tp672
Rp673
sa(dp674
g300
g301
(g305
S'\xedN\x8c\t\x81G7A'
p675
tp676
Rp677
sg311
g301
(g305
S'\xc3\n<\xe8\xb9D\x7fA'
p678
tp679
Rp680
sg315
g301
(g305
S'\xb2\xf5\xd4\x93Im\xf7@'
p681
tp682
Rp683
sg319
g301
(g305
S'\xb3\x97\x08i\xbe9\x97@'
p684
tp685
Rp686
sa(dp687
g300
g301
(g305
S'Z7\xefR\xf4I\xd4A'
p688
tp689
Rp690
sg311
g301
(g305
S'\xa87\x08$\xa6a\x1cB'
p691
tp692
Rp693
sg315
g301
(g305
S'\x96J\xc9\xb9\x92\x12\x8dA'
p694
tp695
Rp696
sg319
g301
(g305
S'\x19/\xe3]\xc6/\x97@'
p697
tp698
Rp699
sa(dp700
g300
g301
(g305
S'} 7\xb8\xb0\xe3\x99A'
p701
tp702
Rp703
sg311
g301
(g305
S'\xc3\x99,\x88L\x18\xe2A'
p704
tp705
Rp706
sg315
g301
(g305
S'QQ\xf6\xf0\x1a\xa7RA'
p707
tp708
Rp709
sg319
g301
(g305
S'\xab\x12\nFn#\x97@'
p710
tp711
Rp712
sa(dp713
g300
g301
(g305
S'\x98=\x1d\xbaB\xab|A'
p714
tp715
Rp716
sg311
g301
(g305
S'\xd1<?%\xe3\xf7\xc3A'
p717
tp718
Rp719
sg315
g301
(g305
S'\x04:VL\xe6]5A'
p720
tp721
Rp722
sg319
g301
(g305
S'3\xb8\x066\xc6\xf1\x96@'
p723
tp724
Rp725
sa(dp726
g300
g301
(g305
S'\x01\xeczSJNSA'
p727
tp728
Rp729
sg311
g301
(g305
S'\x12\xc5_\xba\x85U\x9aA'
p730
tp731
Rp732
sg315
g301
(g305
S'\x1d\x8b\xe3\xee\xa6\xfd\x0eA'
p733
tp734
Rp735
sg319
g301
(g305
S'\x96#2\xd5\xe0\xd2\x96@'
p736
tp737
Rp738
sa(dp739
g300
g301
(g305
S'\x86&\xfbvo\xd03A'
p740
tp741
Rp742
sg311
g301
(g305
S'\xcd\xecX\xb0_yzA'
p743
tp744
Rp745
sg315
g301
(g305
S'N\x01\x04Fb\xf0\xf6@'
p746
tp747
Rp748
sg319
g301
(g305
S'k\xd8\xe9\xa3\x1f\xcb\x96@'
p749
tp750
Rp751
sa(dp752
g300
g301
(g305
S'U\xe4=\x82\xcd\xc3JA'
p753
tp754
Rp755
sg311
g301
(g305
S'\x1a$\xc3\x88QN\x92A'
p756
tp757
Rp758
sg315
g301
(g305
S'\x82i\x05t\x7f\x9c\x06A'
p759
tp760
Rp761
sg319
g301
(g305
S'\xa6\x96\x8bCM\xa0\x96@'
p762
tp763
Rp764
sa(dp765
g300
g301
(g305
S"\xc4'\xae\x1ad\x9c\x95A"
p766
tp767
Rp768
sg311
g301
(g305
S'"\x82O\xe7\xaa4\xdeA'
p769
tp770
Rp771
sg315
g301
(g305
S'\xc6\xa5\x18t\xe13OA'
p772
tp773
Rp774
sg319
g301
(g305
S'C\x9cZ\xc0\x17\x81\x96@'
p775
tp776
Rp777
sa(dp778
g300
g301
(g305
S'\x99\xbcK3\x1eFcA'
p779
tp780
Rp781
sg311
g301
(g305
S' \x9d\xf8H\xfc\xb0\xaaA'
p782
tp783
Rp784
sg315
g301
(g305
S'\xca\x946\x15$\xa0\x1dA'
p785
tp786
Rp787
sg319
g301
(g305
S'2\xd6\x07b\xdbP\x96@'
p788
tp789
Rp790
sa(dp791
g300
g301
(g305
S'\xe2\x0e}\x8f\x95\xed\xadA'
p792
tp793
Rp794
sg311
g301
(g305
S'h;\xf8\x1e?\xec\xf4A'
p795
tp796
Rp797
sg315
g301
(g305
S'z\xf1\xfe\xc0B\x82eA'
p798
tp799
Rp800
sg319
g301
(g305
S'`UZ\xd1;e\x96@'
p801
tp802
Rp803
sa(dp804
g300
g301
(g305
S'\xb2"\x17\x98\xbe\x83`A'
p805
tp806
Rp807
sg311
g301
(g305
S'\xcb\xac\xbe\xb0\x15\xce\xa6A'
p808
tp809
Rp810
sg315
g301
(g305
S'Yg";SG\x19A'
p811
tp812
Rp813
sg319
g301
(g305
S'/\xfe\x10=\xb3]\x96@'
p814
tp815
Rp816
sa(dp817
g300
g301
(g305
S'\x06\xd2\x05\xbf\xba]\x8dA'
p818
tp819
Rp820
sg311
g301
(g305
S'\x8a$D\xc3/n\xd4A'
p821
tp822
Rp823
sg315
g301
(g305
S'\x16\x1f\xc3\xf2\x97\xf8FA'
p824
tp825
Rp826
sg319
g301
(g305
S')\xe0J\xb5WH\x96@'
p827
tp828
Rp829
sa(dp830
g300
g301
(g305
S'U\xdaV\x8e\x98\xab\x9dA'
p831
tp832
Rp833
sg311
g301
(g305
S'Z\xf6\xe3\x9ee\xbd\xe4A'
p834
tp835
Rp836
sg315
g301
(g305
S'\x9f}\xa1R&mUA'
p837
tp838
Rp839
sg319
g301
(g305
S'\x99I\xb5f\x14 \x96@'
p840
tp841
Rp842
sa(dp843
g300
g301
(g305
S'\xd1w\x13!\xab\xa8WA'
p844
tp845
Rp846
sg311
g301
(g305
S'\xd5W\x14#\x9aU\xa0A'
p847
tp848
Rp849
sg315
g301
(g305
S'\x83\xf8\xc8|\xa2\x8a\x13A'
p850
tp851
Rp852
sg319
g301
(g305
S"\xa3\xcf\xaa\xde\xb3'\x96@"
p853
tp854
Rp855
sa(dp856
g300
g301
(g305
S'\x17\x08\x01H\x80\xebfA'
p857
tp858
Rp859
sg311
g301
(g305
S"\x00\xa8'\x93\xda\xbb\xafA"
p860
tp861
Rp862
sg315
g301
(g305
S'\xe9\xccc\x00\x9aI"A'
p863
tp864
Rp865
sg319
g301
(g305
S'\xa6#\xc3\xe6_\x14\x96@'
p866
tp867
Rp868
sa(dp869
g300
g301
(g305
S"\x8b\xb2'\xd1\xf9\x8cjA"
p870
tp871
Rp872
sg311
g301
(g305
S'\x86\xda\xe7O\xf0\x80\xb2A'
p873
tp874
Rp875
sg315
g301
(g305
S'T\x19\xfdM\x9b\xe1#A'
p876
tp877
Rp878
sg319
g301
(g305
S'\xc2\x92:Z\xe8\x02\x96@'
p879
tp880
Rp881
sa(dp882
g300
g301
(g305
S'\xcej\x83#\xb7\x97\x8fA'
p883
tp884
Rp885
sg311
g301
(g305
S'&\xff\xcf[\xb9\r\xd6A'
p886
tp887
Rp888
sg315
g301
(g305
S'[q\xd0\xed\x84\xa7GA'
p889
tp890
Rp891
sg319
g301
(g305
S'\xe5\x97XU\xd7\xd8\x95@'
p892
tp893
Rp894
sa(dp895
g300
g301
(g305
S'Pm\xb5\xfcQ\x9a(A'
p896
tp897
Rp898
sg311
g301
(g305
S'\x0b\xa3\x88\xf3\x0b@lA'
p899
tp900
Rp901
sg315
g301
(g305
S'0\xe5\x97\xce\xe6\xd2\xf0@'
p902
tp903
Rp904
sg319
g301
(g305
S'\x96\x94+\x08\xda\x05\x96@'
p905
tp906
Rp907
sa(dp908
g300
g301
(g305
S'\xa006\xf4\xd1\xd4PA'
p909
tp910
Rp911
sg311
g301
(g305
S'K_\xe8\x02\xd9e\x95A'
p912
tp913
Rp914
sg315
g301
(g305
S'&O\xc7n\x95\xbc\x10A'
p915
tp916
Rp917
sg319
g301
(g305
S'?\x00\x00\xa5\xb7\xf2\x95@'
p918
tp919
Rp920
sa(dp921
g300
g301
(g305
S')]\x82u\x1coHA'
p922
tp923
Rp924
sg311
g301
(g305
S'\xbf2\x85t&\xbd\x90A'
p925
tp926
Rp927
sg315
g301
(g305
S'\x93\xae\x80s^\xc9\x05A'
p928
tp929
Rp930
sg319
g301
(g305
S'\xae\x12\xd5\xf8\x16\xe6\x95@'
p931
tp932
Rp933
sa(dp934
g300
g301
(g305
S'\xcc.\xd2G\xb6\x0b3A'
p935
tp936
Rp937
sg311
g301
(g305
S'\x0c\x01\xc0\xc2h/vA'
p938
tp939
Rp940
sg315
g301
(g305
S"\xe5'B\x8c\x90!\xf7@"
p941
tp942
Rp943
sg319
g301
(g305
S'\x12\xb4\x93m7\xc3\x95@'
p944
tp945
Rp946
sa(dp947
g300
g301
(g305
S'p\xe61P\xf3\xb8\xb4A'
p948
tp949
Rp950
sg311
g301
(g305
S'\xb6\xd0\x1d\xb4v\xfc\xfcA'
p951
tp952
Rp953
sg315
g301
(g305
S'#\xfa\xf1\xef\xab\xc0mA'
p954
tp955
Rp956
sg319
g301
(g305
S')D\xbb\xad\x1b\xcf\x95@'
p957
tp958
Rp959
sa(dp960
g300
g301
(g305
S'\xc6\xbe\xba\xe4\xb8\xdd\x8cA'
p961
tp962
Rp963
sg311
g301
(g305
S'u&\xac\x0em\xff\xd3A'
p964
tp965
Rp966
sg315
g301
(g305
S'\xab\xa5\xee\x7f\x99ZGA'
p967
tp968
Rp969
sg319
g301
(g305
S'\xd8s.\x08\x8c\xc4\x95@'
p970
tp971
Rp972
sa(dp973
g300
g301
(g305
S'\xb8\x0f\\\x1c\xab\xf9\x9eA'
p974
tp975
Rp976
sg311
g301
(g305
S'\xb6p"o1\xa5\xe5A'
p977
tp978
Rp979
sg315
g301
(g305
S'h\xb4>wQXVA'
p980
tp981
Rp982
sg319
g301
(g305
S'%\xb8Kd\xec\xbd\x95@'
p983
tp984
Rp985
sa(dp986
g300
g301
(g305
S'\xd6e_\xb3\xe89(A'
p987
tp988
Rp989
sg311
g301
(g305
S'23\xa5\xe1KrmA'
p990
tp991
Rp992
sg315
g301
(g305
S'\xaa1\xf2;I\x8f\xf0@'
p993
tp994
Rp995
sg319
g301
(g305
S'\xed\x82G\x93\xaa\xa6\x95@'
p996
tp997
Rp998
sa(dp999
g300
g301
(g305
S'\xa2\xe0\xc5\xa3-\xd1\xddA'
p1000
tp1001
Rp1002
sg311
g301
(g305
S'\xc4\xbdQ\xe5\x0f\xdb$B'
p1003
tp1004
Rp1005
sg315
g301
(g305
S'\n\xc6\x8e\xac\xf2^\x95A'
p1006
tp1007
Rp1008
sg319
g301
(g305
S'\x9a\x8bR\t\xe4\xa0\x95@'
p1009
tp1010
Rp1011
sa(dp1012
g300
g301
(g305
S'%\xe6)\xb9\xb3\x87`A'
p1013
tp1014
Rp1015
sg311
g301
(g305
S'6\x8dvgF-\xa6A'
p1016
tp1017
Rp1018
sg315
g301
(g305
S'\x80\xca\x86\xb2\xea0\x1cA'
p1019
tp1020
Rp1021
sg319
g301
(g305
S'\xf7i(\r\xd9\x88\x95@'
p1022
tp1023
Rp1024
sa(dp1025
g300
g301
(g305
S'\x14F\x0b62\xa4\x18A'
p1026
tp1027
Rp1028
sg311
g301
(g305
S'\xde\xd0\x8a\xc14MVA'
p1029
tp1030
Rp1031
sg315
g301
(g305
S'M\xf0\xf0\xbado\xe9@'
p1032
tp1033
Rp1034
sg319
g301
(g305
S'r!\xeeIz~\x95@'
p1035
tp1036
Rp1037
sa(dp1038
g300
g301
(g305
S'PD\x89\x0e\xcb\xfe\x1aA'
p1039
tp1040
Rp1041
sg311
g301
(g305
S'\xdb\x87\xb0\xe9\x1c4\\A'
p1042
tp1043
Rp1044
sg315
g301
(g305
S'\x1e@\xc7\x91L&\xeb@'
p1045
tp1046
Rp1047
sg319
g301
(g305
S'\x1f\xbc\x9b\x10km\x95@'
p1048
tp1049
Rp1050
sa(dp1051
g300
g301
(g305
S'\x97\xea\xb9\xb8\x85\xc46A'
p1052
tp1053
Rp1054
sg311
g301
(g305
S'H}\xa9\xa3\xc7\xae}A'
p1055
tp1056
Rp1057
sg315
g301
(g305
S'7\x85Z\xe7\xac\x05\xf9@'
p1058
tp1059
Rp1060
sg319
g301
(g305
S'F\x00$\x83\xe5z\x95@'
p1061
tp1062
Rp1063
sa(dp1064
g300
g301
(g305
S'j\xf2\xac\x10le<A'
p1065
tp1066
Rp1067
sg311
g301
(g305
S'\xa9!M\xaaV\xcf\x82A'
p1068
tp1069
Rp1070
sg315
g301
(g305
S'\x8a\xbf)\x91\xa6\x04\xff@'
p1071
tp1072
Rp1073
sg319
g301
(g305
S'\xa7V\xf9\xbf\xe7]\x95@'
p1074
tp1075
Rp1076
sa(dp1077
g300
g301
(g305
S'\x13E\xd5\xcf:\x90pC'
p1078
tp1079
Rp1080
sg311
g301
(g305
S'\xf7\x86\x9e\x04\xd6+\xb7C'
p1081
tp1082
Rp1083
sg315
g301
(g305
S"\x9ew\xef73\xba'C"
p1084
tp1085
Rp1086
sg319
g301
(g305
S'\xd2>me\x0bW\x95@'
p1087
tp1088
Rp1089
sa(dp1090
g300
g301
(g305
S'n\x86\x18m`\t\xc6A'
p1091
tp1092
Rp1093
sg311
g301
(g305
S'[g@\xe8\x8b\xd2\x0eB'
p1094
tp1095
Rp1096
sg315
g301
(g305
S'\x92j\xb1;\x18\x9d\x7fA'
p1097
tp1098
Rp1099
sg319
g301
(g305
S'\xb5Be\xfbBD\x95@'
p1100
tp1101
Rp1102
sa(dp1103
g300
g301
(g305
S'\xad1\xfcxb\xc3SA'
p1104
tp1105
Rp1106
sg311
g301
(g305
S'b\xca?\x88m\xc1\x98A'
p1107
tp1108
Rp1109
sg315
g301
(g305
S'\xfeo\xa0\xf7g\x89\x12A'
p1110
tp1111
Rp1112
sg319
g301
(g305
S'\xbfN\x08\xad\x9cW\x95@'
p1113
tp1114
Rp1115
sa(dp1116
g300
g301
(g305
S'z`/z/MzA'
p1117
tp1118
Rp1119
sg311
g301
(g305
S'\xa6\xa8\xd3\x12\xdd\xb8\xbaA'
p1120
tp1121
Rp1122
sg315
g301
(g305
S'2sh\x15:\xdc:A'
p1123
tp1124
Rp1125
sg319
g301
(g305
S'&a9nz@\x95@'
p1126
tp1127
Rp1128
sa(dp1129
g300
g301
(g305
S'\xc1\x06\xf5~\x147)A'
p1130
tp1131
Rp1132
sg311
g301
(g305
S'\xeat\xa5\xd3@\x94nA'
p1133
tp1134
Rp1135
sg315
g301
(g305
S'\t\x9e\xf0N\t\xf4\xf0@'
p1136
tp1137
Rp1138
sg319
g301
(g305
S'f_q!98\x95@'
p1139
tp1140
Rp1141
sa(dp1142
g300
g301
(g305
S'\x93\xb5\x0e}0hOA'
p1143
tp1144
Rp1145
sg311
g301
(g305
S'\xa27\x8d\xe1`\xd4\x93A'
p1146
tp1147
Rp1148
sg315
g301
(g305
S'\xafs\x0f\xdd\xb0~\x11A'
p1149
tp1150
Rp1151
sg319
g301
(g305
S'F;\xb9\x8b\xf3)\x95@'
p1152
tp1153
Rp1154
sa(dp1155
g300
g301
(g305
S'\x85\x83I%@\xdadB'
p1156
tp1157
Rp1158
sg311
g301
(g305
S'\x83\xa6\xdd\x1e\xe7+\xadB'
p1159
tp1160
Rp1161
sg315
g301
(g305
S'P6\xce7$\xdf\x1dB'
p1162
tp1163
Rp1164
sg319
g301
(g305
S'\x7f5\xbc\xf4\x15#\x95@'
p1165
tp1166
Rp1167
sa(dp1168
g300
g301
(g305
S'\x12\xde\xe8\xacb\xb9\x9cA'
p1169
tp1170
Rp1171
sg311
g301
(g305
S'~i{\x00\xe3\x11\xe4A'
p1172
tp1173
Rp1174
sg315
g301
(g305
S'v\x9f\rx\x0c\x89UA'
p1175
tp1176
Rp1177
sg319
g301
(g305
S'\x84\x8c\xe9\x91\xee\x13\x95@'
p1178
tp1179
Rp1180
sa(dp1181
g300
g301
(g305
S'\x92\xe9mg\x0bV\x95A'
p1182
tp1183
Rp1184
sg311
g301
(g305
S'\xfe\xdf_d\r\xd1\xddA'
p1185
tp1186
Rp1187
sg315
g301
(g305
S':\x1bY\xcc>\xffNA'
p1188
tp1189
Rp1190
sg319
g301
(g305
S'2\x15^6\xf0\x06\x95@'
p1191
tp1192
Rp1193
sa(dp1194
g300
g301
(g305
S'\xdb\xd39\xb4x\x06kA'
p1195
tp1196
Rp1197
sg311
g301
(g305
S'\x13p\xdc\xa5\r\xd1\xb2A'
p1198
tp1199
Rp1200
sg315
g301
(g305
S'\x84\xbfk\xe9\xae\x85$A'
p1201
tp1202
Rp1203
sg319
g301
(g305
S"\x1cqs\xdd'\xfc\x94@"
p1204
tp1205
Rp1206
sa(dp1207
g300
g301
(g305
S':\x9e\x0f\xa1\xf3\xdd\x81A'
p1208
tp1209
Rp1210
sg311
g301
(g305
S'\xf6\xed\x04\x1e~\xec\xc8A'
p1211
tp1212
Rp1213
sg315
g301
(g305
S'2Z;\xd2\x1fg:A'
p1214
tp1215
Rp1216
sg319
g301
(g305
S'\x1e\xe7\xbe\x9fQ\xec\x94@'
p1217
tp1218
Rp1219
sa(dp1220
g300
g301
(g305
S'\x84I\xdc\xa4\xb0\xe3xA'
p1221
tp1222
Rp1223
sg311
g301
(g305
S'\xf2a\x9a\xe98\\\xc1A'
p1224
tp1225
Rp1226
sg315
g301
(g305
S'"\xc8I\x95\xb4j2A'
p1227
tp1228
Rp1229
sg319
g301
(g305
S'q\xfb\xf7.\xaa\xf0\x94@'
p1230
tp1231
Rp1232
sa(dp1233
g300
g301
(g305
S'\x11\x1d\xe8M\xfe\xdb\xa2A'
p1234
tp1235
Rp1236
sg311
g301
(g305
S'Jo\xebV\xe6^\xeaA'
p1237
tp1238
Rp1239
sg315
g301
(g305
S'\xfa\xfeM~X,[A'
p1240
tp1241
Rp1242
sg319
g301
(g305
S'\xc3Y\x91yz\x03\x95@'
p1243
tp1244
Rp1245
sa(dp1246
g300
g301
(g305
S'\xca\xf4^\x97\xf3\xa4YA'
p1247
tp1248
Rp1249
sg311
g301
(g305
S'\xfe\x18\x7f\x10\xa5h\xa1A'
p1250
tp1251
Rp1252
sg315
g301
(g305
S'\x06\x9e\x00\x8bN\xfd\x14A'
p1253
tp1254
Rp1255
sg319
g301
(g305
S'"8b\x1dR\xf4\x94@'
p1256
tp1257
Rp1258
sa(dp1259
g300
g301
(g305
S'\x11\xee\xed\xaa\xa9\x8c`A'
p1260
tp1261
Rp1262
sg311
g301
(g305
S'\x04\x06g\x11\xff\xfc\xa6A'
p1263
tp1264
Rp1265
sg315
g301
(g305
S'0(}~\xf27\x1aA'
p1266
tp1267
Rp1268
sg319
g301
(g305
S'~\x92^\xe8\xf0\xdd\x94@'
p1269
tp1270
Rp1271
sa(dp1272
g300
g301
(g305
S'\xd8\x14\xc7%\xab\xb9SB'
p1273
tp1274
Rp1275
sg311
g301
(g305
S'\xcb\xe6\xa1\xfa0\x98\x9bB'
p1276
tp1277
Rp1278
sg315
g301
(g305
S'\xc0\xcd\xe0\xed\xc3A\x0cB'
p1279
tp1280
Rp1281
sg319
g301
(g305
S'\xee\x14\xaf\xaaJ\xd5\x94@'
p1282
tp1283
Rp1284
sa(dp1285
g300
g301
(g305
S'\x1a8:\xf9\x8e5\xbdA'
p1286
tp1287
Rp1288
sg311
g301
(g305
S'\xe7\x8a\r\xcc\x06l\x04B'
p1289
tp1290
Rp1291
sg315
g301
(g305
S';\xf7\xceA\xfd\xf7tA'
p1292
tp1293
Rp1294
sg319
g301
(g305
S'\xf9~\x88\x812\xde\x94@'
p1295
tp1296
Rp1297
sa(dp1298
g300
g301
(g305
S'Q\xe4u\x9a\xf7\xa6@A'
p1299
tp1300
Rp1301
sg311
g301
(g305
S'Z\xa1\xb0\xea)\x11\x86A'
p1302
tp1303
Rp1304
sg315
g301
(g305
S'N5\x19\xb0\xcdO\x00A'
p1305
tp1306
Rp1307
sg319
g301
(g305
S'\xde\xdf\x93\x04\xf9\xd3\x94@'
p1308
tp1309
Rp1310
sa(dp1311
g300
g301
(g305
S'E\xa9\xbb\xf1R\x9b\x85A'
p1312
tp1313
Rp1314
sg311
g301
(g305
S'6 \xf0\xd0i\xde\xcdA'
p1315
tp1316
Rp1317
sg315
g301
(g305
S'*\xed\xa4P\xf3\xb8@A'
p1318
tp1319
Rp1320
sg319
g301
(g305
S'\xd4\x99\xb0\xe0?\xf3\x94@'
p1321
tp1322
Rp1323
sa(dp1324
g300
g301
(g305
S'\x02\x90\xd8\xec\xb29bA'
p1325
tp1326
Rp1327
sg311
g301
(g305
S'#\xc0\xe9~\xbf-\xa9A'
p1328
tp1329
Rp1330
sg315
g301
(g305
S'\xdd\x18\x17\xe2\x9c$\x1cA'
p1331
tp1332
Rp1333
sg319
g301
(g305
S'IW\xfe\x19\x01\xe2\x94@'
p1334
tp1335
Rp1336
sa(dp1337
g300
g301
(g305
S'\x8cp\xe5|}\xd4\x81A'
p1338
tp1339
Rp1340
sg311
g301
(g305
S'\x0b\x9d]V\xc1\xd4\xc8A'
p1341
tp1342
Rp1343
sg315
g301
(g305
S'\xeb5\\\xef\xd92:A'
p1344
tp1345
Rp1346
sg319
g301
(g305
S'\xacE\x07J\xaa\xdf\x94@'
p1347
tp1348
Rp1349
sa(dp1350
g300
g301
(g305
S'\xa6wH\xaep\xa7cA'
p1351
tp1352
Rp1353
sg311
g301
(g305
S'X\xf7t\x0c\xfbB\xabA'
p1354
tp1355
Rp1356
sg315
g301
(g305
S'5D\x99~x7\x1eA'
p1357
tp1358
Rp1359
sg319
g301
(g305
S'c\xc36\x86\xdb\xe5\x94@'
p1360
tp1361
Rp1362
sa(dp1363
g300
g301
(g305
S'\x8d\xb7\x9fT;ZzA'
p1364
tp1365
Rp1366
sg311
g301
(g305
S'\xe2\xe2\xff\x10\xacJ\xc0A'
p1367
tp1368
Rp1369
sg315
g301
(g305
S'\r\x0fQ\x1b\xec\xea9A'
p1370
tp1371
Rp1372
sg319
g301
(g305
S'\x1a\xb8\x87\xb4m\xdf\x94@'
p1373
tp1374
Rp1375
sa(dp1376
g300
g301
(g305
S'0?@\x81\xf8\xba\x87A'
p1377
tp1378
Rp1379
sg311
g301
(g305
S'J\x96\x0c\x91\xc4\x8e\xd0A'
p1380
tp1381
Rp1382
sg315
g301
(g305
S'\xb8\xca\xb9/1FAA'
p1383
tp1384
Rp1385
sg319
g301
(g305
S'\xc9>\x01$\x8d\xd8\x94@'
p1386
tp1387
Rp1388
sa(dp1389
g300
g301
(g305
S'\xcd\xe9\xfc\xf7e\x18\x7fA'
p1390
tp1391
Rp1392
sg311
g301
(g305
S'a\xbe\x1fQ\x18\x9d\xc5A'
p1393
tp1394
Rp1395
sg315
g301
(g305
S'c\x05\x86u}c7A'
p1396
tp1397
Rp1398
sg319
g301
(g305
S'a\x8eb^!\xce\x94@'
p1399
tp1400
Rp1401
sa(dp1402
g300
g301
(g305
S',\xa6\xad\xec9\xa9\x96A'
p1403
tp1404
Rp1405
sg311
g301
(g305
S'\xa2\xf64;\xaf\xa9\xdfA'
p1406
tp1407
Rp1408
sg315
g301
(g305
S"Fp'\xcc#ePA"
p1409
tp1410
Rp1411
sg319
g301
(g305
S'\xe2\xf2\tq\x0b\xa8\x94@'
p1412
tp1413
Rp1414
sa(dp1415
g300
g301
(g305
S'\xe4\x9a\xad\x8f\xe4hyA'
p1416
tp1417
Rp1418
sg311
g301
(g305
S'e\xc9\x8e\xcaP\xbb\xc1A'
p1419
tp1420
Rp1421
sg315
g301
(g305
S'Y\xfe\x8e\xc3\xc5u3A'
p1422
tp1423
Rp1424
sg319
g301
(g305
S'\xb2\r?\t|\xa5\x94@'
p1425
tp1426
Rp1427
sa(dp1428
g300
g301
(g305
S'g\xf3\x88l\xfeIAA'
p1429
tp1430
Rp1431
sg311
g301
(g305
S'\xdc\xf3\x147\xd8G\x85A'
p1432
tp1433
Rp1434
sg315
g301
(g305
S'\xd7\xab\x80\xc2\xd1\xc9\x02A'
p1435
tp1436
Rp1437
sg319
g301
(g305
S'\xfa\xae\x0bm\n\xba\x94@'
p1438
tp1439
Rp1440
sa(dp1441
g300
g301
(g305
S'UeX\x01\x05\xb5\x9aA'
p1442
tp1443
Rp1444
sg311
g301
(g305
S'\n\x1c}M\x9b\xa8\xe2A'
p1445
tp1446
Rp1447
sg315
g301
(g305
S'\n\xd8F\xa5IdSA'
p1448
tp1449
Rp1450
sg319
g301
(g305
S'\x19\x11X\xb7\xbf\xba\x94@'
p1451
tp1452
Rp1453
sa(dp1454
g300
g301
(g305
S'_\xa2\x13\x83H\x16vA'
p1455
tp1456
Rp1457
sg311
g301
(g305
S'\xbb\xf7)\x00a\x92\xbeA'
p1458
tp1459
Rp1460
sg315
g301
(g305
S'\x1eq\xd9g\xcd\xef0A'
p1461
tp1462
Rp1463
sg319
g301
(g305
S'\x17c\xdc\x9bG\xab\x94@'
p1464
tp1465
Rp1466
sa(dp1467
g300
g301
(g305
S'3o\x8dm\x8ag\xb2A'
p1468
tp1469
Rp1470
sg311
g301
(g305
S'\n\xba\x17\x8a\xd8\xbc\xf9A'
p1471
tp1472
Rp1473
sg315
g301
(g305
S'\xc8\x15\xea9\x8eojA'
p1474
tp1475
Rp1476
sg319
g301
(g305
S'\x1a\xe1W\xb4\xf4\x9c\x94@'
p1477
tp1478
Rp1479
sa(dp1480
g300
g301
(g305
S',\x80\xfb\xd9\xfd5WA'
p1481
tp1482
Rp1483
sg311
g301
(g305
S'\x90h\xb38\x89\x98\x9fA'
p1484
tp1485
Rp1486
sg315
g301
(g305
S'k\xabF+\x86\x94\x15A'
p1487
tp1488
Rp1489
sg319
g301
(g305
S'\x8a\x17\x05;v\xa3\x94@'
p1490
tp1491
Rp1492
sa(dp1493
g300
g301
(g305
S'\xda\xf3\t4\xa9\xefQA'
p1494
tp1495
Rp1496
sg311
g301
(g305
S'\xb6W\x14>\xe5y\x97A'
p1497
tp1498
Rp1499
sg315
g301
(g305
S'\xc35s\x16\x0e\xa7\x0fA'
p1500
tp1501
Rp1502
sg319
g301
(g305
S'\xf4\xe1=\x82\xa2\x91\x94@'
p1503
tp1504
Rp1505
sa(dp1506
g300
g301
(g305
S'\xd1\xb4w\xe9\xadvCA'
p1507
tp1508
Rp1509
sg311
g301
(g305
S'o\xb8g\x9c\xa50\x89A'
p1510
tp1511
Rp1512
sg315
g301
(g305
S'\x07\x9eF$\r\xd9\x02A'
p1513
tp1514
Rp1515
sg319
g301
(g305
S'\x903p)\x16\x94\x94@'
p1516
tp1517
Rp1518
sa(dp1519
g300
g301
(g305
S'}\xc4\xb1\xc5\xe0j\xb0A'
p1520
tp1521
Rp1522
sg311
g301
(g305
S'\x0f\x0fS\x8f\xb7\xec\xf6A'
p1523
tp1524
Rp1525
sg315
g301
(g305
S'\xe97\xec \xc8\xdbgA'
p1526
tp1527
Rp1528
sg319
g301
(g305
S'\x07\xce)Mt\x8c\x94@'
p1529
tp1530
Rp1531
sa(dp1532
g300
g301
(g305
S'\xae\xac6\xed\xa3\xf9\xd2A'
p1533
tp1534
Rp1535
sg311
g301
(g305
S'"8EY\x14\x8b\x1aB'
p1536
tp1537
Rp1538
sg315
g301
(g305
S'\xba\xae\xb4C\xac=\x8bA'
p1539
tp1540
Rp1541
sg319
g301
(g305
S'\xa7\x07%\xc7\xe2}\x94@'
p1542
tp1543
Rp1544
sa(dp1545
g300
g301
(g305
S']\xf3\x8c\x82\x99+AA'
p1546
tp1547
Rp1548
sg311
g301
(g305
S'7\xef/\xbb\xc6\xfe\x86A'
p1549
tp1550
Rp1551
sg315
g301
(g305
S'T~qw\x83\x80\x00A'
p1552
tp1553
Rp1554
sg319
g301
(g305
S'r7\xde\x9e9w\x94@'
p1555
tp1556
Rp1557
sa(dp1558
g300
g301
(g305
S'\x12Mx\xe3;\xc0yA'
p1559
tp1560
Rp1561
sg311
g301
(g305
S'w\x1a8H \xd9\xc1A'
p1562
tp1563
Rp1564
sg315
g301
(g305
S'?\xb0\x82\x0cL!3A'
p1565
tp1566
Rp1567
sg319
g301
(g305
S'\xaaY\xe4\xb7\xe6p\x94@'
p1568
tp1569
Rp1570
sa(dp1571
g300
g301
(g305
S'\xa7zEiSu\xd4A'
p1572
tp1573
Rp1574
sg311
g301
(g305
S'\xf0d\xd4\x8d\x00\x9e\x1cB'
p1575
tp1576
Rp1577
sg315
g301
(g305
S'K\x9e@d\x85\\\x8dA'
p1578
tp1579
Rp1580
sg319
g301
(g305
S'\xeau\x04\xcc~j\x94@'
p1581
tp1582
Rp1583
sa(dp1584
g300
g301
(g305
S'\xd1$\x15\xec\\*@A'
p1585
tp1586
Rp1587
sg311
g301
(g305
S'fl\xc2\x9c3E\x85A'
p1588
tp1589
Rp1590
sg315
g301
(g305
S'"\xea\x9e~h\x19\x00A'
p1591
tp1592
Rp1593
sg319
g301
(g305
S'\xc4\x95s\xd6\xadU\x94@'
p1594
tp1595
Rp1596
sa(dp1597
g300
g301
(g305
S'BN\x8c\x9c\x00\xac\xcdA'
p1598
tp1599
Rp1600
sg311
g301
(g305
S'm\xb0%\x9b\xa4\xc0\x14B'
p1601
tp1602
Rp1603
sg315
g301
(g305
S'\x80\x15\xa8\x9a\xdcD\x85A'
p1604
tp1605
Rp1606
sg319
g301
(g305
S'I\xe8\xb0\x85\x8eK\x94@'
p1607
tp1608
Rp1609
sa(dp1610
g300
g301
(g305
S'\xf2\x18\xab?*9\x9eA'
p1611
tp1612
Rp1613
sg311
g301
(g305
S'\xe7\x9c\xbf\xe4\xf4\x19\xe5A'
p1614
tp1615
Rp1616
sg315
g301
(g305
S'\x9a\xa7\xb4\xa2\xfdaVA'
p1617
tp1618
Rp1619
sg319
g301
(g305
S'E\xb5\x9e\x8bdM\x94@'
p1620
tp1621
Rp1622
sa(dp1623
g300
g301
(g305
S'@\xe6\xee\x93&\xa0\x08B'
p1624
tp1625
Rp1626
sg311
g301
(g305
S'\xcbT\xb49y9QB'
p1627
tp1628
Rp1629
sg315
g301
(g305
S'\xf9w6\xa7*\xa4\xc1A'
p1630
tp1631
Rp1632
sg319
g301
(g305
S'\x00d\xf4\x0cv>\x94@'
p1633
tp1634
Rp1635
sa(dp1636
g300
g301
(g305
S'\x87\x83K\xefQ\xf0\xd2A'
p1637
tp1638
Rp1639
sg311
g301
(g305
S'Z \xcdq\x15~\x1aB'
p1640
tp1641
Rp1642
sg315
g301
(g305
S'UpU\x892A\x8bA'
p1643
tp1644
Rp1645
sg319
g301
(g305
S'\x06^#\xa6HT\x94@'
p1646
tp1647
Rp1648
sa(dp1649
g300
g301
(g305
S'\xbe\xfe`\x9f\xbc\xe0DA'
p1650
tp1651
Rp1652
sg311
g301
(g305
S'\xb2\xeb~\xec\x08\xaa\x8cA'
p1653
tp1654
Rp1655
sg315
g301
(g305
S"\xb2'%\xa3\xc82\x03A"
p1656
tp1657
Rp1658
sg319
g301
(g305
S'c\xfa\x88\xcc\x91S\x94@'
p1659
tp1660
Rp1661
sa(dp1662
g300
g301
(g305
S'\x8cAo\x7fa\xd2dA'
p1663
tp1664
Rp1665
sg311
g301
(g305
S'F\xfd5\x1d\x8e\xd1\xacA'
p1666
tp1667
Rp1668
sg315
g301
(g305
S'\x05\x80&\x95\xd6\xe7\x1fA'
p1669
tp1670
Rp1671
sg319
g301
(g305
S'\xc2\xf7\xb2\xe28>\x94@'
p1672
tp1673
Rp1674
sa(dp1675
g300
g301
(g305
S'\xa7\x19\xadl0 \x04B'
p1676
tp1677
Rp1678
sg311
g301
(g305
S"\xb5(\xab\x87\x8b'LB"
p1679
tp1680
Rp1681
sg315
g301
(g305
S'\xce\xba\xe8\x82\xb1\xd5\xbcA'
p1682
tp1683
Rp1684
sg319
g301
(g305
S'\\X\xd9\x93\xa9/\x94@'
p1685
tp1686
Rp1687
sa(dp1688
g300
g301
(g305
S'v\xa8\xd3z\xd1|`B'
p1689
tp1690
Rp1691
sg311
g301
(g305
S'&\xb6\x1b\x11\xae\x10\xa7B'
p1692
tp1693
Rp1694
sg315
g301
(g305
S'\x0b"eDh\x9e\x17B'
p1695
tp1696
Rp1697
sg319
g301
(g305
S'\xf8E\x0f\x1a\xc9=\x94@'
p1698
tp1699
Rp1700
sa(dp1701
g300
g301
(g305
S'\xd5;0\x1d\xed%\x02B'
p1702
tp1703
Rp1704
sg311
g301
(g305
S'v\xc8\xfc\xa1UcIB'
p1705
tp1706
Rp1707
sg315
g301
(g305
S'\x93\\W\xae\x16\x04\xbaA'
p1708
tp1709
Rp1710
sg319
g301
(g305
S'\xa6a\x9a!\xf4C\x94@'
p1711
tp1712
Rp1713
sa(dp1714
g300
g301
(g305
S'^\xaa\xb4\x18Z\x1f\xc7A'
p1715
tp1716
Rp1717
sg311
g301
(g305
S'\xa5\x96\x8f}\xe3+\x10B'
p1718
tp1719
Rp1720
sg315
g301
(g305
S'>\xf8z\xbe\xf0\x95\x80A'
p1721
tp1722
Rp1723
sg319
g301
(g305
S'9V\xb4\x83\xf5W\x94@'
p1724
tp1725
Rp1726
sa(dp1727
g300
g301
(g305
S's\x8a\xeb\xfautRA'
p1728
tp1729
Rp1730
sg311
g301
(g305
S'p4\xd1!q\x80\x99A'
p1731
tp1732
Rp1733
sg315
g301
(g305
S'\x12\xc2\xe6\x91\x18\x18\x0fA'
p1734
tp1735
Rp1736
sg319
g301
(g305
S'\xe1y\xbf\x01\xcdN\x94@'
p1737
tp1738
Rp1739
sa(dp1740
g300
g301
(g305
S':\x95\xf5\x0f\xc4\x8a\xd2A'
p1741
tp1742
Rp1743
sg311
g301
(g305
S'\xf3\xfe\x8fL\xd2\xef\x19B'
p1744
tp1745
Rp1746
sg315
g301
(g305
S'z\xeb\xb1\x99)\xa1\x8aA'
p1747
tp1748
Rp1749
sg319
g301
(g305
S'\xd4\xeb\x9a\x8b\x81T\x94@'
p1750
tp1751
Rp1752
sa(dp1753
g300
g301
(g305
S'JrGk\xb7H\xd3A'
p1754
tp1755
Rp1756
sg311
g301
(g305
S'P\xf1\x08\x07\x87\xf9\x1aB'
p1757
tp1758
Rp1759
sg315
g301
(g305
S'z\x12\\^]\xaf\x8bA'
p1760
tp1761
Rp1762
sg319
g301
(g305
S'\xa5\xff\x1d\xbb\xd48\x94@'
p1763
tp1764
Rp1765
sa(dp1766
g300
g301
(g305
S'\xb6,\tG\xf2\xd5AA'
p1767
tp1768
Rp1769
sg311
g301
(g305
S'\xfe\xa8\xaf\x08R\x01\x85A'
p1770
tp1771
Rp1772
sg315
g301
(g305
S'\xd3\xe3;\xc7\xc1\xe0\x05A'
p1773
tp1774
Rp1775
sg319
g301
(g305
S'L)lB\x02L\x94@'
p1776
tp1777
Rp1778
sa(dp1779
g300
g301
(g305
S'c\x06oP\x12\xfb\x96A'
p1780
tp1781
Rp1782
sg311
g301
(g305
S'\xfe\xdc2\xb3d\x0e\xe0A'
p1783
tp1784
Rp1785
sg315
g301
(g305
S'\x1a\xcd\xe6\x95E\xb2PA'
p1786
tp1787
Rp1788
sg319
g301
(g305
S'Z\xfc\x7f{\xa4I\x94@'
p1789
tp1790
Rp1791
sa(dp1792
g300
g301
(g305
S'}\n)^idlA'
p1793
tp1794
Rp1795
sg311
g301
(g305
S'\x94\xc2\x8c\x06\xe7\x96\xb3A'
p1796
tp1797
Rp1798
sg315
g301
(g305
S"o\xe9\x1b\\\xcdi'A"
p1799
tp1800
Rp1801
sg319
g301
(g305
S'\xa7\x10\x04E\xe3V\x94@'
p1802
tp1803
Rp1804
sa(dp1805
g300
g301
(g305
S'\xe1F\x1fx\xfd\x84UA'
p1806
tp1807
Rp1808
sg311
g301
(g305
S'\x8d\x84\x1d\xcb\x92S\x9dA'
p1809
tp1810
Rp1811
sg315
g301
(g305
S'\x9cK\xe6\xabg\xd7\x13A'
p1812
tp1813
Rp1814
sg319
g301
(g305
S'\xcd2*\x8e\xb0U\x94@'
p1815
tp1816
Rp1817
sa(dp1818
g300
g301
(g305
S'[\x85\x86\xcdV\x9a\xbeA'
p1819
tp1820
Rp1821
sg311
g301
(g305
S'\x82\xb2"\xd6\xc3\xc3\x04B'
p1822
tp1823
Rp1824
sg315
g301
(g305
S'\xa0Q\x0b!o\x9azA'
p1825
tp1826
Rp1827
sg319
g301
(g305
S'\x06\x95\x9a\x04\xfd;\x94@'
p1828
tp1829
Rp1830
sa(dp1831
g300
g301
(g305
S';\xcc\x9b@ v^A'
p1832
tp1833
Rp1834
sg311
g301
(g305
S'\x11\x15\xde\x9b\x9f\xb6\xa2A'
p1835
tp1836
Rp1837
sg315
g301
(g305
S'~w\xa1\xe9\xf9\xc7\x1cA'
p1838
tp1839
Rp1840
sg319
g301
(g305
S'\xaa\xec`@K*\x94@'
p1841
tp1842
Rp1843
sa(dp1844
g300
g301
(g305
S'2l\x18\x81\xcb,\xf1A'
p1845
tp1846
Rp1847
sg311
g301
(g305
S'j\x82\xb6\x13:\xf37B'
p1848
tp1849
Rp1850
sg315
g301
(g305
S'`\xf3\xd8j\xe5q\xaaA'
p1851
tp1852
Rp1853
sg319
g301
(g305
S'D\xee\xd7w\x7f\x17\x94@'
p1854
tp1855
Rp1856
sa(dp1857
g300
g301
(g305
S'r\xeb^\xe5J\xae\xb5A'
p1858
tp1859
Rp1860
sg311
g301
(g305
S'\xcb\x84y\x03\xe7S\xfeA'
p1861
tp1862
Rp1863
sg315
g301
(g305
S'\xa09\xcfO\xf6"oA'
p1864
tp1865
Rp1866
sg319
g301
(g305
S'\xaa\xed\xc6\xf9O!\x94@'
p1867
tp1868
Rp1869
sa(dp1870
g300
g301
(g305
S'/\xf0t{u\xbe\xc4A'
p1871
tp1872
Rp1873
sg311
g301
(g305
S'\xd8\xf9\xb8\xb4\x87\x04\rB'
p1874
tp1875
Rp1876
sg315
g301
(g305
S'\x1a\xf6\x1b\xdb\xc1\xc9}A'
p1877
tp1878
Rp1879
sg319
g301
(g305
S"'\xc6\x93lq3\x94@"
p1880
tp1881
Rp1882
sa(dp1883
g300
g301
(g305
S'\x0e\x93|U!K\xf0A'
p1884
tp1885
Rp1886
sg311
g301
(g305
S' \xa5\x1d\x15\x15\xca6B'
p1887
tp1888
Rp1889
sg315
g301
(g305
S'Z\x00\xe4\x9b\xb6\xb0\xa7A'
p1890
tp1891
Rp1892
sg319
g301
(g305
S'#H\x89\x8c\xf6"\x94@'
p1893
tp1894
Rp1895
sa(dp1896
g300
g301
(g305
S'zz\xc6\xfb\xebn\xdeA'
p1897
tp1898
Rp1899
sg311
g301
(g305
S'\x17\xa8\x84R\x98D%B'
p1900
tp1901
Rp1902
sg315
g301
(g305
S'\x8f\x8ak\xba\x80\xdd\x95A'
p1903
tp1904
Rp1905
sg319
g301
(g305
S'\xc5J\x19\x96\xb1 \x94@'
p1906
tp1907
Rp1908
sa(dp1909
g300
g301
(g305
S'z\x8e\xc6\x04\x0f\xe6\xdbA'
p1910
tp1911
Rp1912
sg311
g301
(g305
S'a\xa3Y\xday\x83#B'
p1913
tp1914
Rp1915
sg315
g301
(g305
S'b\x81\x9aE^\xfe\x93A'
p1916
tp1917
Rp1918
sg319
g301
(g305
S'\xc4\xacHRl\x10\x94@'
p1919
tp1920
Rp1921
sa(dp1922
g300
g301
(g305
S'\xc3\xf2\xa1\x8e3!\xbdA'
p1923
tp1924
Rp1925
sg311
g301
(g305
S'\xf7\xd5\xdb\x80Z\\\x04B'
p1926
tp1927
Rp1928
sg315
g301
(g305
S'Vp\xe3C\xe2\xf0tA'
p1929
tp1930
Rp1931
sg319
g301
(g305
S'U#\xc1\x8e\xe3\xf7\x93@'
p1932
tp1933
Rp1934
sa(dp1935
g300
g301
(g305
S'\xb6i\x8e\xaf\xa9\x0b\xebA'
p1936
tp1937
Rp1938
sg311
g301
(g305
S'\xb2v\xce\x9e\xb8\xea2B'
p1939
tp1940
Rp1941
sg315
g301
(g305
S'f\x14Z\xdbEd\xa3A'
p1942
tp1943
Rp1944
sg319
g301
(g305
S'\xb4v\xe7\x92\x18\x0b\x94@'
p1945
tp1946
Rp1947
sa(dp1948
g300
g301
(g305
S'M\x97\x83eM\x14\xceA'
p1949
tp1950
Rp1951
sg311
g301
(g305
S'_0\xd6\x02(\t\x15B'
p1952
tp1953
Rp1954
sg315
g301
(g305
S'\x12\xfc\xca\xbf\x8a\x91\x85A'
p1955
tp1956
Rp1957
sg319
g301
(g305
S'=\xdci\xf37\x0f\x94@'
p1958
tp1959
Rp1960
sa(dp1961
g300
g301
(g305
S'\xca=<\x88\x19 yA'
p1962
tp1963
Rp1964
sg311
g301
(g305
S'\x9e\x80\xa9\x05\xba\x82\xc1A'
p1965
tp1966
Rp1967
sg315
g301
(g305
S'\xf6\xbc\x8f\xd8?d3A'
p1968
tp1969
Rp1970
sg319
g301
(g305
S'\xca\x97\xd1\xdc\x83\x0e\x94@'
p1971
tp1972
Rp1973
sa(dp1974
g300
g301
(g305
S'))\xd48\xe3\xd3\xa7A'
p1975
tp1976
Rp1977
sg311
g301
(g305
S'\x88r\xd6\xcc(\xa8\xf0A'
p1978
tp1979
Rp1980
sg315
g301
(g305
S'W\xfc\x92\xa8\x17"aA'
p1981
tp1982
Rp1983
sg319
g301
(g305
S'\x7f\xb0h)H\x00\x94@'
p1984
tp1985
Rp1986
sa(dp1987
g300
g301
(g305
S'?\nl\xe7@\x9bRA'
p1988
tp1989
Rp1990
sg311
g301
(g305
S'$R\x13\xd3\xa9B\x99A'
p1991
tp1992
Rp1993
sg315
g301
(g305
S'\x93x\x0f\xda|\xf2\x0fA'
p1994
tp1995
Rp1996
sg319
g301
(g305
S'\xa4\x7f\xf5N\xb3\xdd\x93@'
p1997
tp1998
Rp1999
sa(dp2000
g300
g301
(g305
S'\xda\x96T\x91l\x08\x94A'
p2001
tp2002
Rp2003
sg311
g301
(g305
S'\xf6|\xd7\xe5\x18\xfa\xdbA'
p2004
tp2005
Rp2006
sg315
g301
(g305
S'\xfdz\xb1\x07\x04\x01MA'
p2007
tp2008
Rp2009
sg319
g301
(g305
S';\xc3\xe3\xa1\x04\xe7\x93@'
p2010
tp2011
Rp2012
sa(dp2013
g300
g301
(g305
S'\x82\x88:A\x87\x92\xa4A'
p2014
tp2015
Rp2016
sg311
g301
(g305
S'%!VS^\xbc\xecA'
p2017
tp2018
Rp2019
sg315
g301
(g305
S'\x12\x17\xc4q\xc2\xb1]A'
p2020
tp2021
Rp2022
sg319
g301
(g305
S'2\xb52\xcb$\xe6\x93@'
p2023
tp2024
Rp2025
sa(dp2026
g300
g301
(g305
S'`\xa0K\xde\xd0\x82EA'
p2027
tp2028
Rp2029
sg311
g301
(g305
S'\xee\xac1\xa5z\xb7\x8cA'
p2030
tp2031
Rp2032
sg315
g301
(g305
S'j\x88\xc1e\x90\x87\x04A'
p2033
tp2034
Rp2035
sg319
g301
(g305
S'n\xd2\xb5\n\xb8\xdc\x93@'
p2036
tp2037
Rp2038
sa(dp2039
g300
g301
(g305
S'\xea|\xbe\xad\xa5\xecVA'
p2040
tp2041
Rp2042
sg311
g301
(g305
S'\x93A\xf8\xd3\xf2J\x9fA'
p2043
tp2044
Rp2045
sg315
g301
(g305
S'\xc0\x04\xff\xc0,\x11\x14A'
p2046
tp2047
Rp2048
sg319
g301
(g305
S'\xbew\xddS\xb8\xd0\x93@'
p2049
tp2050
Rp2051
sa(dp2052
g300
g301
(g305
S'`w\x96\xb4\xed\xa5\xbfA'
p2053
tp2054
Rp2055
sg311
g301
(g305
S'F\x0f\xf3<m\x1c\x06B'
p2056
tp2057
Rp2058
sg315
g301
(g305
S'\x08D@H^\xbewA'
p2059
tp2060
Rp2061
sg319
g301
(g305
S'M\xb4\xd9\x8e\xec\xb3\x93@'
p2062
tp2063
Rp2064
sa(dp2065
g300
g301
(g305
S'B\xa6CS\x90\xaf\xa5A'
p2066
tp2067
Rp2068
sg311
g301
(g305
S'\xeb\xc3\x05\x10C\xb8\xecA'
p2069
tp2070
Rp2071
sg315
g301
(g305
S'\xc7xU\x8e^\xc2bA'
p2072
tp2073
Rp2074
sg319
g301
(g305
S'\xfdY\x98;e\xb6\x93@'
p2075
tp2076
Rp2077
sa(dp2078
g300
g301
(g305
S'[\xfc~^b\xbf\x8cA'
p2079
tp2080
Rp2081
sg311
g301
(g305
S'cSA\x1b\xba\x17\xd4A'
p2082
tp2083
Rp2084
sg315
g301
(g305
S'\xc67\xa0\xe2\x0b\xe9DA'
p2085
tp2086
Rp2087
sg319
g301
(g305
S'\xd8N\xb3\x88#\xb9\x93@'
p2088
tp2089
Rp2090
sa(dp2091
g300
g301
(g305
S'\xff\xa3\xfa^\xf1U\xe7A'
p2092
tp2093
Rp2094
sg311
g301
(g305
S'\xe81@\x150Q0B'
p2095
tp2096
Rp2097
sg315
g301
(g305
S'\x0c\xba\x7fq\xa1\xc4\xa0A'
p2098
tp2099
Rp2100
sg319
g301
(g305
S'\xc8\xf7\x94\xae\xd0\xa9\x93@'
p2101
tp2102
Rp2103
sa(dp2104
g300
g301
(g305
S'\x7fm_\x0e\x07k\x07B'
p2105
tp2106
Rp2107
sg311
g301
(g305
S'\x10\x9f\xfcT\xbd`PB'
p2108
tp2109
Rp2110
sg315
g301
(g305
S'Tb\xab\xd3}\x02\xc1A'
p2111
tp2112
Rp2113
sg319
g301
(g305
S'\x8e#\x1c\xd9\x87\xa0\x93@'
p2114
tp2115
Rp2116
sa(dp2117
g300
g301
(g305
S'\xa8\x9b\xafD\xb6\x7f\x01B'
p2118
tp2119
Rp2120
sg311
g301
(g305
S'\xd1$t!\xbdzHB'
p2121
tp2122
Rp2123
sg315
g301
(g305
S':\xa2\xa7\xd8\xef\x16\xb9A'
p2124
tp2125
Rp2126
sg319
g301
(g305
S'\xfa-\x85\x9c\xb4\x95\x93@'
p2127
tp2128
Rp2129
sa(dp2130
g300
g301
(g305
S'\xee\x1dP\x9cKfeA'
p2131
tp2132
Rp2133
sg311
g301
(g305
S'\x1e\xf17\xe9\xd4\xdd\xadA'
p2134
tp2135
Rp2136
sg315
g301
(g305
S'\x96r3w\xcdd A'
p2137
tp2138
Rp2139
sg319
g301
(g305
S'\xf0\xa5@=#\x9b\x93@'
p2140
tp2141
Rp2142
sa(dp2143
g300
g301
(g305
S'J\xd3<{\x19\x80\xc1A'
p2144
tp2145
Rp2146
sg311
g301
(g305
S'\xa4\xc2\xf6\xcd\xcbz\x08B'
p2147
tp2148
Rp2149
sg315
g301
(g305
S'\xccG\xe4\xcf\x0e8yA'
p2150
tp2151
Rp2152
sg319
g301
(g305
S'6\xcc{Yo\x97\x93@'
p2153
tp2154
Rp2155
sa(dp2156
g300
g301
(g305
S'Ni\xf30z\xa9\xf9A'
p2157
tp2158
Rp2159
sg311
g301
(g305
S'\x0c,q\xd1%\xf3AB'
p2160
tp2161
Rp2162
sg315
g301
(g305
S'\xea\x99c\xad\xe8j\xb2A'
p2163
tp2164
Rp2165
sg319
g301
(g305
S'\xca]\xff,y\xab\x93@'
p2166
tp2167
Rp2168
sa(dp2169
g300
g301
(g305
S'\x15h*\xee\x12\xc1yA'
p2170
tp2171
Rp2172
sg311
g301
(g305
S'\xf8d\xbd\x93\n\xc5\xc1A'
p2173
tp2174
Rp2175
sg315
g301
(g305
S'\xf9\xfa\x1c\x9e\x1c\xfa3A'
p2176
tp2177
Rp2178
sg319
g301
(g305
S'\xd0_\xef )\xa1\x93@'
p2179
tp2180
Rp2181
sa(dp2182
g300
g301
(g305
S'\xac^\xc6\x80\xd6\xf1\xc0B'
p2183
tp2184
Rp2185
sg311
g301
(g305
S"\xe3\\'Yb\xb4\x07C"
p2186
tp2187
Rp2188
sg315
g301
(g305
S'<\xa2\xa8\x8b\x06FxB'
p2189
tp2190
Rp2191
sg319
g301
(g305
S'L\\N\x84T\xa5\x93@'
p2192
tp2193
Rp2194
sa(dp2195
g300
g301
(g305
S'\x93`\x84\xce\x9f\x01:B'
p2196
tp2197
Rp2198
sg311
g301
(g305
S'\x87Vr\xa4\xce0\x82B'
p2199
tp2200
Rp2201
sg315
g301
(g305
S'4\xc4\xc1a\x9f\xa0\xf2A'
p2202
tp2203
Rp2204
sg319
g301
(g305
S'\x1f\xad\xecD\x93\xb1\x93@'
p2205
tp2206
Rp2207
sa(dp2208
g300
g301
(g305
S'Z\xd8>\xf3\xab\xda\x11A'
p2209
tp2210
Rp2211
sg311
g301
(g305
S"8-r'\xca\x0fPA"
p2212
tp2213
Rp2214
sg315
g301
(g305
S'b\x9c\x17m\xd9\xf3\xe6@'
p2215
tp2216
Rp2217
sg319
g301
(g305
S'\xb6\xf6F\x8c\x8b\xb4\x93@'
p2218
tp2219
Rp2220
sa(dp2221
g300
g301
(g305
S';y\xb3CQU\x88A'
p2222
tp2223
Rp2224
sg311
g301
(g305
S'\xa2\x87\x0cZ\x9b\xfc\xd0A'
p2225
tp2226
Rp2227
sg315
g301
(g305
S'q\xbb\x8c\x15}\xb1AA'
p2228
tp2229
Rp2230
sg319
g301
(g305
S'\x07V0\x1d\x1e\xab\x93@'
p2231
tp2232
Rp2233
sa(dp2234
g300
g301
(g305
S'%\xfb>i\x90\xfeQA'
p2235
tp2236
Rp2237
sg311
g301
(g305
S'\\\xc4\xbdq\x0e\x8c\x98A'
p2238
tp2239
Rp2240
sg315
g301
(g305
S'\xb2\xbf;\xa2>\x16\x0eA'
p2241
tp2242
Rp2243
sg319
g301
(g305
S'8\n\x92\xc5\xd8\x93\x93@'
p2244
tp2245
Rp2246
sa(dp2247
g300
g301
(g305
S'\x98*\xcb\xd5T\x15{A'
p2248
tp2249
Rp2250
sg311
g301
(g305
S'\x1bw\xf5\x0c\xcb\xe0\xc2A'
p2251
tp2252
Rp2253
sg315
g301
(g305
S'\xccK\x8b\xc3\xb5\xe83A'
p2254
tp2255
Rp2256
sg319
g301
(g305
S'\xd2C\xc0}\xc8\x94\x93@'
p2257
tp2258
Rp2259
sa(dp2260
g300
g301
(g305
S'\x07\xdcT\xb0\\\xf28A'
p2261
tp2262
Rp2263
sg311
g301
(g305
S'\xcaF\xa9}\xbc\x12\x7fA'
p2264
tp2265
Rp2266
sg315
g301
(g305
S'\xee^"\xd5w\xe6\xfa@'
p2267
tp2268
Rp2269
sg319
g301
(g305
S'Y^!\xe0\x81\x81\x93@'
p2270
tp2271
Rp2272
sa(dp2273
g300
g301
(g305
S'\x19\xe0\xc5p\xfa\x02CA'
p2274
tp2275
Rp2276
sg311
g301
(g305
S'\x04\x14\xfa\xd9\x03j\x89A'
p2277
tp2278
Rp2279
sg315
g301
(g305
S'\x1bh\xfcG?F\x02A'
p2280
tp2281
Rp2282
sg319
g301
(g305
S'\x9c\xeb\x8d\xd3\xf3\x80\x93@'
p2283
tp2284
Rp2285
sa(dp2286
g300
g301
(g305
S'l\xf7{\x91\x7f\x1f\x80A'
p2287
tp2288
Rp2289
sg311
g301
(g305
S'\xf8\x90W\x817\x8c\xc6A'
p2290
tp2291
Rp2292
sg315
g301
(g305
S'\xde+{\x8b\x1d\xaf7A'
p2293
tp2294
Rp2295
sg319
g301
(g305
S'\xaa\xa0G\xf5|\x84\x93@'
p2296
tp2297
Rp2298
sa(dp2299
g300
g301
(g305
S'\xe2\x98t\xf5\xe6\xb2\x92A'
p2300
tp2301
Rp2302
sg311
g301
(g305
S"r2D\x13\x01'\xdaA"
p2303
tp2304
Rp2305
sg315
g301
(g305
S'\xe5\xa5\x13Z\xa1\x14KA'
p2306
tp2307
Rp2308
sg319
g301
(g305
S'g\x87\xd1\xbb\xc5v\x93@'
p2309
tp2310
Rp2311
sa(dp2312
g300
g301
(g305
S'ER!\xfe\xf6\xdd3A'
p2313
tp2314
Rp2315
sg311
g301
(g305
S'\xd2\x9fU=\xbe\xd2vA'
p2316
tp2317
Rp2318
sg315
g301
(g305
S'>\xf6\xfb\x08=G\xfa@'
p2319
tp2320
Rp2321
sg319
g301
(g305
S'\xa5\xc2^\xbc\xa3\x82\x93@'
p2322
tp2323
Rp2324
sa(dp2325
g300
g301
(g305
S'\xa6V\x04F\x11;aA'
p2326
tp2327
Rp2328
sg311
g301
(g305
S'\xbej\x06ct\xe8\xa6A'
p2329
tp2330
Rp2331
sg315
g301
(g305
S'\xe2Q\xd3\xe1\x1d\xbe\x1eA'
p2332
tp2333
Rp2334
sg319
g301
(g305
S'a\xeb\x8c\xb6K~\x93@'
p2335
tp2336
Rp2337
sa(dp2338
g300
g301
(g305
S'\x84\xcd\xc3l\xcf/\xa6A'
p2339
tp2340
Rp2341
sg311
g301
(g305
S']\x81x\\\x95\x08\xefA'
p2342
tp2343
Rp2344
sg315
g301
(g305
S'"L\xe2/\x19\x05`A'
p2345
tp2346
Rp2347
sg319
g301
(g305
S'MU\x15\xddQx\x93@'
p2348
tp2349
Rp2350
sa(dp2351
g300
g301
(g305
S'E\xab\x14e[\xdc\xd7A'
p2352
tp2353
Rp2354
sg311
g301
(g305
S'\x9c\xb3\x0b\x0f#\xb0 B'
p2355
tp2356
Rp2357
sg315
g301
(g305
S'\x8a\xd9\x95f\x8b#\x91A'
p2358
tp2359
Rp2360
sg319
g301
(g305
S'/P-\x800S\x93@'
p2361
tp2362
Rp2363
sa(dp2364
g300
g301
(g305
S'\xe3t\xf0\x08\xe1\x0fmA'
p2365
tp2366
Rp2367
sg311
g301
(g305
S'\xc7;\xa4\xe8,\xb1\xb3A'
p2368
tp2369
Rp2370
sg315
g301
(g305
S'\xe7\xf9\xe5\xce\xe1m(A'
p2371
tp2372
Rp2373
sg319
g301
(g305
S'\x9dN\xc0"\x9fY\x93@'
p2374
tp2375
Rp2376
sa(dp2377
g300
g301
(g305
S'\xcbT^p\xd0\xdaGA'
p2378
tp2379
Rp2380
sg311
g301
(g305
S'\xfd2\xad\x02Q0\x90A'
p2381
tp2382
Rp2383
sg315
g301
(g305
S'\x1f\xdcFx\x03\xb5\x04A'
p2384
tp2385
Rp2386
sg319
g301
(g305
S'\xa0\xd7\xaf@\xab^\x93@'
p2387
tp2388
Rp2389
sa(dp2390
g300
g301
(g305
S'g\xc0b\xc7\xcb3AA'
p2391
tp2392
Rp2393
sg311
g301
(g305
S'\xcbf2\x03\x83\xe1\x86A'
p2394
tp2395
Rp2396
sg315
g301
(g305
S'V\xf3\x10U\x18\xd9\x00A'
p2397
tp2398
Rp2399
sg319
g301
(g305
S'\x86\x90*\x8fRQ\x93@'
p2400
tp2401
Rp2402
sa(dp2403
g300
g301
(g305
S'\xaa\t\xea}\x17\xf4OA'
p2404
tp2405
Rp2406
sg311
g301
(g305
S'\x8e\xb7\x0b\x17r\x98\x95A'
p2407
tp2408
Rp2409
sg315
g301
(g305
S'(\xe8\t`\x0b\x94\rA'
p2410
tp2411
Rp2412
sg319
g301
(g305
S'^\x8f\x91wBZ\x93@'
p2413
tp2414
Rp2415
sa(dp2416
g300
g301
(g305
S'"\x17\xf5\xf2\x9e\x8e#B'
p2417
tp2418
Rp2419
sg311
g301
(g305
S'\x1d)\xdb\x9b\xf2[kB'
p2420
tp2421
Rp2422
sg315
g301
(g305
S'z\x8a\x99\xc4s\x04\xdcA'
p2423
tp2424
Rp2425
sg319
g301
(g305
S'X\xfc\xbc\xd7\xddX\x93@'
p2426
tp2427
Rp2428
sa(dp2429
g300
g301
(g305
S'\xd4}GO\xaeg\x81A'
p2430
tp2431
Rp2432
sg311
g301
(g305
S'c7\xb2\xdb\x121\xc8A'
p2433
tp2434
Rp2435
sg315
g301
(g305
S'>\xf2\xeb9\xa4j:A'
p2436
tp2437
Rp2438
sg319
g301
(g305
S'z\x185_\xddT\x93@'
p2439
tp2440
Rp2441
sa(dp2442
g300
g301
(g305
S'\x92\xb6\x1d#\xfc\xd9\xd0A'
p2443
tp2444
Rp2445
sg311
g301
(g305
S'K\x0e\xca\xcf\xb0\x92\x17B'
p2446
tp2447
Rp2448
sg315
g301
(g305
S'6\xf2;\x99P>\x88A'
p2449
tp2450
Rp2451
sg319
g301
(g305
S'\xd3C6\xa9\x0fF\x93@'
p2452
tp2453
Rp2454
sa(dp2455
g300
g301
(g305
S'#x\xfe\xf2ZM\xedA'
p2456
tp2457
Rp2458
sg311
g301
(g305
S'rce>\xae94B'
p2459
tp2460
Rp2461
sg315
g301
(g305
S'\xc2D\xe1oD%\xa8A'
p2462
tp2463
Rp2464
sg319
g301
(g305
S'\xd0E\x179$N\x93@'
p2465
tp2466
Rp2467
sa(dp2468
g300
g301
(g305
S'\xd0v\x06b?B-B'
p2469
tp2470
Rp2471
sg311
g301
(g305
S'^\xc4\xf5y3wtB'
p2472
tp2473
Rp2474
sg315
g301
(g305
S'\xd0\x8a\x04\x1c6\xf6\xe4A'
p2475
tp2476
Rp2477
sg319
g301
(g305
S'\xa6\xd6R\x98\xeeN\x93@'
p2478
tp2479
Rp2480
sa(dp2481
g300
g301
(g305
S'@\x1e6\x98\xa2#\x8dA'
p2482
tp2483
Rp2484
sg311
g301
(g305
S'"\xa2\x81\xb7\xe6V\xd4A'
p2485
tp2486
Rp2487
sg315
g301
(g305
S'|#\r\xc1E1EA'
p2488
tp2489
Rp2490
sg319
g301
(g305
S'\x02\xe7\xb0\x7f\xf4N\x93@'
p2491
tp2492
Rp2493
sa(dp2494
g300
g301
(g305
S'\x8c\xa0\xc4X)\xf7\x95A'
p2495
tp2496
Rp2497
sg311
g301
(g305
S'\xcb\xeb\x86\xa4\x86\xb5\xdeA'
p2498
tp2499
Rp2500
sg315
g301
(g305
S'\xc0\xc47\xb8\x8b\xaeOA'
p2501
tp2502
Rp2503
sg319
g301
(g305
S'\xa6^\xb3\xf1eE\x93@'
p2504
tp2505
Rp2506
sa(dp2507
g300
g301
(g305
S'\xf1V\xc5\x95\xd1\x1d\xa7A'
p2508
tp2509
Rp2510
sg311
g301
(g305
S'v\x8a\xa34\xf8)\xf0A'
p2511
tp2512
Rp2513
sg315
g301
(g305
S':\xa8\x83"\xfe\xa4`A'
p2514
tp2515
Rp2516
sg319
g301
(g305
S'\xf13\x80F\xdaC\x93@'
p2517
tp2518
Rp2519
sa(dp2520
g300
g301
(g305
S'u[VPq\x07\x9fA'
p2521
tp2522
Rp2523
sg311
g301
(g305
S'Ri0\xf2\xf2\xa8\xe5A'
p2524
tp2525
Rp2526
sg315
g301
(g305
S'\xa0\x82\xabl\xce\x00WA'
p2527
tp2528
Rp2529
sg319
g301
(g305
S'\x85\xce\xd0\xf3 $\x93@'
p2530
tp2531
Rp2532
sa(dp2533
g300
g301
(g305
S'\xc2\xc9a9\xbd\xd0rA'
p2534
tp2535
Rp2536
sg311
g301
(g305
S'V\xa5\xce\xe6\xcb>\xbaA'
p2537
tp2538
Rp2539
sg315
g301
(g305
S'>\xcf\xb8\x8b0%,A'
p2540
tp2541
Rp2542
sg319
g301
(g305
S'e\xe4\xa1\xf1\xe6\x13\x93@'
p2543
tp2544
Rp2545
sa(dp2546
g300
g301
(g305
S'\x18by|\xe7^\x9eA'
p2547
tp2548
Rp2549
sg311
g301
(g305
S'\xaeX\xef\xb0\xa8:\xe5A'
p2550
tp2551
Rp2552
sg315
g301
(g305
S'\x06\xb8\xba\x16d\xd8UA'
p2553
tp2554
Rp2555
sg319
g301
(g305
S'\xaa\x0ea\xfa\xef\x18\x93@'
p2556
tp2557
Rp2558
sa(dp2559
g300
g301
(g305
S'\xf8\xae\xb5\x1a\xa6\xfeVA'
p2560
tp2561
Rp2562
sg311
g301
(g305
S'e9\x8a\x06h\xd0\x9eA'
p2563
tp2564
Rp2565
sg315
g301
(g305
S'\x91\xae\xe2\x16/K\x14A'
p2566
tp2567
Rp2568
sg319
g301
(g305
S'\xee\xcd\x85\xf8\xbd \x93@'
p2569
tp2570
Rp2571
sa(dp2572
g300
g301
(g305
S'"-a\r%iXA'
p2573
tp2574
Rp2575
sg311
g301
(g305
S'\xfb\x0fa\x86\xb8\xdb\xa0A'
p2576
tp2577
Rp2578
sg315
g301
(g305
S'jL7Fn\x10\x13A'
p2579
tp2580
Rp2581
sg319
g301
(g305
S'z\xdc*\xe4B\x11\x93@'
p2582
tp2583
Rp2584
sa(dp2585
g300
g301
(g305
S'\xe4\x914\\\x94\x0e\xe9A'
p2586
tp2587
Rp2588
sg311
g301
(g305
S'>\xcb\xe8\xbe\xaa\x861B'
p2589
tp2590
Rp2591
sg315
g301
(g305
S'\xdf.\x8a8\xc8\xf3\xa1A'
p2592
tp2593
Rp2594
sg319
g301
(g305
S'\xb2\xa3?\x98T\xfd\x92@'
p2595
tp2596
Rp2597
sa(dp2598
g300
g301
(g305
S'*:\xe0H\xff\xbd\xc9A'
p2599
tp2600
Rp2601
sg311
g301
(g305
S'\x9fK\xf99C\xda\x11B'
p2602
tp2603
Rp2604
sg315
g301
(g305
S'\ra\x9f\x07\xb5\xb0\x82A'
p2605
tp2606
Rp2607
sg319
g301
(g305
S'\x0f\xf2\x89\xe2\x1c\x03\x93@'
p2608
tp2609
Rp2610
sa(dp2611
g300
g301
(g305
S'\xf2+\r\xb8F\x7ffA'
p2612
tp2613
Rp2614
sg311
g301
(g305
S'\xd6\x8e\x83\x1f\x08\x04\xafA'
p2615
tp2616
Rp2617
sg315
g301
(g305
S'r\xd9\x1bLv\xc9!A'
p2618
tp2619
Rp2620
sg319
g301
(g305
S'\xb2\xa3\xbd\xf5\x00\x04\x93@'
p2621
tp2622
Rp2623
sa(dp2624
g300
g301
(g305
S'\xc8=\xa0\xd1\xa3\xe2]B'
p2625
tp2626
Rp2627
sg311
g301
(g305
S'\x86\xe7\xd0\x97h\xe7\xa4B'
p2628
tp2629
Rp2630
sg315
g301
(g305
S'\xde\xec\x97a\\n\x15B'
p2631
tp2632
Rp2633
sg319
g301
(g305
S'\x99\xb7\xd8r\x01\xf7\x92@'
p2634
tp2635
Rp2636
sa(dp2637
g300
g301
(g305
S'\xb9\xca\xf2\xb1\x08\xb4\xb7A'
p2638
tp2639
Rp2640
sg311
g301
(g305
S'\x0e\x9d\xf2\x184\x93\x00B'
p2641
tp2642
Rp2643
sg315
g301
(g305
S'#2\n\x9c\xffDqA'
p2644
tp2645
Rp2646
sg319
g301
(g305
S'\xb9F\x02\\\xc4\t\x93@'
p2647
tp2648
Rp2649
sa(dp2650
g300
g301
(g305
S'R\xd4\xae\xc3^44A'
p2651
tp2652
Rp2653
sg311
g301
(g305
S'\xbd\xe9z\xbf\x0bvzA'
p2654
tp2655
Rp2656
sg315
g301
(g305
S'\xf0O(.E\xc9\xf6@'
p2657
tp2658
Rp2659
sg319
g301
(g305
S'\x8e\x19\xbenk\x0b\x93@'
p2660
tp2661
Rp2662
sa(dp2663
g300
g301
(g305
S'?\xd2\xb8\x1e\x86\xa4wA'
p2664
tp2665
Rp2666
sg311
g301
(g305
S'c\xba\xb7>qt\xc0A'
p2667
tp2668
Rp2669
sg315
g301
(g305
S'\x86\xa4\xe5\x14\xf5\xfe1A'
p2670
tp2671
Rp2672
sg319
g301
(g305
S'|\x89\xcd\x0e\t\xfc\x92@'
p2673
tp2674
Rp2675
sa(dp2676
g300
g301
(g305
S'\xe3\x888\xf5\xd5%@A'
p2677
tp2678
Rp2679
sg311
g301
(g305
S'\xe3q\xce\x02;\xdc\x84A'
p2680
tp2681
Rp2682
sg315
g301
(g305
S'\x80\xe5\xbc\xa9hL\x00A'
p2683
tp2684
Rp2685
sg319
g301
(g305
S'\xe0Op\xdf\xfb\xeb\x92@'
p2686
tp2687
Rp2688
sa(dp2689
g300
g301
(g305
S'[\x0b\x00\xca5\xe0\x98A'
p2690
tp2691
Rp2692
sg311
g301
(g305
S'Y\xc7\x9e\x80[^\xe1A'
p2693
tp2694
Rp2695
sg315
g301
(g305
S'j\xd7A\x9b\x15hRA'
p2696
tp2697
Rp2698
sg319
g301
(g305
S'q\xb5\xd88\xa4\xd0\x92@'
p2699
tp2700
Rp2701
sa(dp2702
g300
g301
(g305
S'\x9d\xc1\xf5\xb4\xe3M\xa1A'
p2703
tp2704
Rp2705
sg311
g301
(g305
S']>\xcbZq-\xe8A'
p2706
tp2707
Rp2708
sg315
g301
(g305
S'\xbcv\x98\xce2\xf6XA'
p2709
tp2710
Rp2711
sg319
g301
(g305
S'\x1eE\x10\x02\xd4\xda\x92@'
p2712
tp2713
Rp2714
sa(dp2715
g300
g301
(g305
S'J;W\x8a\xc5\xed\xe0A'
p2716
tp2717
Rp2718
sg311
g301
(g305
S"\xcbWG:S\xae'B"
p2719
tp2720
Rp2721
sg315
g301
(g305
S'\x9a\xf3L\xca1I\x98A'
p2722
tp2723
Rp2724
sg319
g301
(g305
S'\xc4E\x10iH\xf3\x92@'
p2725
tp2726
Rp2727
sa(dp2728
g300
g301
(g305
S'x\xe8E.x\xb4RA'
p2729
tp2730
Rp2731
sg311
g301
(g305
S'\xc2d\xc2Wu\xc3\x99A'
p2732
tp2733
Rp2734
sg315
g301
(g305
S'\x1e\xcfD\xe5p6\x0fA'
p2735
tp2736
Rp2737
sg319
g301
(g305
S'\xfa8\xe6\xf0\xde\xea\x92@'
p2738
tp2739
Rp2740
sa(dp2741
g300
g301
(g305
S'\x10K\xf7K\xe8\xf3\xa3A'
p2742
tp2743
Rp2744
sg311
g301
(g305
S'\xae\xf3\xac:2\xe8\xebA'
p2745
tp2746
Rp2747
sg315
g301
(g305
S'\xcb\xae\xf2\xf9\x97\xc4\\A'
p2748
tp2749
Rp2750
sg319
g301
(g305
S'\xdb\x19\xf6[\xcf\xea\x92@'
p2751
tp2752
Rp2753
sa(dp2754
g300
g301
(g305
S'V\xa5r< N6A'
p2755
tp2756
Rp2757
sg311
g301
(g305
S'\xf55\x9c\x02s\xb7{A'
p2758
tp2759
Rp2760
sg315
g301
(g305
S'\x8c\xf7\xe1f\x86\xf6\xf6@'
p2761
tp2762
Rp2763
sg319
g301
(g305
S'\xbd\xd1\xf3\xc9\x05\xe0\x92@'
p2764
tp2765
Rp2766
sa(dp2767
g300
g301
(g305
S'Bp\xc3\x84\x05w\x82B'
p2768
tp2769
Rp2770
sg311
g301
(g305
S'\xc6\xa4\xbe\x8b\xd4\xd4\xc9B'
p2771
tp2772
Rp2773
sg315
g301
(g305
S'\x1bG\xf5\xa0\xecs:B'
p2774
tp2775
Rp2776
sg319
g301
(g305
S'\xae\xd3 ,\xc6\xd7\x92@'
p2777
tp2778
Rp2779
sa(dp2780
g300
g301
(g305
S'\xf3<\xf7\x13\x0b+4A'
p2781
tp2782
Rp2783
sg311
g301
(g305
S'\x00\xf35\xd0\x98\x0e{A'
p2784
tp2785
Rp2786
sg315
g301
(g305
S'\xd4W\xc6\x02\xb2R\xf6@'
p2787
tp2788
Rp2789
sg319
g301
(g305
S'\xe0\x0e\xa0\x8e\x14\xf7\x92@'
p2790
tp2791
Rp2792
sa(dp2793
g300
g301
(g305
S'b5\xe3\xc8\xe1\x10\xbdA'
p2794
tp2795
Rp2796
sg311
g301
(g305
S'2\xbeh\x7f\xf7R\x04B'
p2797
tp2798
Rp2799
sg315
g301
(g305
S'\x1a\xe8\x98\xbf\x82\xddtA'
p2800
tp2801
Rp2802
sg319
g301
(g305
S'\xb6\xda[\xd1,\xeb\x92@'
p2803
tp2804
Rp2805
sa(dp2806
g300
g301
(g305
S'\xea\x14^lS(\xc0A'
p2807
tp2808
Rp2809
sg311
g301
(g305
S'\x1e\xe9X\xa02\x9a\x06B'
p2810
tp2811
Rp2812
sg315
g301
(g305
S'8\xeb\xbf\xe1\xbf-wA'
p2813
tp2814
Rp2815
sg319
g301
(g305
S't\xf7\x1f,\xcb\xef\x92@'
p2816
tp2817
Rp2818
sa(dp2819
g300
g301
(g305
S'\x96{\x80\xd08\xa1ZA'
p2820
tp2821
Rp2822
sg311
g301
(g305
S'-\xe4\xc6\xc3vN\xa2A'
p2823
tp2824
Rp2825
sg315
g301
(g305
S'\xc8\xf2\xb0\xbc\xf0G\x15A'
p2826
tp2827
Rp2828
sg319
g301
(g305
S'\xf2\xd0"}\xc0\xfe\x92@'
p2829
tp2830
Rp2831
sa(dp2832
g300
g301
(g305
S' *\x95\xcce+\xbdA'
p2833
tp2834
Rp2835
sg311
g301
(g305
S'\xc3\xe8\xf0M\x93f\x04B'
p2836
tp2837
Rp2838
sg315
g301
(g305
S'7\x80\xa0=_\xectA'
p2839
tp2840
Rp2841
sg319
g301
(g305
S'h\nO\xe1~\xf7\x92@'
p2842
tp2843
Rp2844
sa(dp2845
g300
g301
(g305
S'\x91J=1F8 A'
p2846
tp2847
Rp2848
sg311
g301
(g305
S'E\xe3\x9b\xf6\xe0(^A'
p2849
tp2850
Rp2851
sg315
g301
(g305
S'\x1b\xea\xec\x84xL\xea@'
p2852
tp2853
Rp2854
sg319
g301
(g305
S'\xa8y\xdc\xf67\xe0\x92@'
p2855
tp2856
Rp2857
sa(dp2858
g300
g301
(g305
S'\x00am\x8f\xf5E\x1eA'
p2859
tp2860
Rp2861
sg311
g301
(g305
S'\xeb\\\xb69\xe61aA'
p2862
tp2863
Rp2864
sg315
g301
(g305
S'Y\x130\xf6\x16s\xe8@'
p2865
tp2866
Rp2867
sg319
g301
(g305
S'\x9by3\xf5c\xc8\x92@'
p2868
tp2869
Rp2870
sa(dp2871
g300
g301
(g305
S'\x1c\xe9gx\xc6\x10\x80A'
p2872
tp2873
Rp2874
sg311
g301
(g305
S'Hsy\xc6\xedc\xc6A'
p2875
tp2876
Rp2877
sg315
g301
(g305
S'\x06\xe2\x1e\x10j\xb27A'
p2878
tp2879
Rp2880
sg319
g301
(g305
S'\xb6n4\x9b*\xdb\x92@'
p2881
tp2882
Rp2883
sa(dp2884
g300
g301
(g305
S'\xd6E\xb2\x08\x1aV!A'
p2885
tp2886
Rp2887
sg311
g301
(g305
S'\xb3\xd2iT\x16\xfc`A'
p2888
tp2889
Rp2890
sg315
g301
(g305
S'\xc0\xff/\xcc6S\xed@'
p2891
tp2892
Rp2893
sg319
g301
(g305
S'\xe7\xf0yfh\xcc\x92@'
p2894
tp2895
Rp2896
sa(dp2897
g300
g301
(g305
S'\xe3\x84\x1e1\xc1\xceEA'
p2898
tp2899
Rp2900
sg311
g301
(g305
S'\xf0/\xacQ\xfe\x9f\x8dA'
p2901
tp2902
Rp2903
sg315
g301
(g305
S'\x80\x8740\xfb%\x03A'
p2904
tp2905
Rp2906
sg319
g301
(g305
S'\x8e\xd1\x9a\xb4x\xda\x92@'
p2907
tp2908
Rp2909
sa(dp2910
g300
g301
(g305
S'\x12\x8f\xfc\x80\xc79UA'
p2911
tp2912
Rp2913
sg311
g301
(g305
S'v\xd6\x1bQ\xb61\x9dA'
p2914
tp2915
Rp2916
sg315
g301
(g305
S'\x08\x93H\xe2\xacl\x11A'
p2917
tp2918
Rp2919
sg319
g301
(g305
S'&\xff\xe5\x01Y\xc3\x92@'
p2920
tp2921
Rp2922
sa(dp2923
g300
g301
(g305
S'\x8b\xf1\xc6\x88\xbe]pA'
p2924
tp2925
Rp2926
sg311
g301
(g305
S'\xce\xcf#\xc1\x87\xb5\xb6A'
p2927
tp2928
Rp2929
sg315
g301
(g305
S'9\x0c\xfd\r\x9c\x80(A'
p2930
tp2931
Rp2932
sg319
g301
(g305
S'N\xff\t\xb4\xee\xb1\x92@'
p2933
tp2934
Rp2935
sa(dp2936
g300
g301
(g305
S'\xca\x10u\xd2\x02w$B'
p2937
tp2938
Rp2939
sg311
g301
(g305
S'\x93Y=z\n\xa1lB'
p2940
tp2941
Rp2942
sg315
g301
(g305
S'e\xf9\xd0\xb1\x1eQ\xddA'
p2943
tp2944
Rp2945
sg319
g301
(g305
S'\xf5v\xed\x08+\xa8\x92@'
p2946
tp2947
Rp2948
sa(dp2949
g300
g301
(g305
S'rpZ\xf3\x1c\xa5\xe8A'
p2950
tp2951
Rp2952
sg311
g301
(g305
S'\x99<\x95\xa4\x03=1B'
p2953
tp2954
Rp2955
sg315
g301
(g305
S'U%\xbd\x132\xa8\xa1A'
p2956
tp2957
Rp2958
sg319
g301
(g305
S'\xcd\x19>\xc1\x93\xa9\x92@'
p2959
tp2960
Rp2961
sa(dp2962
g300
g301
(g305
S'E\xc0Z*\x96JBA'
p2963
tp2964
Rp2965
sg311
g301
(g305
S'\xf7\xa2\x84\x84\xa9&\x87A'
p2966
tp2967
Rp2968
sg315
g301
(g305
S'H:gO\\\x9e\x02A'
p2969
tp2970
Rp2971
sg319
g301
(g305
S'?\xc4\x98\xb5t\xb5\x92@'
p2972
tp2973
Rp2974
sa(dp2975
g300
g301
(g305
S'r\xf7\xeb\xbc8c\xeeA'
p2976
tp2977
Rp2978
sg311
g301
(g305
S'<@\x0f2AA5B'
p2979
tp2980
Rp2981
sg315
g301
(g305
S'Psro\x95\xc5\xa5A'
p2982
tp2983
Rp2984
sg319
g301
(g305
S'\xa6\xc2\xc8\xa9\xab\xbb\x92@'
p2985
tp2986
Rp2987
sa(dp2988
g300
g301
(g305
S'\x07\n\xaa\x119Q\x91A'
p2989
tp2990
Rp2991
sg311
g301
(g305
S'\xbe\xe3\x15:\xf91\xd8A'
p2992
tp2993
Rp2994
sg315
g301
(g305
S'@\x9c\x88c\xcd\x11IA'
p2995
tp2996
Rp2997
sg319
g301
(g305
S'\xcf]w\xe5]\xc2\x92@'
p2998
tp2999
Rp3000
sa(dp3001
g300
g301
(g305
S'\x98UR\xf6\xf7\xe3\xe8A'
p3002
tp3003
Rp3004
sg311
g301
(g305
S'\xda\x83s\x1e\xe7h1B'
p3005
tp3006
Rp3007
sg315
g301
(g305
S'H\x84G\x88+\xd5\xa1A'
p3008
tp3009
Rp3010
sg319
g301
(g305
S'ny6h4\xc3\x92@'
p3011
tp3012
Rp3013
sa(dp3014
g300
g301
(g305
S'\xfa\xbf\x99\xb8<dwA'
p3015
tp3016
Rp3017
sg311
g301
(g305
S'\xd2\x04\xac\xfc\x82N\xc0A'
p3018
tp3019
Rp3020
sg315
g301
(g305
S'0q\x8e\x91x>1A'
p3021
tp3022
Rp3023
sg319
g301
(g305
S'\x0e\xaa\x0e\xdax\xc1\x92@'
p3024
tp3025
Rp3026
sa(dp3027
g300
g301
(g305
S'\x7f\x9a\x86\xb6\xea\xb7WA'
p3028
tp3029
Rp3030
sg311
g301
(g305
S'\x92W\xe7(\xdb\xed\x9fA'
p3031
tp3032
Rp3033
sg315
g301
(g305
S'5I_\xfd\x08\xd1\x13A'
p3034
tp3035
Rp3036
sg319
g301
(g305
S'b\xa9p\x10\x8a\xb6\x92@'
p3037
tp3038
Rp3039
sa(dp3040
g300
g301
(g305
S'\xe2Eu\x8f\xe5\x06>B'
p3041
tp3042
Rp3043
sg311
g301
(g305
S'\x11\x0e\xef\x9d\xc2\x00\x85B'
p3044
tp3045
Rp3046
sg315
g301
(g305
S'\x0fU\xbb|\xd6\x81\xf5A'
p3047
tp3048
Rp3049
sg319
g301
(g305
S'\xaag\xdd\x9f\x1f\xc2\x92@'
p3050
tp3051
Rp3052
sa(dp3053
g300
g301
(g305
S'\xee$\x8d\x9b(\xd7\xfbA'
p3054
tp3055
Rp3056
sg311
g301
(g305
S';<\xae3.yCB'
p3057
tp3058
Rp3059
sg315
g301
(g305
S'I?\xb1|c\xf1\xb3A'
p3060
tp3061
Rp3062
sg319
g301
(g305
S'x\x8aq=\xa9\xac\x92@'
p3063
tp3064
Rp3065
sa(dp3066
g300
g301
(g305
S'S\xa9h)\xcd\x18}A'
p3067
tp3068
Rp3069
sg311
g301
(g305
S'\x82\x844rT*\xc4A'
p3070
tp3071
Rp3072
sg315
g301
(g305
S'\xaa\xab2`\xfb\xd16A'
p3073
tp3074
Rp3075
sg319
g301
(g305
S'\xee\xeaea\xb5\xbb\x92@'
p3076
tp3077
Rp3078
sa(dp3079
g300
g301
(g305
S'\x92\x84\xad\xc2\x0b\x88fA'
p3080
tp3081
Rp3082
sg311
g301
(g305
S'R\x8e\x12\x03\x9a\xf5\xaeA'
p3083
tp3084
Rp3085
sg315
g301
(g305
S'\n\x0e\xe0\xc2\xbcj!A'
p3086
tp3087
Rp3088
sg319
g301
(g305
S'\x85\x02(\x9e\x9a\xaf\x92@'
p3089
tp3090
Rp3091
sa(dp3092
g300
g301
(g305
S'\x9f\x9f.\r\x0eutB'
p3093
tp3094
Rp3095
sg311
g301
(g305
S'-\xb8\xd4\x00V\x9e\xbcB'
p3096
tp3097
Rp3098
sg315
g301
(g305
S'J\x85$\xca,N-B'
p3099
tp3100
Rp3101
sg319
g301
(g305
S'\xf8&>0\xc9\xc5\x92@'
p3102
tp3103
Rp3104
sa(dp3105
g300
g301
(g305
S'\xdf!\x0c1\xba;sA'
p3106
tp3107
Rp3108
sg311
g301
(g305
S'`\x90\xce8S\xc8\xbaA'
p3109
tp3110
Rp3111
sg315
g301
(g305
S'\xf8\xc8m1\xfd\xa0,A'
p3112
tp3113
Rp3114
sg319
g301
(g305
S'\xc7\x87U\xc8Y\xc4\x92@'
p3115
tp3116
Rp3117
sa(dp3118
g300
g301
(g305
S':1q\x80\xa59\xceA'
p3119
tp3120
Rp3121
sg311
g301
(g305
S'4\xbbF]9#\x15B'
p3122
tp3123
Rp3124
sg315
g301
(g305
S'J\xfd\xa3-\xbb\xaa\x85A'
p3125
tp3126
Rp3127
sg319
g301
(g305
S'g\\\x1e<|\xc8\x92@'
p3128
tp3129
Rp3130
sa(dp3131
g300
g301
(g305
S'\x83\xa4|\x06\xfeO\x7fA'
p3132
tp3133
Rp3134
sg311
g301
(g305
S'\x80"\xeeCt\xd1\xc5A'
p3135
tp3136
Rp3137
sg315
g301
(g305
S'\x02\xe9\x8c\xd6\xb7\xfe6A'
p3138
tp3139
Rp3140
sg319
g301
(g305
S'?\xdd\xab{\x05\xc6\x92@'
p3141
tp3142
Rp3143
sa(dp3144
g300
g301
(g305
S'\x8c\xa1\xb3\x96\x9dnBA'
p3145
tp3146
Rp3147
sg311
g301
(g305
S'\x1f\xc6\xf3\x08\x12\x02\x89A'
p3148
tp3149
Rp3150
sg315
g301
(g305
S'\x06h6]HW\x00A'
p3151
tp3152
Rp3153
sg319
g301
(g305
S'\xab\x07\xfdv;\xc1\x92@'
p3154
tp3155
Rp3156
sa(dp3157
g300
g301
(g305
S'\xedU\xd4y\x7f\x90\x9eA'
p3158
tp3159
Rp3160
sg311
g301
(g305
S'2ptNt_\xe5A'
p3161
tp3162
Rp3163
sg315
g301
(g305
S'\xcai\xf1\x9c\x83\x0cVA'
p3164
tp3165
Rp3166
sg319
g301
(g305
S'&\x98N\xa7\xce\xc8\x92@'
p3167
tp3168
Rp3169
sa(dp3170
g300
g301
(g305
S'\xeeH\x8f\xe3I\xbepA'
p3171
tp3172
Rp3173
sg311
g301
(g305
S'\xee\x0b\xf7\xe1\x15\xd4\xb6A'
p3174
tp3175
Rp3176
sg315
g301
(g305
S'M|\t\x14\xc3N,A'
p3177
tp3178
Rp3179
sg319
g301
(g305
S'm\x99\xb8\xcar\xb4\x92@'
p3180
tp3181
Rp3182
sa(dp3183
g300
g301
(g305
S'e\x8a\x9b\xa7\x80\x96OA'
p3184
tp3185
Rp3186
sg311
g301
(g305
S'\x82v\x82\x07\xa8\xb2\x95A'
p3187
tp3188
Rp3189
sg315
g301
(g305
S'\xe0e\x03\x12\x04\x1b\x0cA'
p3190
tp3191
Rp3192
sg319
g301
(g305
S'\xde\x99\x03\xb8\x15\xcf\x92@'
p3193
tp3194
Rp3195
sa(dp3196
g300
g301
(g305
S'\xbb\x1c\xc8\xc4\xc0M?A'
p3197
tp3198
Rp3199
sg311
g301
(g305
S'\xa7\x04\xa4\xca_\xdb\x82A'
p3200
tp3201
Rp3202
sg315
g301
(g305
S'\xb2wN\x87\xe3T\x00A'
p3203
tp3204
Rp3205
sg319
g301
(g305
S'\xac\xb7\xc6:\x8b\xd3\x92@'
p3206
tp3207
Rp3208
sa(dp3209
g300
g301
(g305
S'>:\xa8\x9eX\xcc\x9cA'
p3210
tp3211
Rp3212
sg311
g301
(g305
S'z9\x0ct\xae\x1d\xe4A'
p3213
tp3214
Rp3215
sg315
g301
(g305
S'\x8a\x0e\xd3\xa3S\xc6TA'
p3216
tp3217
Rp3218
sg319
g301
(g305
S'iohw\x85\xca\x92@'
p3219
tp3220
Rp3221
sa(dp3222
g300
g301
(g305
S'B\x13S3\x83\xe9\xacA'
p3223
tp3224
Rp3225
sg311
g301
(g305
S'\xcaN"\x8b\xb56\xf4A'
p3226
tp3227
Rp3228
sg315
g301
(g305
S'\xcf\xd0\xfe&\x92\x07eA'
p3229
tp3230
Rp3231
sg319
g301
(g305
S'h\x0fE~\x08\xbd\x92@'
p3232
tp3233
Rp3234
sa(dp3235
g300
g301
(g305
S'F\x89\xf0\xce6\x9d\xc6A'
p3236
tp3237
Rp3238
sg311
g301
(g305
S'P\x11a\x00[\xa2\x0fB'
p3239
tp3240
Rp3241
sg315
g301
(g305
S'\xe3\xd8\xd2E\xcc6\x80A'
p3242
tp3243
Rp3244
sg319
g301
(g305
S'\xbe%W2\xf3\xd4\x92@'
p3245
tp3246
Rp3247
sa(dp3248
g300
g301
(g305
S'4\x946D\t\\\xe6A'
p3249
tp3250
Rp3251
sg311
g301
(g305
S'\x8d\xad\xdc\xc9\xaeF/B'
p3252
tp3253
Rp3254
sg315
g301
(g305
S'\x9e\x17\xcd*@\x07\xa0A'
p3255
tp3256
Rp3257
sg319
g301
(g305
S'%&c\x07\xf7\xb7\x92@'
p3258
tp3259
Rp3260
sa(dp3261
g300
g301
(g305
S'\xc3\xf5\x0e\x00\x14l A'
p3262
tp3263
Rp3264
sg311
g301
(g305
S'9\xd4["\xdf\x9fbA'
p3265
tp3266
Rp3267
sg315
g301
(g305
S'\xe5\x14O\xbe.\xe2\xea@'
p3268
tp3269
Rp3270
sg319
g301
(g305
S'\xeb\xf8\xd8\xc9#\xa8\x92@'
p3271
tp3272
Rp3273
sa(dp3274
g300
g301
(g305
S'>\xa1\tF\xb2gmA'
p3275
tp3276
Rp3277
sg311
g301
(g305
S'\xb8X\xde\\\xf1K\xb4A'
p3278
tp3279
Rp3280
sg315
g301
(g305
S'\xbd\xed\x13\x83\xe7S&A'
p3281
tp3282
Rp3283
sg319
g301
(g305
S'\xb2\x1e\x1d\xdf\xc5\x9f\x92@'
p3284
tp3285
Rp3286
sa(dp3287
g300
g301
(g305
S'\xf6\x8a`\xe4\xf3\x81kA'
p3288
tp3289
Rp3290
sg311
g301
(g305
S'j\x98\xdc\xb5\x8b\x1b\xb3A'
p3291
tp3292
Rp3293
sg315
g301
(g305
S'\xc6\xa6P\xc4^!%A'
p3294
tp3295
Rp3296
sg319
g301
(g305
S'\x94c\x1f\xf5@\xaa\x92@'
p3297
tp3298
Rp3299
sa(dp3300
g300
g301
(g305
S'\xae\x16\xcf.\x86\x04\x92A'
p3301
tp3302
Rp3303
sg311
g301
(g305
S'\x12\x19\xc0Oh*\xd9A'
p3304
tp3305
Rp3306
sg315
g301
(g305
S'\xf0]\xad\x91\xfc:JA'
p3307
tp3308
Rp3309
sg319
g301
(g305
S'\xb0\xd6C\x90.\xa4\x92@'
p3310
tp3311
Rp3312
sa(dp3313
g300
g301
(g305
S'\x16`\xce\xfc\xde{\xb3A'
p3314
tp3315
Rp3316
sg311
g301
(g305
S'\xb6\xa1F\xfb\xb9>\xfbA'
p3317
tp3318
Rp3319
sg315
g301
(g305
S'\x95_\x10\x0c!\x1flA'
p3320
tp3321
Rp3322
sg319
g301
(g305
S'#R87t\xb5\x92@'
p3323
tp3324
Rp3325
sa(dp3326
g300
g301
(g305
S'\x00o2\xaa\xce\x8c\xdbA'
p3327
tp3328
Rp3329
sg311
g301
(g305
S'\xa5\xa4,\xae\xfaD#B'
p3330
tp3331
Rp3332
sg315
g301
(g305
S'\xab\x17c\x98\xe1\xbe\x93A'
p3333
tp3334
Rp3335
sg319
g301
(g305
S'\xbc*Z\x9e\x16\xa5\x92@'
p3336
tp3337
Rp3338
sa(dp3339
g300
g301
(g305
S'J\xec\xb11\xea\x8f\x88B'
p3340
tp3341
Rp3342
sg311
g301
(g305
S'N\xfd?\xdf6.\xd1B'
p3343
tp3344
Rp3345
sg315
g301
(g305
S'\xda~\x16\x08\xc6\x97AB'
p3346
tp3347
Rp3348
sg319
g301
(g305
S'\x8c\x99\x8e\x05F\xab\x92@'
p3349
tp3350
Rp3351
sa(dp3352
g300
g301
(g305
S'DZT.\xf6\xf6vA'
p3353
tp3354
Rp3355
sg311
g301
(g305
S'\xda\xb0\x99V\xb2\x05\xc0A'
p3356
tp3357
Rp3358
sg315
g301
(g305
S'\x07\xc7l\xa8p(1A'
p3359
tp3360
Rp3361
sg319
g301
(g305
S'"\xe0\x08^W\xaf\x92@'
p3362
tp3363
Rp3364
sa(dp3365
g300
g301
(g305
S'J\xf2c\x99m\xc2\xb0A'
p3366
tp3367
Rp3368
sg311
g301
(g305
S'\x12\xfb\xedw?o\xf7A'
p3369
tp3370
Rp3371
sg315
g301
(g305
S'\x00\x0cH\xfd\xdb\x19hA'
p3372
tp3373
Rp3374
sg319
g301
(g305
S'JY\xba*\x84\xac\x92@'
p3375
tp3376
Rp3377
sa(dp3378
g300
g301
(g305
S"d\xb5%\x9d'\xc3fA"
p3379
tp3380
Rp3381
sg311
g301
(g305
S'*\xceZ\xa0}\xb6\xafA'
p3382
tp3383
Rp3384
sg315
g301
(g305
S'L\x9fW-A\xd1 A'
p3385
tp3386
Rp3387
sg319
g301
(g305
S'\x1aHo\x88b\xa6\x92@'
p3388
tp3389
Rp3390
sa(dp3391
g300
g301
(g305
S'\xd1\\H\xb7\xfe\xf37B'
p3392
tp3393
Rp3394
sg311
g301
(g305
S'\x8cR"\x8e(\xc1\x80B'
p3395
tp3396
Rp3397
sg315
g301
(g305
S'\xd9\xbf\xe9\x94V3\xf1A'
p3398
tp3399
Rp3400
sg319
g301
(g305
S'\xc0_\xd4\xf9\xbf\xc8\x92@'
p3401
tp3402
Rp3403
sa(dp3404
g300
g301
(g305
S'\x8b\x89_\xc7&\xd5=B'
p3405
tp3406
Rp3407
sg311
g301
(g305
S't\xba-\xb4\xf6\xdd\x84B'
p3408
tp3409
Rp3410
sg315
g301
(g305
S'7\xd5\xd3\x1a<^\xf5A'
p3411
tp3412
Rp3413
sg319
g301
(g305
S'\xdaO?\xf5\xc4\xbe\x92@'
p3414
tp3415
Rp3416
sa(dp3417
g300
g301
(g305
S'#2l\x91\x8dj&A'
p3418
tp3419
Rp3420
sg311
g301
(g305
S'\x98\xb8\x86\xe5h\x1bfA'
p3421
tp3422
Rp3423
sg315
g301
(g305
S'j\xffe.vB\xf1@'
p3424
tp3425
Rp3426
sg319
g301
(g305
S'*\x9b\x07nJ\xaf\x92@'
p3427
tp3428
Rp3429
sa(dp3430
g300
g301
(g305
S'\xe8Tkh\xeb\xfd\x9bA'
p3431
tp3432
Rp3433
sg311
g301
(g305
S'\xe94uW\xd6\xdd\xe2A'
p3434
tp3435
Rp3436
sg315
g301
(g305
S'\x12Gu\xf2\xa7\xeeWA'
p3437
tp3438
Rp3439
sg319
g301
(g305
S'\xa5RF\x90\x95\xbc\x92@'
p3440
tp3441
Rp3442
sa(dp3443
g300
g301
(g305
S'\xec8yO\xba\xad\xd0A'
p3444
tp3445
Rp3446
sg311
g301
(g305
S'4?\xe8l\xadT\x17B'
p3447
tp3448
Rp3449
sg315
g301
(g305
S'\x82\x19Wxz\xef\x87A'
p3450
tp3451
Rp3452
sg319
g301
(g305
S'\xcf\xa2\x8d\x0c\x0b\xb3\x92@'
p3453
tp3454
Rp3455
sa(dp3456
g300
g301
(g305
S'\xf7\x8cB\x03V\xf4\xb7A'
p3457
tp3458
Rp3459
sg311
g301
(g305
S'_\x1f\x0eXb\xc0\x00B'
p3460
tp3461
Rp3462
sg315
g301
(g305
S'\x89\xdb\xe0\x91O9qA'
p3463
tp3464
Rp3465
sg319
g301
(g305
S'\x1d\xe6\x96\x9a6\xa9\x92@'
p3466
tp3467
Rp3468
sa(dp3469
g300
g301
(g305
S'\xce\x034a\xa5y\xe8A'
p3470
tp3471
Rp3472
sg311
g301
(g305
S'\xef\xd1\n\rY\x121B'
p3473
tp3474
Rp3475
sg315
g301
(g305
S'\xbe\xf7J5u\x9c\xa1A'
p3476
tp3477
Rp3478
sg319
g301
(g305
S'\xa8\xf7?\x03F\xa4\x92@'
p3479
tp3480
Rp3481
sa(dp3482
g300
g301
(g305
S'p\xddJ\xc8:\x07\x86A'
p3483
tp3484
Rp3485
sg311
g301
(g305
S'\xb07\xfd\x96\x90\xb0\xceA'
p3486
tp3487
Rp3488
sg315
g301
(g305
S'{\xe99\xe3\xd9&@A'
p3489
tp3490
Rp3491
sg319
g301
(g305
S'B\xcc\xe4\xc8X\x83\x92@'
p3492
tp3493
Rp3494
sa(dp3495
g300
g301
(g305
S'\xbc\x1dH\xfc2\x85\xb1A'
p3496
tp3497
Rp3498
sg311
g301
(g305
S'7`/\xb0\x82\x80\xf8A'
p3499
tp3500
Rp3501
sg315
g301
(g305
S'>\x06\x11\xe3\xd2miA'
p3502
tp3503
Rp3504
sg319
g301
(g305
S'\x14@\x0f\r\xacw\x92@'
p3505
tp3506
Rp3507
sa(dp3508
g300
g301
(g305
S'\xf8\x91\xbe\xc2;\xe2,B'
p3509
tp3510
Rp3511
sg311
g301
(g305
S'\x8dF\xd8\xe9\n4tB'
p3512
tp3513
Rp3514
sg315
g301
(g305
S'sT9\xd2N\xb0\xe4A'
p3515
tp3516
Rp3517
sg319
g301
(g305
S'G;\xd3\x15\xa4z\x92@'
p3518
tp3519
Rp3520
sa(dp3521
g300
g301
(g305
S'"\xbc(\xf1N\xf7iA'
p3522
tp3523
Rp3524
sg311
g301
(g305
S'U\x10?\x12.\xfa\xb1A'
p3525
tp3526
Rp3527
sg315
g301
(g305
S'\x9aI0k@\xc4#A'
p3528
tp3529
Rp3530
sg319
g301
(g305
S'>a\xb3z\xba]\x92@'
p3531
tp3532
Rp3533
sa(dp3534
g300
g301
(g305
S'\x1b2/\x05\xaf\xacuB'
p3535
tp3536
Rp3537
sg311
g301
(g305
S'KJ\xb9AIR\xbeB'
p3538
tp3539
Rp3540
sg315
g301
(g305
S'*\x1a\xcf\xd5\x96\x0c/B'
p3541
tp3542
Rp3543
sg319
g301
(g305
S'\x8b\x92\n\xdbC^\x92@'
p3544
tp3545
Rp3546
sa(dp3547
g300
g301
(g305
S'\xce\x8e\xa0\xe7\r\x9e=B'
p3548
tp3549
Rp3550
sg311
g301
(g305
S'"\x0c\xc7\x9e\xf3\xb0\x84B'
p3551
tp3552
Rp3553
sg315
g301
(g305
S'\x10\xfe35\x9eG\xf6A'
p3554
tp3555
Rp3556
sg319
g301
(g305
S'\xa3P?\x02Mr\x92@'
p3557
tp3558
Rp3559
sa(dp3560
g300
g301
(g305
S'\xe6\xcc\xc6"\xbdN~A'
p3561
tp3562
Rp3563
sg311
g301
(g305
S'\xe3\xe3m\x0b\xf3\x12\xc5A'
p3564
tp3565
Rp3566
sg315
g301
(g305
S'\x86u \xd2&\xa87A'
p3567
tp3568
Rp3569
sg319
g301
(g305
S'\x82\x11h\xc8\x8fa\x92@'
p3570
tp3571
Rp3572
sa(dp3573
g300
g301
(g305
S'f\xafu\xd6\x00\x9eZA'
p3574
tp3575
Rp3576
sg311
g301
(g305
S'\x8fw\xec2w\xc3\xa1A'
p3577
tp3578
Rp3579
sg315
g301
(g305
S'\x01:\x10\x0f\xc0\xda\x16A'
p3580
tp3581
Rp3582
sg319
g301
(g305
S'\xf2W\xff;\x01\x83\x92@'
p3583
tp3584
Rp3585
sa(dp3586
g300
g301
(g305
S'\x85\x8c+@e\x10\x88A'
p3587
tp3588
Rp3589
sg311
g301
(g305
S'm\xf7Lrk\xd3\xd0A'
p3590
tp3591
Rp3592
sg315
g301
(g305
S':>Z\x1d\xd8\xe0AA'
p3593
tp3594
Rp3595
sg319
g301
(g305
S'\x8aU\x06v\xdb\x94\x92@'
p3596
tp3597
Rp3598
sa(dp3599
g300
g301
(g305
S'2.>H\x8d"rA'
p3600
tp3601
Rp3602
sg311
g301
(g305
S'0\x12f\xe7\x12R\xb9A'
p3603
tp3604
Rp3605
sg315
g301
(g305
S'\xdeeo\x0fn\t+A'
p3606
tp3607
Rp3608
sg319
g301
(g305
S'\xaf|\x0b\x7f\xda\x95\x92@'
p3609
tp3610
Rp3611
sa(dp3612
g300
g301
(g305
S'\xe5\xf2!\xa8\x8dC\xc2A'
p3613
tp3614
Rp3615
sg311
g301
(g305
S'B\xefJs\xbf\x8c\tB'
p3616
tp3617
Rp3618
sg315
g301
(g305
S'+6\xe9\xe4j>zA'
p3619
tp3620
Rp3621
sg319
g301
(g305
S'\xdd\x8c_l\xf4\x86\x92@'
p3622
tp3623
Rp3624
sa(dp3625
g300
g301
(g305
S'{fz\x13\x1e\x9c\xfeA'
p3626
tp3627
Rp3628
sg311
g301
(g305
S'\xc6\xa5\x8b\x17\xb0<EB'
p3629
tp3630
Rp3631
sg315
g301
(g305
S'\xa6\xbe\xe5\xd8\xdf\xc1\xb8A'
p3632
tp3633
Rp3634
sg319
g301
(g305
S'\x86Z\xba\xb7\xb7\x86\x92@'
p3635
tp3636
Rp3637
sa(dp3638
g300
g301
(g305
S'n\xd4\xd5\xfd\xec*\xa7A'
p3639
tp3640
Rp3641
sg311
g301
(g305
S'v\x1b\xbc\xa6\xa8*\xf0A'
p3642
tp3643
Rp3644
sg315
g301
(g305
S'\xfe\xc5H\xeb/\xbe`A'
p3645
tp3646
Rp3647
sg319
g301
(g305
S'\xa2\xa7T\x8c\xe3x\x92@'
p3648
tp3649
Rp3650
sa(dp3651
g300
g301
(g305
S'\xc8m^HZo\x07B'
p3652
tp3653
Rp3654
sg311
g301
(g305
S'\n\xfc\x00Q9dPB'
p3655
tp3656
Rp3657
sg315
g301
(g305
S'\x93a\xb6u\xca\xc9\xc0A'
p3658
tp3659
Rp3660
sg319
g301
(g305
S'\x054\xd0V_i\x92@'
p3661
tp3662
Rp3663
sa(dp3664
g300
g301
(g305
S'\x16~\xed\x1c\xf1?vA'
p3665
tp3666
Rp3667
sg311
g301
(g305
S'~B|dC\xfb\xbeA'
p3668
tp3669
Rp3670
sg315
g301
(g305
S'>\xda1\x0ci\xbc0A'
p3671
tp3672
Rp3673
sg319
g301
(g305
S'\xca\x93\x8d~\tZ\x92@'
p3674
tp3675
Rp3676
sa(dp3677
g300
g301
(g305
S'b\xd5\xfb/\xc2\x05\xe3A'
p3678
tp3679
Rp3680
sg311
g301
(g305
S'+\\<1\xe6\x99*B'
p3681
tp3682
Rp3683
sg315
g301
(g305
S'\x00p\xc9t\xe7N\x9bA'
p3684
tp3685
Rp3686
sg319
g301
(g305
S'\x1c\xbf!\x07\xfd]\x92@'
p3687
tp3688
Rp3689
sa(dp3690
g300
g301
(g305
S'@\xe9\x99\x8a\xba\xf2\xedA'
p3691
tp3692
Rp3693
sg311
g301
(g305
S'\xe2j\xff\xffw\xf24B'
p3694
tp3695
Rp3696
sg315
g301
(g305
S'j>^\xdd\xec\x87\xa5A'
p3697
tp3698
Rp3699
sg319
g301
(g305
S'Zi\x984\xe5W\x92@'
p3700
tp3701
Rp3702
sa(dp3703
g300
g301
(g305
S'e\xa0-\xf1i\xfe\xabA'
p3704
tp3705
Rp3706
sg311
g301
(g305
S'\xe2\x8d+\xa6\x12\x82\xf3A'
p3707
tp3708
Rp3709
sg315
g301
(g305
S'\n\x15\x97\x18\x88HdA'
p3710
tp3711
Rp3712
sg319
g301
(g305
S'n\xdd\x92Rdn\x92@'
p3713
tp3714
Rp3715
sa(dp3716
g300
g301
(g305
S'29P#\x00{eA'
p3717
tp3718
Rp3719
sg311
g301
(g305
S'\n\xa3S\xd3\xa5\xb2\xacA'
p3720
tp3721
Rp3722
sg315
g301
(g305
S'O\n\x10ag.$A'
p3723
tp3724
Rp3725
sg319
g301
(g305
S'\xefC\x13\xbb\x97d\x92@'
p3726
tp3727
Rp3728
sa(dp3729
g300
g301
(g305
S'\xe2\xa5P~\xb4v\xfeA'
p3730
tp3731
Rp3732
sg311
g301
(g305
S'\xeb\xddU\x14\xdcNEB'
p3733
tp3734
Rp3735
sg315
g301
(g305
S'\xfb0]\x0e\xff\xd3\xb5A'
p3736
tp3737
Rp3738
sg319
g301
(g305
S'A\xe0\xaam\xf0i\x92@'
p3739
tp3740
Rp3741
sa(dp3742
g300
g301
(g305
S'\x82\xf33{\xfb_\xebA'
p3743
tp3744
Rp3745
sg311
g301
(g305
S'\xed\xf4\xa4%\xda%3B'
p3746
tp3747
Rp3748
sg315
g301
(g305
S'T\xb6P\xfdy\xa0\xa3A'
p3749
tp3750
Rp3751
sg319
g301
(g305
S'}\x95,M\x82r\x92@'
p3752
tp3753
Rp3754
sa(dp3755
g300
g301
(g305
S'\xa0\xaf{/\x16\x01+B'
p3756
tp3757
Rp3758
sg311
g301
(g305
S'&G-\xbb\x1c\xe3rB'
p3759
tp3760
Rp3761
sg315
g301
(g305
S'\xd2\xc0\x9au\xa8\xa0\xe3A'
p3762
tp3763
Rp3764
sg319
g301
(g305
S'\xae\xb7kX\x13l\x92@'
p3765
tp3766
Rp3767
sa(dp3768
g300
g301
(g305
S'*B\xc9\xe3\x03R_A'
p3769
tp3770
Rp3771
sg311
g301
(g305
S'H@\xc6e\xa7\xbe\xa5A'
p3772
tp3773
Rp3774
sg315
g301
(g305
S'\x9e\x1c\xb0\xef*\xa5\x19A'
p3775
tp3776
Rp3777
sg319
g301
(g305
S'W\x19%o\xbcj\x92@'
p3778
tp3779
Rp3780
sa(dp3781
g300
g301
(g305
S'\x94]\xb9W|\xf0\xd1A'
p3782
tp3783
Rp3784
sg311
g301
(g305
S'\xba4\x0f\x8f2\x18\x19B'
p3785
tp3786
Rp3787
sg315
g301
(g305
S'\x08\xb6\x8bf\xf7\xc0\x89A'
p3788
tp3789
Rp3790
sg319
g301
(g305
S'\xbfl\x98\x95\xf4e\x92@'
p3791
tp3792
Rp3793
sa(dp3794
g300
g301
(g305
S'.)o\xa4\x9f\xe2DA'
p3795
tp3796
Rp3797
sg311
g301
(g305
S'\xa6\xf67\x81\xb3\x11\x85A'
p3798
tp3799
Rp3800
sg315
g301
(g305
S'O{\xda\xc7\x9c\x9e\x07A'
p3801
tp3802
Rp3803
sg319
g301
(g305
S'L\xe38\x15\x8aj\x92@'
p3804
tp3805
Rp3806
sa(dp3807
g300
g301
(g305
S'\xca@\x8f\x85/\xb4KA'
p3808
tp3809
Rp3810
sg311
g301
(g305
S']4\r\xceW\xdd\x92A'
p3811
tp3812
Rp3813
sg315
g301
(g305
S'\x9d\xcd\\vW\xf5\x06A'
p3814
tp3815
Rp3816
sg319
g301
(g305
S'@]\tv\xd8g\x92@'
p3817
tp3818
Rp3819
sa(dp3820
g300
g301
(g305
S'g\xa3\xb5\x85\x99!\xe9A'
p3821
tp3822
Rp3823
sg311
g301
(g305
S'\x05\xb8\xe8\xcc\x06\x941B'
p3824
tp3825
Rp3826
sg315
g301
(g305
S'\xc6t\\\xa7\xfa\x00\xa2A'
p3827
tp3828
Rp3829
sg319
g301
(g305
S'P\x94\xfb\xc8\x1f\\\x92@'
p3830
tp3831
Rp3832
sa(dp3833
g300
g301
(g305
S"g\x1f\xef\xe1'b\xb7B"
p3834
tp3835
Rp3836
sg311
g301
(g305
S'6\x0bM\x8b$[\x00C'
p3837
tp3838
Rp3839
sg315
g301
(g305
S'\xb6A?\xda\xa3\xbfpB'
p3840
tp3841
Rp3842
sg319
g301
(g305
S'\x8f\xec\xfc\xb4\x7fi\x92@'
p3843
tp3844
Rp3845
sa(dp3846
g300
g301
(g305
S'>\x9c@\xf4~\x96\xe6A'
p3847
tp3848
Rp3849
sg311
g301
(g305
S'\xc6s\xeb8\xb7U.B'
p3850
tp3851
Rp3852
sg315
g301
(g305
S"\xa9\x12\x13\x9b'!\xa4A"
p3853
tp3854
Rp3855
sg319
g301
(g305
S'\x02\x10\xbb\\\x05O\x92@'
p3856
tp3857
Rp3858
sa(dp3859
g300
g301
(g305
S'\xcb;\xd9\x19*b\xb7B'
p3860
tp3861
Rp3862
sg311
g301
(g305
S'\xb1\\\x18\x19&[\x00C'
p3863
tp3864
Rp3865
sg315
g301
(g305
S'\xca\xc8m\x0c\xa4\xbfpB'
p3866
tp3867
Rp3868
sg319
g301
(g305
S'&w\xca\xc9\x05g\x92@'
p3869
tp3870
Rp3871
sa(dp3872
g300
g301
(g305
S'n/P\xbc\xad\xea\xbaB'
p3873
tp3874
Rp3875
sg311
g301
(g305
S'\xe2\xc5V\xa1$[\x00C'
p3876
tp3877
Rp3878
sg315
g301
(g305
S'f\xfc\x82I\xb5TzB'
p3879
tp3880
Rp3881
sg319
g301
(g305
S'>\x8d\x03K\xa3;\x92@'
p3882
tp3883
Rp3884
sa(dp3885
g300
g301
(g305
S'Q\xd6\xa1s<\xcc\x82A'
p3886
tp3887
Rp3888
sg311
g301
(g305
S'EjH\xb4s2\xcaA'
p3889
tp3890
Rp3891
sg315
g301
(g305
S'\x85Jf\x9a!y;A'
p3892
tp3893
Rp3894
sg319
g301
(g305
S'A\xde\x1d\x91|X\x92@'
p3895
tp3896
Rp3897
sa(dp3898
g300
g301
(g305
S'\xf9Z@\xad\x0e\x81\xf4A'
p3899
tp3900
Rp3901
sg311
g301
(g305
S'\x87D\xeb\x86 \xaf<B'
p3902
tp3903
Rp3904
sg315
g301
(g305
S'\x13\xc1\t\xda\x7fj\xadA'
p3905
tp3906
Rp3907
sg319
g301
(g305
S'\x91\xdb\x15\x03v\xf1\x91@'
p3908
tp3909
Rp3910
sa(dp3911
g300
g301
(g305
S'I\xba$B\xaf\t5A'
p3912
tp3913
Rp3914
sg311
g301
(g305
S'\xe9\x8bZE\x9dKzA'
p3915
tp3916
Rp3917
sg315
g301
(g305
S'\x16\xc4(\xe3\x16\xff\xf2@'
p3918
tp3919
Rp3920
sg319
g301
(g305
S'\x19\xe9\x03;\xd1\xbd\x91@'
p3921
tp3922
Rp3923
sa(dp3924
g300
g301
(g305
S'0\xfd\x188]\x14.A'
p3925
tp3926
Rp3927
sg311
g301
(g305
S'JA\xc8+\xe6\xa9rA'
p3928
tp3929
Rp3930
sg315
g301
(g305
S'\xa6r\x1e\x0b\x88\xa2\xee@'
p3931
tp3932
Rp3933
sg319
g301
(g305
S'&\x82\xc3\x04o\xd4\x91@'
p3934
tp3935
Rp3936
sa(dp3937
g300
g301
(g305
S'3\xa8Jq\x99u\xb5@'
p3938
tp3939
Rp3940
sg311
g301
(g305
S'\xb4\x02V\x97\xb1\x1b\xfe@'
p3941
tp3942
Rp3943
sg315
g301
(g305
S'\xfc\x83\xc3\xd8L\xdd\x9e@'
p3944
tp3945
Rp3946
sg319
g301
(g305
S"\xc7'm_\xb0\xfd\x93@"
p3947
tp3948
Rp3949
satp3950
Rp3951
(dp3952
g289
I01
sg290
Nsg291
Nsg292
I0
sg293
g294
(g1
tp3953
Rp3954
sbsS'size'
p3955
g0
(g1
g2
(lp3956
(dp3957
g300
g301
(g305
S'\xf8&C\x10\xc0\x116@'
p3958
tp3959
Rp3960
sg311
F145.6
sg315
g301
(g305
S'Rk\x9aw\x9c\x82+@'
p3961
tp3962
Rp3963
sg319
F2.0
sa(dp3964
g300
g301
(g305
S'\x1b\xf8]S\xbb8.@'
p3965
tp3966
Rp3967
sg311
F111.5
sg315
g301
(g305
S'\x13\xd0D\xd8\xf04#@'
p3968
tp3969
Rp3970
sg319
F1.0
sa(dp3971
g300
g301
(g305
S'&\xe1\x1f_\xf19(@'
p3972
tp3973
Rp3974
sg311
F85.1
sg315
g301
(g305
S'\xe2X\x17\xb7\xd1\xe0 @'
p3975
tp3976
Rp3977
sg319
F1.0
sa(dp3978
g300
g301
(g305
S'\xd5C\x8d\xd85@%@'
p3979
tp3980
Rp3981
sg311
F75.85
sg315
g301
(g305
S'\xf6\xe4a\xa1\xd6\x94 @'
p3982
tp3983
Rp3984
sg319
F1.05
sa(dp3985
g300
g301
(g305
S'\x9d\xce?yPX"@'
p3986
tp3987
Rp3988
sg311
F67.95
sg315
g301
(g305
S']\xdcF\x03x+ @'
p3989
tp3990
Rp3991
sg319
F1.0
sa(dp3992
g300
g301
(g305
S'U\xa4\x969(=\x1f@'
p3993
tp3994
Rp3995
sg311
F54.75
sg315
g301
(g305
S'\x80\xfb:p\xce\xc8\x1f@'
p3996
tp3997
Rp3998
sg319
F1.05
sa(dp3999
g300
g301
(g305
S'-m\x8d\xb8C\x11\x1c@'
p4000
tp4001
Rp4002
sg311
F50.8
sg315
g301
(g305
S'\xda=yX\xa85 @'
p4003
tp4004
Rp4005
sg319
F1.1
sa(dp4006
g300
g301
(g305
S'R`\x9f\x87\x0cS\x1b@'
p4007
tp4008
Rp4009
sg311
F45.0
sg315
g301
(g305
S'~\x1d8gD\xe9 @'
p4010
tp4011
Rp4012
sg319
F1.0
sa(dp4013
g300
g301
(g305
S'\xc2\x9fp\x91\x07\xbc\x1a@'
p4014
tp4015
Rp4016
sg311
F41.05
sg315
g301
(g305
S'\xe6?\xa4\xdf\xbe\xae!@'
p4017
tp4018
Rp4019
sg319
F1.3
sa(dp4020
g300
g301
(g305
S'\xb6\xdfT\xab\x1f1\x1a@'
p4021
tp4022
Rp4023
sg311
F39.85
sg315
g301
(g305
S'(\x0f\x0b\xb5\xa69"@'
p4024
tp4025
Rp4026
sg319
F1.1
sa(dp4027
g300
g301
(g305
S'\x98_\x96\x95\x91\xb6\x19@'
p4028
tp4029
Rp4030
sg311
F38.35
sg315
g301
(g305
S'\xaf\xe1\xe9\x95\xb2\x0c#@'
p4031
tp4032
Rp4033
sg319
F1.3
sa(dp4034
g300
g301
(g305
S' \x7f0\xd2\xc2\xe4\x19@'
p4035
tp4036
Rp4037
sg311
F38.05
sg315
g301
(g305
S'l\x9aw\x9c\xa2#$@'
p4038
tp4039
Rp4040
sg319
F1.2
sa(dp4041
g300
g301
(g305
S"u@'\x0f\x02M\x1a@"
p4042
tp4043
Rp4044
sg311
F40.55
sg315
g301
(g305
S'0L\xa6\nF%%@'
p4045
tp4046
Rp4047
sg319
F1.45
sa(dp4048
g300
g301
(g305
S'%\xb6\xae\x11ZH\x1b@'
p4049
tp4050
Rp4051
sg311
F41.95
sg315
g301
(g305
S'\xfd\x87\xf4\xdb\xd7a&@'
p4052
tp4053
Rp4054
sg319
F1.25
sa(dp4055
g300
g301
(g305
S'\xe5\xe8jQZ\x13\x1c@'
p4056
tp4057
Rp4058
sg311
F42.75
sg315
g301
(g305
S"\x0e\x02+\x87\x16\xd9'@"
p4059
tp4060
Rp4061
sg319
F1.35
sa(dp4062
g300
g301
(g305
S"\xb3\xab~t'\xf5\x1c@"
p4063
tp4064
Rp4065
sg311
F45.35
sg315
g301
(g305
S'\xcf\xaa\xcf\xd5VL)@'
p4066
tp4067
Rp4068
sg319
F1.25
sa(dp4069
g300
g301
(g305
S'@\x84\xf8\x13\xd0<\x1e@'
p4070
tp4071
Rp4072
sg311
F47.4
sg315
g301
(g305
S'\x8a\xb0\xe1\xe9\x95\x92*@'
p4073
tp4074
Rp4075
sg319
F1.3
sa(dp4076
g300
g301
(g305
S'B\x8c\xf8\x99\x86\xb6\x1f@'
p4077
tp4078
Rp4079
sg311
F48.15
sg315
g301
(g305
S'\xd2"\xdb\xf9~\xea+@'
p4080
tp4081
Rp4082
sg319
F1.55
sa(dp4083
g300
g301
(g305
S'\xe2\x07_\xcd{; @'
p4084
tp4085
Rp4086
sg311
F50.3
sg315
g301
(g305
S'@W[\xb1\xbf\xec,@'
p4087
tp4088
Rp4089
sg319
F1.6
sa(dp4090
g300
g301
(g305
S'l\xac/3\xcd\xf2 @'
p4091
tp4092
Rp4093
sg311
F53.9
sg315
g301
(g305
S'm\xc5\xfe\xb2{R.@'
p4094
tp4095
Rp4096
sg319
F1.4
sa(dp4097
g300
g301
(g305
S'};\xa2\xcb\rh!@'
p4098
tp4099
Rp4100
sg311
F56.55
sg315
g301
(g305
S'\xda\xf9~j\xbct/@'
p4101
tp4102
Rp4103
sg319
F1.35
sa(dp4104
g300
g301
(g305
S"+{'N\xea\xfe!@"
p4105
tp4106
Rp4107
sg311
F60.05
sg315
g301
(g305
S'\xaa\xf1\xd2Mb00@'
p4108
tp4109
Rp4110
sg319
F1.8
sa(dp4111
g300
g301
(g305
S'\xc3x\xc2G\x9dC#@'
p4112
tp4113
Rp4114
sg311
F61.8
sg315
g301
(g305
S'\xfd\xa9\xf1\xd2M\xf20@'
p4115
tp4116
Rp4117
sg319
F1.7
sa(dp4118
g300
g301
(g305
S'f\x8a\x96\xa7\x13\xd1#@'
p4119
tp4120
Rp4121
sg311
F64.25
sg315
g301
(g305
S's$\x97\xff\x90>1@'
p4122
tp4123
Rp4124
sg319
F1.3
sa(dp4125
g300
g301
(g305
S'\x82\xd5\xe5\x96Y\xa8$@'
p4126
tp4127
Rp4128
sg311
F65.45
sg315
g301
(g305
S'"\xfd\xf6u\xe0\xdc1@'
p4129
tp4130
Rp4131
sg319
F1.6
sa(dp4132
g300
g301
(g305
S'\nt\xea9G\x8d$@'
p4133
tp4134
Rp4135
sg311
F66.6
sg315
g301
(g305
S'\xab\xf1\xd2Mb\x002@'
p4136
tp4137
Rp4138
sg319
F1.95
sa(dp4139
g300
g301
(g305
S'd+x\xad\xa5\xde$@'
p4140
tp4141
Rp4142
sg311
F69.2
sg315
g301
(g305
S'\x9e\xcd\xaa\xcf\xd5F2@'
p4143
tp4144
Rp4145
sg319
F1.7
sa(dp4146
g300
g301
(g305
S'\x99\xdb\x9e\x8eH\x97%@'
p4147
tp4148
Rp4149
sg311
F67.95
sg315
g301
(g305
S'\x0e\x9c3\xa2\xb4\xf72@'
p4150
tp4151
Rp4152
sg319
F2.0
sa(dp4153
g300
g301
(g305
S'AOJ\xe0ly%@'
p4154
tp4155
Rp4156
sg311
F68.25
sg315
g301
(g305
S'\x81\x95C\x8bl\xf72@'
p4157
tp4158
Rp4159
sg319
F2.0
sa(dp4160
g300
g301
(g305
S'\xfdI\x839\x04\x9e%@'
p4161
tp4162
Rp4163
sg311
F69.2
sg315
g301
(g305
S"e\x19\xe2X\x17'3@"
p4164
tp4165
Rp4166
sg319
F1.95
sa(dp4167
g300
g301
(g305
S'Z7x\t\xb5\x03&@'
p4168
tp4169
Rp4170
sg311
F71.7
sg315
g301
(g305
S'_)\xcb\x10\xc7z3@'
p4171
tp4172
Rp4173
sg319
F1.6
sa(dp4174
g300
g301
(g305
S'i3\xa1z!.&@'
p4175
tp4176
Rp4177
sg311
F72.45
sg315
g301
(g305
S'\x12\x14?\xc6\xdc\x953@'
p4178
tp4179
Rp4180
sg319
F2.05
sa(dp4181
g300
g301
(g305
S'\xce\x87\xf2\xb5\xe0\xde&@'
p4182
tp4183
Rp4184
sg311
F74.75
sg315
g301
(g305
S'\xb6\xf3\xfd\xd4x\xc93@'
p4185
tp4186
Rp4187
sg319
F1.8
sa(dp4188
g300
g301
(g305
S'\xe5\x93\xf9\xb3\xa4\xde&@'
p4189
tp4190
Rp4191
sg311
F79.2
sg315
g301
(g305
S'Z\xf5\xb9\xda\x8a\xfd3@'
p4192
tp4193
Rp4194
sg319
F1.75
sa(dp4195
g300
g301
(g305
S"\xdf\x9e\xd7~\xfd='@"
p4196
tp4197
Rp4198
sg311
F80.5
sg315
g301
(g305
S'jM\xf3\x8eS$4@'
p4199
tp4200
Rp4201
sg319
F1.9
sa(dp4202
g300
g301
(g305
S"E\x15MP\xe6M'@"
p4203
tp4204
Rp4205
sg311
F79.1
sg315
g301
(g305
S'\xae\xd8_vO.4@'
p4206
tp4207
Rp4208
sg319
F2.0
sa(dp4209
g300
g301
(g305
S'\x13\xc2E$b\x1b(@'
p4210
tp4211
Rp4212
sg311
F81.25
sg315
g301
(g305
S')\\\x8f\xc2\xf5\x884@'
p4213
tp4214
Rp4215
sg319
F1.75
sa(dp4216
g300
g301
(g305
S"\x96g\xb0\xdc\x82\xb9'@"
p4217
tp4218
Rp4219
sg311
F85.0
sg315
g301
(g305
S'9\xb4\xc8v\xbe\x8f4@'
p4220
tp4221
Rp4222
sg319
F1.7
sa(dp4223
g300
g301
(g305
S"\xe8l\xdb\xa5\x11\xfa'@"
p4224
tp4225
Rp4226
sg311
F81.8
sg315
g301
(g305
S'jM\xf3\x8eS\xa44@'
p4227
tp4228
Rp4229
sg319
F1.9
sa(dp4230
g300
g301
(g305
S'\xeb\x1b\xc5\xb605(@'
p4231
tp4232
Rp4233
sg311
F82.7
sg315
g301
(g305
S'\xbc\xe3\x14\x1d\xc9\xd54@'
p4234
tp4235
Rp4236
sg319
F1.8
sa(dp4237
g300
g301
(g305
S'\xdeC\xa0b*\x1a(@'
p4238
tp4239
Rp4240
sg311
F82.45
sg315
g301
(g305
S'\xfa\xa0g\xb3\xea\xc34@'
p4241
tp4242
Rp4243
sg319
F1.95
sa(dp4244
g300
g301
(g305
S'o.\xe7\xfep3(@'
p4245
tp4246
Rp4247
sg311
F83.3
sg315
g301
(g305
S'\x93\x87\x85Z\xd3\xec4@'
p4248
tp4249
Rp4250
sg319
F1.7
sa(dp4251
g300
g301
(g305
S'\xb6\x04\xdd\xe7x\r(@'
p4252
tp4253
Rp4254
sg311
F84.05
sg315
g301
(g305
S'ZB>\xe8\xd9\x1c5@'
p4255
tp4256
Rp4257
sg319
F2.35
sa(dp4258
g300
g301
(g305
S'\xa9i\xb6\xcb;.(@'
p4259
tp4260
Rp4261
sg311
F82.05
sg315
g301
(g305
S'H\x0c\x02+\x87\x065@'
p4262
tp4263
Rp4264
sg319
F1.55
sa(dp4265
g300
g301
(g305
S'\xf6b\xbb\xde]\xa6(@'
p4266
tp4267
Rp4268
sg311
F79.9
sg315
g301
(g305
S'@\x82\xe2\xc7\x98+5@'
p4269
tp4270
Rp4271
sg319
F2.15
sa(dp4272
g300
g301
(g305
S'\xd8\xd5`AjY(@'
p4273
tp4274
Rp4275
sg311
F83.9
sg315
g301
(g305
S'\xfb~j\xbct\x035@'
p4276
tp4277
Rp4278
sg319
F1.5
sa(dp4279
g300
g301
(g305
S'\x81*-\x93\xbd\r(@'
p4280
tp4281
Rp4282
sg311
F83.8
sg315
g301
(g305
S'\xb2\xbf\xec\x9e<\x0c5@'
p4283
tp4284
Rp4285
sg319
F1.95
sa(dp4286
g300
g301
(g305
S'\x93M.\x0b\x0b\x08(@'
p4287
tp4288
Rp4289
sg311
F83.85
sg315
g301
(g305
S'\x95\x18\x04V\x0e\xfd4@'
p4290
tp4291
Rp4292
sg319
F2.0
sa(dp4293
g300
g301
(g305
S'\x7fa\xe2UOy(@'
p4294
tp4295
Rp4296
sg311
F82.55
sg315
g301
(g305
S'\x1fA\xf1c\xcc-5@'
p4297
tp4298
Rp4299
sg319
F2.0
sa(dp4300
g300
g301
(g305
S'\nG\x8a\xb1MJ(@'
p4301
tp4302
Rp4303
sg311
F81.05
sg315
g301
(g305
S'\x10X9\xb4\xc8\xd64@'
p4304
tp4305
Rp4306
sg319
F1.95
sa(dp4307
g300
g301
(g305
S'>R\x95\xca"\xff\'@'
p4308
tp4309
Rp4310
sg311
F82.35
sg315
g301
(g305
S'mxz\xa5,\xf34@'
p4311
tp4312
Rp4313
sg319
F1.25
sa(dp4314
g300
g301
(g305
S"\x92xH\xb5\xb0\xed'@"
p4315
tp4316
Rp4317
sg311
F79.65
sg315
g301
(g305
S'\xbct\x93\x18\x04&5@'
p4318
tp4319
Rp4320
sg319
F1.85
sa(dp4321
g300
g301
(g305
S":A\xe3\xf7\xc2\xd4'@"
p4322
tp4323
Rp4324
sg311
F81.85
sg315
g301
(g305
S'R\xb8\x1e\x85\xeb\x015@'
p4325
tp4326
Rp4327
sg319
F2.3
sa(dp4328
g300
g301
(g305
S"\xf7\x81I\xd1\xbd\xd8'@"
p4329
tp4330
Rp4331
sg311
F81.6
sg315
g301
(g305
S'\x1a/\xdd$\x06\x115@'
p4332
tp4333
Rp4334
sg319
F1.5
sa(dp4335
g300
g301
(g305
S",\xde\xc1\xe6\x15\xb8'@"
p4336
tp4337
Rp4338
sg311
F81.2
sg315
g301
(g305
S'\xa0E\xb6\xf3\xfd\x145@'
p4339
tp4340
Rp4341
sg319
F2.25
sa(dp4342
g300
g301
(g305
S"\xd3\x91\xc2.N\xa7'@"
p4343
tp4344
Rp4345
sg311
F80.9
sg315
g301
(g305
S'\xe6?\xa4\xdf\xbe\x0e5@'
p4346
tp4347
Rp4348
sg319
F2.2
sa(dp4349
g300
g301
(g305
S"\xc2\xea!=\xca\xd4'@"
p4350
tp4351
Rp4352
sg311
F82.85
sg315
g301
(g305
S'\x93:\x01M\x84=5@'
p4353
tp4354
Rp4355
sg319
F2.25
sa(dp4356
g300
g301
(g305
S"9\x7f\xb2\x92I\xb8'@"
p4357
tp4358
Rp4359
sg311
F83.7
sg315
g301
(g305
S'$\x06\x81\x95C\x1b5@'
p4360
tp4361
Rp4362
sg319
F1.35
sa(dp4363
g300
g301
(g305
S"\x9d\xef\xe4\xed\x94\x9c'@"
p4364
tp4365
Rp4366
sg311
F82.4
sg315
g301
(g305
S'\x86Z\xd3\xbc\xe3$5@'
p4367
tp4368
Rp4369
sg319
F1.9
sa(dp4370
g300
g301
(g305
S"\x16I\xe6\x1c\x0c\xba'@"
p4371
tp4372
Rp4373
sg311
F82.65
sg315
g301
(g305
S'6\xab>W[!5@'
p4374
tp4375
Rp4376
sg319
F2.2
sa(dp4377
g300
g301
(g305
S'\xc58\x9b\xc2m\x82(@'
p4378
tp4379
Rp4380
sg311
F87.15
sg315
g301
(g305
S'k+\xf6\x97\xdds5@'
p4381
tp4382
Rp4383
sg319
F1.9
sa(dp4384
g300
g301
(g305
S'\x9dT\xbfJrv(@'
p4385
tp4386
Rp4387
sg311
F85.65
sg315
g301
(g305
S'\xa6,C\x1c\xebb5@'
p4388
tp4389
Rp4390
sg319
F1.85
sa(dp4391
g300
g301
(g305
S'\xae\x16\xa4U\xa73(@'
p4392
tp4393
Rp4394
sg311
F83.65
sg315
g301
(g305
S'#(~\x8c\xb9{5@'
p4395
tp4396
Rp4397
sg319
F1.85
sa(dp4398
g300
g301
(g305
S'\xe9 \xb0\xea*6(@'
p4399
tp4400
Rp4401
sg311
F85.0
sg315
g301
(g305
S'Zd;\xdfO\x8d5@'
p4402
tp4403
Rp4404
sg319
F1.7
sa(dp4405
g300
g301
(g305
S'nc=\x99\xbd\x1d(@'
p4406
tp4407
Rp4408
sg311
F84.0
sg315
g301
(g305
S'T\xc1\xa8\xa4N\x805@'
p4409
tp4410
Rp4411
sg319
F2.3
sa(dp4412
g300
g301
(g305
S'~\xcb\x1dg?D(@'
p4413
tp4414
Rp4415
sg311
F82.85
sg315
g301
(g305
S'N\xf3\x8eSt\x945@'
p4416
tp4417
Rp4418
sg319
F1.75
sa(dp4419
g300
g301
(g305
S'\xa0\xd1\xe5\x80\xc7}(@'
p4420
tp4421
Rp4422
sg311
F82.8
sg315
g301
(g305
S' \x1f\xf4lV\xad5@'
p4423
tp4424
Rp4425
sg319
F1.7
sa(dp4426
g300
g301
(g305
S'$\xaa_\x10#\x0b(@'
p4427
tp4428
Rp4429
sg311
F81.55
sg315
g301
(g305
S'\xea\x044\x116\x8c5@'
p4430
tp4431
Rp4432
sg319
F2.0
sa(dp4433
g300
g301
(g305
S'\x937u\xfe5\x0e(@'
p4434
tp4435
Rp4436
sg311
F81.45
sg315
g301
(g305
S'\x07\x12\x14?\xc6\x8c5@'
p4437
tp4438
Rp4439
sg319
F1.75
sa(dp4440
g300
g301
(g305
S'\x19\xba\x95O\xca\x97(@'
p4441
tp4442
Rp4443
sg311
F85.7
sg315
g301
(g305
S'\xb8\xfc\x87\xf4\xdb\xc75@'
p4444
tp4445
Rp4446
sg319
F2.3
sa(dp4447
g300
g301
(g305
S'\xe8\xcb\x86\xbc\r\x97(@'
p4448
tp4449
Rp4450
sg311
F85.3
sg315
g301
(g305
S'\xbbt\x93\x18\x04\xc65@'
p4451
tp4452
Rp4453
sg319
F2.05
sa(dp4454
g300
g301
(g305
S'\x16\xe3"\x0eF\x82(@'
p4455
tp4456
Rp4457
sg311
F87.45
sg315
g301
(g305
S'\n\x8a\x1fc\xee\xba5@'
p4458
tp4459
Rp4460
sg319
F2.0
sa(dp4461
g300
g301
(g305
S'\x18\x8c\xbf\xff\xe4$(@'
p4462
tp4463
Rp4464
sg311
F84.1
sg315
g301
(g305
S'^K\xc8\x07=\xcb5@'
p4465
tp4466
Rp4467
sg319
F2.05
sa(dp4468
g300
g301
(g305
S"\x0f{\xeb\xba^\x97'@"
p4469
tp4470
Rp4471
sg311
F81.9
sg315
g301
(g305
S'\xa9\xc6K7\x89\x915@'
p4472
tp4473
Rp4474
sg319
F2.75
sa(dp4475
g300
g301
(g305
S'\xf3Y\x83\xcf\x86)(@'
p4476
tp4477
Rp4478
sg311
F84.0
sg315
g301
(g305
S'[\xb1\xbf\xec\x9e\xcc5@'
p4479
tp4480
Rp4481
sg319
F2.2
sa(dp4482
g300
g301
(g305
S'b\xc9\xfc\x12#F(@'
p4483
tp4484
Rp4485
sg311
F83.75
sg315
g301
(g305
S'\x06_\x98L\x15\xcc5@'
p4486
tp4487
Rp4488
sg319
F1.7
sa(dp4489
g300
g301
(g305
S'\x8b\xe5\xd1\n(\x11(@'
p4490
tp4491
Rp4492
sg311
F82.0
sg315
g301
(g305
S'\xc4 \xb0rh\xc15@'
p4493
tp4494
Rp4495
sg319
F2.0
sa(dp4496
g300
g301
(g305
S'\x95\xbc\x97\x9bu )@'
p4497
tp4498
Rp4499
sg311
F84.3
sg315
g301
(g305
S'^\xbaI\x0c\x02\xfb5@'
p4500
tp4501
Rp4502
sg319
F2.2
sa(dp4503
g300
g301
(g305
S'\xe5\xd3\xc9J\xe6w(@'
p4504
tp4505
Rp4506
sg311
F84.95
sg315
g301
(g305
S'r\xf9\x0f\xe9\xb7\xdf5@'
p4507
tp4508
Rp4509
sg319
F2.6
sa(dp4510
g300
g301
(g305
S'P+iGk\xcc(@'
p4511
tp4512
Rp4513
sg311
F85.5
sg315
g301
(g305
S'\xb7\x1e\x85\xebQ\xd85@'
p4514
tp4515
Rp4516
sg319
F2.1
sa(dp4517
g300
g301
(g305
S'\xef/\x9c\xa5-4)@'
p4518
tp4519
Rp4520
sg311
F87.65
sg315
g301
(g305
S'\x0c$(~\x8c\x196@'
p4521
tp4522
Rp4523
sg319
F2.25
sa(dp4524
g300
g301
(g305
S'%\xfaj\x85\x05\xd3(@'
p4525
tp4526
Rp4527
sg311
F88.95
sg315
g301
(g305
S'\xb6\x15\xfb\xcb\xee\t6@'
p4528
tp4529
Rp4530
sg319
F2.3
sa(dp4531
g300
g301
(g305
S'\x8b[yR\x8c\xbb(@'
p4532
tp4533
Rp4534
sg311
F86.55
sg315
g301
(g305
S'\x92~\xfb:p\xfe5@'
p4535
tp4536
Rp4537
sg319
F2.15
sa(dp4538
g300
g301
(g305
S'\xe1\xc3\x0c\xfa\x14`)@'
p4539
tp4540
Rp4541
sg311
F87.0
sg315
g301
(g305
S'\x85\rO\xaf\x9456@'
p4542
tp4543
Rp4544
sg319
F2.15
sa(dp4545
g300
g301
(g305
S'\x82c#\x90\xf5\x0e)@'
p4546
tp4547
Rp4548
sg311
F89.9
sg315
g301
(g305
S'*\\\x8f\xc2\xf5\x086@'
p4549
tp4550
Rp4551
sg319
F1.95
sa(dp4552
g300
g301
(g305
S'Y\x8cH,n\xd3(@'
p4553
tp4554
Rp4555
sg311
F87.15
sg315
g301
(g305
S'2\xc4\xb1.n\x036@'
p4556
tp4557
Rp4558
sg319
F1.95
sa(dp4559
g300
g301
(g305
S'?\x976,\x12P(@'
p4560
tp4561
Rp4562
sg311
F84.6
sg315
g301
(g305
S'vq\x1b\r\xe0\xed5@'
p4563
tp4564
Rp4565
sg319
F2.1
sa(dp4566
g300
g301
(g305
S'\x06\xcet\x06+\x1c(@'
p4567
tp4568
Rp4569
sg311
F81.4
sg315
g301
(g305
S'\xb5\xa6y\xc7)\xea5@'
p4570
tp4571
Rp4572
sg319
F2.55
sa(dp4573
g300
g301
(g305
S'\x9bw\xc0\\\xbdH)@'
p4574
tp4575
Rp4576
sg311
F83.15
sg315
g301
(g305
S'&1\x08\xac\x1c:6@'
p4577
tp4578
Rp4579
sg319
F1.75
sa(dp4580
g300
g301
(g305
S'\x80\xc1\xf4\x1f\x12d(@'
p4581
tp4582
Rp4583
sg311
F83.95
sg315
g301
(g305
S'h\x91\xed|?\xe55@'
p4584
tp4585
Rp4586
sg319
F2.1
sa(dp4587
g300
g301
(g305
S'\x87Vm\x01\x84\x82(@'
p4588
tp4589
Rp4590
sg311
F86.95
sg315
g301
(g305
S'\xf6JY\x868\x066@'
p4591
tp4592
Rp4593
sg319
F1.9
sa(dp4594
g300
g301
(g305
S'\xe1\x9e\xdf]\xfd\xc0(@'
p4595
tp4596
Rp4597
sg311
F86.3
sg315
g301
(g305
S'\xd0\xf7S\xe3\xa5\x0b6@'
p4598
tp4599
Rp4600
sg319
F1.9
sa(dp4601
g300
g301
(g305
S'\xc4q\xd7\xf1\x1d\xf8(@'
p4602
tp4603
Rp4604
sg311
F85.5
sg315
g301
(g305
S'@\xa4\xdf\xbe\x0e\x1c6@'
p4605
tp4606
Rp4607
sg319
F1.9
sa(dp4608
g300
g301
(g305
S'\x91\xe2r\x02\xc3\xb0(@'
p4609
tp4610
Rp4611
sg311
F88.6
sg315
g301
(g305
S'\x92\xed|?5\xfe5@'
p4612
tp4613
Rp4614
sg319
F1.65
sa(dp4615
g300
g301
(g305
S'\xab\x1a\x14\xdcs\xcb(@'
p4616
tp4617
Rp4618
sg311
F85.45
sg315
g301
(g305
S'\x86|\xd0\xb3Y\x056@'
p4619
tp4620
Rp4621
sg319
F1.7
sa(dp4622
g300
g301
(g305
S'>\xe5\x8bDv\x0b)@'
p4623
tp4624
Rp4625
sg311
F88.95
sg315
g301
(g305
S'\x82sF\x94\xf6\x066@'
p4626
tp4627
Rp4628
sg319
F2.2
sa(dp4629
g300
g301
(g305
S'.\x91\x0fZor)@'
p4630
tp4631
Rp4632
sg311
F88.8
sg315
g301
(g305
S'\xc2\xf5(\\\x8fB6@'
p4633
tp4634
Rp4635
sg319
F3.0
sa(dp4636
g300
g301
(g305
S'\xa8"5\xd7\xcd\xb4)@'
p4637
tp4638
Rp4639
sg311
F89.75
sg315
g301
(g305
S'R\x05\xa3\x92:a6@'
p4640
tp4641
Rp4642
sg319
F2.1
sa(dp4643
g300
g301
(g305
S'.!+\x9e\xed\x15*@'
p4644
tp4645
Rp4646
sg311
F90.25
sg315
g301
(g305
S"\xaa`TR'\x806@"
p4647
tp4648
Rp4649
sg319
F2.55
sa(dp4650
g300
g301
(g305
S'\xde\xa5\xae\x94\xadq)@'
p4651
tp4652
Rp4653
sg311
F89.3
sg315
g301
(g305
S'X\xa85\xcd;N6@'
p4654
tp4655
Rp4656
sg319
F2.3
sa(dp4657
g300
g301
(g305
S'sN\x1e\xa3\x1e\xf3(@'
p4658
tp4659
Rp4660
sg311
F86.1
sg315
g301
(g305
S'\x82\x04\xc5\x8f176@'
p4661
tp4662
Rp4663
sg319
F2.25
sa(dp4664
g300
g301
(g305
S'2r\xa2s\x9c\xef)@'
p4665
tp4666
Rp4667
sg311
F88.5
sg315
g301
(g305
S'\xde\x93\x87\x85Zc6@'
p4668
tp4669
Rp4670
sg319
F1.85
sa(dp4671
g300
g301
(g305
S'\xdak\xb3\xaaO\xbd(@'
p4672
tp4673
Rp4674
sg311
F87.3
sg315
g301
(g305
S'mxz\xa5,#6@'
p4675
tp4676
Rp4677
sg319
F2.6
sa(dp4678
g300
g301
(g305
S'\x1b]\x11\xbe[\xdd(@'
p4679
tp4680
Rp4681
sg311
F85.1
sg315
g301
(g305
S'\xa2\xb47\xf8\xc246@'
p4682
tp4683
Rp4684
sg319
F2.0
sa(dp4685
g300
g301
(g305
S'\x9d9\xf2\xc66\xa1)@'
p4686
tp4687
Rp4688
sg311
F87.75
sg315
g301
(g305
S'\xca2\xc4\xb1.~6@'
p4689
tp4690
Rp4691
sg319
F1.85
sa(dp4692
g300
g301
(g305
S'\xe6%\xd2\x05j\xf1(@'
p4693
tp4694
Rp4695
sg311
F84.6
sg315
g301
(g305
S'\xf7S\xe3\xa5\x9bT6@'
p4696
tp4697
Rp4698
sg319
F1.9
sa(dp4699
g300
g301
(g305
S'\xa6\x03\x84\xd6\xa0\t)@'
p4700
tp4701
Rp4702
sg311
F89.2
sg315
g301
(g305
S'\xdbh\x00o\x81D6@'
p4703
tp4704
Rp4705
sg319
F2.15
sa(dp4706
g300
g301
(g305
S'\xea|\x8b\x0f\x81\x8b)@'
p4707
tp4708
Rp4709
sg311
F88.7
sg315
g301
(g305
S'\xf8u\xe0\x9c\x11e6@'
p4710
tp4711
Rp4712
sg319
F1.75
sa(dp4713
g300
g301
(g305
S'a\x07BD,\x1f)@'
p4714
tp4715
Rp4716
sg311
F89.85
sg315
g301
(g305
S'\xe8j+\xf6\x97=6@'
p4717
tp4718
Rp4719
sg319
F2.05
sa(dp4720
g300
g301
(g305
S'\xd8\x85\xe7\x1d\xf9\xca)@'
p4721
tp4722
Rp4723
sg311
F92.2
sg315
g301
(g305
S'2U0*\xa9\x836@'
p4724
tp4725
Rp4726
sg319
F2.05
sa(dp4727
g300
g301
(g305
S'\x8e\x9c3O\xe2o)@'
p4728
tp4729
Rp4730
sg311
F88.0
sg315
g301
(g305
S'~\xd9=yX\x986@'
p4731
tp4732
Rp4733
sg319
F1.85
sa(dp4734
g300
g301
(g305
S'~\xf6\xcf\x8e\x81u)@'
p4735
tp4736
Rp4737
sg311
F90.3
sg315
g301
(g305
S':#J{\x83o6@'
p4738
tp4739
Rp4740
sg319
F2.55
sa(dp4741
g300
g301
(g305
S'7EX\xde\x8bS)@'
p4742
tp4743
Rp4744
sg311
F90.4
sg315
g301
(g305
S'\xf3\xfd\xd4x\xe9F6@'
p4745
tp4746
Rp4747
sg319
F2.95
sa(dp4748
g300
g301
(g305
S'fR\xb1\x94\x13g)@'
p4749
tp4750
Rp4751
sg311
F89.4
sg315
g301
(g305
S'\xd0\x91\\\xfeCz6@'
p4752
tp4753
Rp4754
sg319
F2.2
sa(dp4755
g300
g301
(g305
S'\xac\x08xf\xc05)@'
p4756
tp4757
Rp4758
sg311
F89.1
sg315
g301
(g305
S'\xa2\xd64\xef8e6@'
p4759
tp4760
Rp4761
sg319
F1.9
sa(dp4762
g300
g301
(g305
S'\xb6ag\xed\x89()@'
p4763
tp4764
Rp4765
sg311
F88.95
sg315
g301
(g305
S'B`\xe5\xd0"[6@'
p4766
tp4767
Rp4768
sg319
F2.2
sa(dp4769
g300
g301
(g305
S'\x16\x82My\xf43)@'
p4770
tp4771
Rp4772
sg311
F89.45
sg315
g301
(g305
S'\x01o\x81\x04\xc5o6@'
p4773
tp4774
Rp4775
sg319
F2.15
sa(dp4776
g300
g301
(g305
S'\xe5\x81<W0\xfd(@'
p4777
tp4778
Rp4779
sg311
F86.35
sg315
g301
(g305
S'D\xfa\xed\xeb\xc0y6@'
p4780
tp4781
Rp4782
sg319
F1.9
sa(dp4783
g300
g301
(g305
S'\x11_E\xd7\xe3\xe8(@'
p4784
tp4785
Rp4786
sg311
F87.0
sg315
g301
(g305
S'k+\xf6\x97\xddS6@'
p4787
tp4788
Rp4789
sg319
F2.0
sa(dp4790
g300
g301
(g305
S"\t\x1cg\xfd'\xb0(@"
p4791
tp4792
Rp4793
sg311
F88.05
sg315
g301
(g305
S'\x96\xb2\x0cq\xacK6@'
p4794
tp4795
Rp4796
sg319
F1.95
sa(dp4797
g300
g301
(g305
S'\xb9D\x13\xee\x0e\xf9(@'
p4798
tp4799
Rp4800
sg311
F88.0
sg315
g301
(g305
S'Z\x17\xb7\xd1\x00^6@'
p4801
tp4802
Rp4803
sg319
F1.65
sa(dp4804
g300
g301
(g305
S'\xba\x91\xe2\xe9?\xe5(@'
p4805
tp4806
Rp4807
sg311
F86.15
sg315
g301
(g305
S'{\xa5,C\x1ck6@'
p4808
tp4809
Rp4810
sg319
F1.95
sa(dp4811
g300
g301
(g305
S'\xb3\xa6\x1c\x8d\x17\xdf)@'
p4812
tp4813
Rp4814
sg311
F89.7
sg315
g301
(g305
S'\x94e\x88c]\x9c6@'
p4815
tp4816
Rp4817
sg319
F1.8
sa(dp4818
g300
g301
(g305
S'\xbd\xdc-\xebx8)@'
p4819
tp4820
Rp4821
sg311
F86.35
sg315
g301
(g305
S'\xa3p=\n\xd7c6@'
p4822
tp4823
Rp4824
sg319
F1.5
sa(dp4825
g300
g301
(g305
S'z\xda\xa8\xea4\xeb(@'
p4826
tp4827
Rp4828
sg311
F84.65
sg315
g301
(g305
S'\xbb\x96\x90\x0fzf6@'
p4829
tp4830
Rp4831
sg319
F1.6
sa(dp4832
g300
g301
(g305
S'\xde\xbb\x8e\x05Y\xbe(@'
p4833
tp4834
Rp4835
sg311
F86.15
sg315
g301
(g305
S'>yX\xa85]6@'
p4836
tp4837
Rp4838
sg319
F1.95
sa(dp4839
g300
g301
(g305
S'<\x0f\x19j\xf9\xd0(@'
p4840
tp4841
Rp4842
sg311
F85.7
sg315
g301
(g305
S'y\x0b$(~l6@'
p4843
tp4844
Rp4845
sg319
F1.8
sa(dp4846
g300
g301
(g305
S'\x82\xdec\xfc(\x8d)@'
p4847
tp4848
Rp4849
sg311
F87.0
sg315
g301
(g305
S'T\xe3\xa5\x9b\xc4\x806@'
p4850
tp4851
Rp4852
sg319
F1.85
sa(dp4853
g300
g301
(g305
S'5\x91\x8do\x9b\x97)@'
p4854
tp4855
Rp4856
sg311
F89.45
sg315
g301
(g305
S'\xbe\x96\x90\x0fz\xa66@'
p4857
tp4858
Rp4859
sg319
F1.95
sa(dp4860
g300
g301
(g305
S'm\t&\xe1\xc2D*@'
p4861
tp4862
Rp4863
sg311
F91.3
sg315
g301
(g305
S'\xc7):\x92\xcb\xcf6@'
p4864
tp4865
Rp4866
sg319
F2.15
sa(dp4867
g300
g301
(g305
S'\xd8R?\xda\x95\x04*@'
p4868
tp4869
Rp4870
sg311
F89.5
sg315
g301
(g305
S'6<\xbdR\x96\xd16@'
p4871
tp4872
Rp4873
sg319
F2.2
sa(dp4874
g300
g301
(g305
S'\x02\x9c\xf0A\xe6\x7f)@'
p4875
tp4876
Rp4877
sg311
F86.25
sg315
g301
(g305
S'h"lxz\xc56@'
p4878
tp4879
Rp4880
sg319
F2.5
sa(dp4881
g300
g301
(g305
S'R\xe5\x1d\xe0\xcf\xa6)@'
p4882
tp4883
Rp4884
sg311
F89.65
sg315
g301
(g305
S'\x90\x0fz6\xab\xce6@'
p4885
tp4886
Rp4887
sg319
F1.8
sa(dp4888
g300
g301
(g305
S"\xf5d\x90\xec'\x05*@"
p4889
tp4890
Rp4891
sg311
F90.05
sg315
g301
(g305
S'C>\xe8\xd9\xac\xda6@'
p4892
tp4893
Rp4894
sg319
F1.55
sa(dp4895
g300
g301
(g305
S'\x9d\rf\x1b\x84L*@'
p4896
tp4897
Rp4898
sg311
F88.75
sg315
g301
(g305
S'X\xca2\xc4\xb1\xfe6@'
p4899
tp4900
Rp4901
sg319
F2.05
sa(dp4902
g300
g301
(g305
S'\x95\xff~\x16\xf4\xae*@'
p4903
tp4904
Rp4905
sg311
F93.65
sg315
g301
(g305
S'a\xc3\xd3+e\xe96@'
p4906
tp4907
Rp4908
sg319
F1.65
sa(dp4909
g300
g301
(g305
S'\xcd&\x8e,\xb1T*@'
p4910
tp4911
Rp4912
sg311
F89.55
sg315
g301
(g305
S'c\x7f\xd9=y\xb86@'
p4913
tp4914
Rp4915
sg319
F2.1
sa(dp4916
g300
g301
(g305
S'Z\x13\x1f\xb0\x14&*@'
p4917
tp4918
Rp4919
sg311
F88.8
sg315
g301
(g305
S'\x94\xf6\x06_\x98\xcc6@'
p4920
tp4921
Rp4922
sg319
F2.5
sa(dp4923
g300
g301
(g305
S'\x95\xd9\xb1tHf*@'
p4924
tp4925
Rp4926
sg311
F90.95
sg315
g301
(g305
S'?\x82\xe2\xc7\x98\xdb6@'
p4927
tp4928
Rp4929
sg319
F2.7
sa(dp4930
g300
g301
(g305
S'\xfd\xdda\xdfv\x8c*@'
p4931
tp4932
Rp4933
sg311
F91.25
sg315
g301
(g305
S'\x84\x9e\xcd\xaa\xcf\xe56@'
p4934
tp4935
Rp4936
sg319
F1.95
sa(dp4937
g300
g301
(g305
S'nO\x99U.\xbe)@'
p4938
tp4939
Rp4940
sg311
F89.95
sg315
g301
(g305
S'\x82sF\x94\xf6\xa66@'
p4941
tp4942
Rp4943
sg319
F1.65
sa(dp4944
g300
g301
(g305
S'\x15\xe7d\xf7\xb4**@'
p4945
tp4946
Rp4947
sg311
F92.25
sg315
g301
(g305
S'\x88c]\xdcF\xc36@'
p4948
tp4949
Rp4950
sg319
F1.75
sa(dp4951
g300
g301
(g305
S'J \xef\xc8\x19\x08*@'
p4952
tp4953
Rp4954
sg311
F90.9
sg315
g301
(g305
S'\x9e\xcd\xaa\xcf\xd5\x966@'
p4955
tp4956
Rp4957
sg319
F2.6
sa(dp4958
g300
g301
(g305
S'\x06\xb5O\x95\x8f\x17*@'
p4959
tp4960
Rp4961
sg311
F92.0
sg315
g301
(g305
S'k\xbct\x93\x18\x946@'
p4962
tp4963
Rp4964
sg319
F2.3
sa(dp4965
g300
g301
(g305
S'm\x0c\xb0U\xfb\xba*@'
p4966
tp4967
Rp4968
sg311
F89.45
sg315
g301
(g305
S'\x1c\x9e^)\xcb\xc06@'
p4969
tp4970
Rp4971
sg319
F2.2
sa(dp4972
g300
g301
(g305
S'}\xec*\x93\x00\x1d*@'
p4973
tp4974
Rp4975
sg311
F92.5
sg315
g301
(g305
S'o4\x80\xb7@r6@'
p4976
tp4977
Rp4978
sg319
F2.0
sa(dp4979
g300
g301
(g305
S"\xea\xe6u\x11\xba'*@"
p4980
tp4981
Rp4982
sg311
F87.8
sg315
g301
(g305
S'\xd4\xe7j+\xf6\x976@'
p4983
tp4984
Rp4985
sg319
F2.8
sa(dp4986
g300
g301
(g305
S'-\xb9\xf7\x94\xd7\xa9)@'
p4987
tp4988
Rp4989
sg311
F88.25
sg315
g301
(g305
S'\xb4\xa6y\xc7)\x8a6@'
p4990
tp4991
Rp4992
sg319
F2.15
sa(dp4993
g300
g301
(g305
S'z&\x99\xe9\x0f()@'
p4994
tp4995
Rp4996
sg311
F89.9
sg315
g301
(g305
S'\x84\rO\xaf\x94U6@'
p4997
tp4998
Rp4999
sg319
F2.15
sa(dp5000
g300
g301
(g305
S'F!\xa8\xde\xd8\xa2(@'
p5001
tp5002
Rp5003
sg311
F85.85
sg315
g301
(g305
S'fffff\x166@'
p5004
tp5005
Rp5006
sg319
F2.65
sa(dp5007
g300
g301
(g305
S'~z;\x84\x82!)@'
p5008
tp5009
Rp5010
sg311
F91.2
sg315
g301
(g305
S'\x86Z\xd3\xbc\xe3D6@'
p5011
tp5012
Rp5013
sg319
F1.8
sa(dp5014
g300
g301
(g305
S'"H\xb5@o[)@'
p5015
tp5016
Rp5017
sg311
F90.55
sg315
g301
(g305
S'B\xcff\xd5\xe7J6@'
p5018
tp5019
Rp5020
sg319
F2.0
sa(dp5021
g300
g301
(g305
S'j\x9fK\xf5\x1d,*@'
p5022
tp5023
Rp5024
sg311
F90.8
sg315
g301
(g305
S'\x8eSt$\x97\x7f6@'
p5025
tp5026
Rp5027
sg319
F1.75
sa(dp5028
g300
g301
(g305
S'\x8f\x84\x16Md\x8c)@'
p5029
tp5030
Rp5031
sg311
F91.05
sg315
g301
(g305
S'\x8b\x1fc\xeeZR6@'
p5032
tp5033
Rp5034
sg319
F1.85
sa(dp5035
g300
g301
(g305
S'\xabX\xee=\x99\xb4)@'
p5036
tp5037
Rp5038
sg311
F90.15
sg315
g301
(g305
S"aTR'\xa0y6@"
p5039
tp5040
Rp5041
sg319
F2.2
sa(dp5042
g300
g301
(g305
S'\xaa\x00\xd1\xbe\x99\x9c)@'
p5043
tp5044
Rp5045
sg311
F88.95
sg315
g301
(g305
S'\x13?\xc6\xdc\xb5t6@'
p5046
tp5047
Rp5048
sg319
F2.0
sa(dp5049
g300
g301
(g305
S'\xf2\xb8_\xa6l\xc5)@'
p5050
tp5051
Rp5052
sg311
F90.6
sg315
g301
(g305
S'\xcb]K\xc8\x07m6@'
p5053
tp5054
Rp5055
sg319
F2.05
sa(dp5056
g300
g301
(g305
S'\xe6"\xa1\xa8\xc8\xff)@'
p5057
tp5058
Rp5059
sg311
F89.3
sg315
g301
(g305
S'\xb3{\xf2\xb0P\x8b6@'
p5060
tp5061
Rp5062
sg319
F1.65
sa(dp5063
g300
g301
(g305
S'\x06\x02\xb6\xb1\xbb\x04*@'
p5064
tp5065
Rp5066
sg311
F88.55
sg315
g301
(g305
S'\x8b\x8e\xe4\xf2\x1f\x926@'
p5067
tp5068
Rp5069
sg319
F2.3
sa(dp5070
g300
g301
(g305
S'\xc4\x010sgT)@'
p5071
tp5072
Rp5073
sg311
F88.25
sg315
g301
(g305
S"\xba'\x0f\x0b\xb5f6@"
p5074
tp5075
Rp5076
sg319
F2.2
sa(dp5077
g300
g301
(g305
S'\x83\xe5\xd6]"Q*@'
p5078
tp5079
Rp5080
sg311
F92.05
sg315
g301
(g305
S'\xca2\xc4\xb1.\xae6@'
p5081
tp5082
Rp5083
sg319
F2.15
sa(dp5084
g300
g301
(g305
S'%7\xc7\xd1F\xfd)@'
p5085
tp5086
Rp5087
sg311
F89.7
sg315
g301
(g305
S'\xde\xe0\x0b\x93\xa9\x826@'
p5088
tp5089
Rp5090
sg319
F2.3
sa(dp5091
g300
g301
(g305
S'\xd6oM\xe3\x10W)@'
p5092
tp5093
Rp5094
sg311
F87.45
sg315
g301
(g305
S'\n\x02+\x87\x16Y6@'
p5095
tp5096
Rp5097
sg319
F2.25
sa(dp5098
g300
g301
(g305
S'F\x99\x9f\x94J\xf6)@'
p5099
tp5100
Rp5101
sg311
F90.85
sg315
g301
(g305
S'\xae\x94e\x88c]6@'
p5102
tp5103
Rp5104
sg319
F2.1
sa(dp5105
g300
g301
(g305
S'\xbb\xd9\xa2\xca\x18\xfa)@'
p5106
tp5107
Rp5108
sg311
F89.55
sg315
g301
(g305
S'h\x91\xed|?u6@'
p5109
tp5110
Rp5111
sg319
F2.55
sa(dp5112
g300
g301
(g305
S'#\x10\x13\xda\x1e{*@'
p5113
tp5114
Rp5115
sg311
F91.2
sg315
g301
(g305
S'\xb8@\x82\xe2\xc7\xa86@'
p5116
tp5117
Rp5118
sg319
F2.35
sa(dp5119
g300
g301
(g305
S'-\n\xd0\xfa\x1e\x1d*@'
p5120
tp5121
Rp5122
sg311
F90.0
sg315
g301
(g305
S'\x19s\xd7\x12\xf2\xa16@'
p5123
tp5124
Rp5125
sg319
F2.0
sa(dp5126
g300
g301
(g305
S'sQ9\x01\xe6\xec)@'
p5127
tp5128
Rp5129
sg311
F88.8
sg315
g301
(g305
S'\xb6\xf3\xfd\xd4x\xb96@'
p5130
tp5131
Rp5132
sg319
F2.2
sa(dp5133
g300
g301
(g305
S'\xbfd3\xef\x90\x99)@'
p5134
tp5135
Rp5136
sg311
F89.35
sg315
g301
(g305
S'[\xf5\xb9\xda\x8a}6@'
p5137
tp5138
Rp5139
sg319
F2.35
sa(dp5140
g300
g301
(g305
S'\x96%RK\xf8\r*@'
p5141
tp5142
Rp5143
sg311
F88.7
sg315
g301
(g305
S'\xc3B\xadi\xde\xa16@'
p5144
tp5145
Rp5146
sg319
F1.9
sa(dp5147
g300
g301
(g305
S'\xf2\xe7\xab\t\x98S*@'
p5148
tp5149
Rp5150
sg311
F91.8
sg315
g301
(g305
S'FGr\xf9\x0f\xb96@'
p5151
tp5152
Rp5153
sg319
F2.1
sa(dp5154
g300
g301
(g305
S'2\xf8\x14a\xc0\xab*@'
p5155
tp5156
Rp5157
sg311
F91.8
sg315
g301
(g305
S'\xb3{\xf2\xb0P\xbb6@'
p5158
tp5159
Rp5160
sg319
F1.95
sa(dp5161
g300
g301
(g305
S'j\xa5\xe0A\x8f\x9e*@'
p5162
tp5163
Rp5164
sg311
F93.1
sg315
g301
(g305
S'\x00\x00\x00\x00\x00\xb06@'
p5165
tp5166
Rp5167
sg319
F2.1
sa(dp5168
g300
g301
(g305
S'\xb6\x87?\xb3&j*@'
p5169
tp5170
Rp5171
sg311
F90.9
sg315
g301
(g305
S'6\x1a\xc0[ \xd16@'
p5172
tp5173
Rp5174
sg319
F2.65
sa(dp5175
g300
g301
(g305
S'h\xdf?3.\xaa*@'
p5176
tp5177
Rp5178
sg311
F89.4
sg315
g301
(g305
S'\xb0Pk\x9aw\xfc6@'
p5179
tp5180
Rp5181
sg319
F2.0
sa(dp5182
g300
g301
(g305
S' \x07\x8c\x9f8\x9a*@'
p5183
tp5184
Rp5185
sg311
F92.6
sg315
g301
(g305
S'\xa0\xcd\xaa\xcf\xd5\xc66@'
p5186
tp5187
Rp5188
sg319
F1.8
sa(dp5189
g300
g301
(g305
S'\x15\x80\x8f\xdb\xbb\xdd*@'
p5190
tp5191
Rp5192
sg311
F95.05
sg315
g301
(g305
S'\x9bU\x9f\xab\xad\xd86@'
p5193
tp5194
Rp5195
sg319
F1.95
sa(dp5196
g300
g301
(g305
S'\xa5\xef\xf0+S\x88+@'
p5197
tp5198
Rp5199
sg311
F94.05
sg315
g301
(g305
S"\x9f\x80&\xc2\x86'7@"
p5200
tp5201
Rp5202
sg319
F1.95
sa(dp5203
g300
g301
(g305
S'8\xb6\x0ePz\xe4*@'
p5204
tp5205
Rp5206
sg311
F93.0
sg315
g301
(g305
S'B\xcff\xd5\xe7\n7@'
p5207
tp5208
Rp5209
sg319
F1.3
sa(dp5210
g300
g301
(g305
S'\xbd\xf0\xab\xbf\x93\xbd+@'
p5211
tp5212
Rp5213
sg311
F93.95
sg315
g301
(g305
S'\xd2\xb3Y\xf5\xb9*7@'
p5214
tp5215
Rp5216
sg319
F2.05
sa(dp5217
g300
g301
(g305
S'\x0366(p\r+@'
p5218
tp5219
Rp5220
sg311
F96.25
sg315
g301
(g305
S'\xcd;N\xd1\x91\x0c7@'
p5221
tp5222
Rp5223
sg319
F2.3
sa(dp5224
g300
g301
(g305
S'\x9a\xd6R\xe6;\xb0*@'
p5225
tp5226
Rp5227
sg311
F93.8
sg315
g301
(g305
S'\x8a\xb0\xe1\xe9\x95\xf26@'
p5228
tp5229
Rp5230
sg319
F2.25
sa(dp5231
g300
g301
(g305
S'[\xe9:\x1e\xbf\x9b*@'
p5232
tp5233
Rp5234
sg311
F93.65
sg315
g301
(g305
S'\xe7\x8c(\xed\r\xce6@'
p5235
tp5236
Rp5237
sg319
F1.6
sa(dp5238
g300
g301
(g305
S'\x0b>\x95P\xe6W*@'
p5239
tp5240
Rp5241
sg311
F93.3
sg315
g301
(g305
S'\xdc\x1b|a2\xe56@'
p5242
tp5243
Rp5244
sg319
F2.35
sa(dp5245
g300
g301
(g305
S'\x083\xd8\xcc`\x86*@'
p5246
tp5247
Rp5248
sg311
F89.5
sg315
g301
(g305
S'\xfa~j\xbct\xd36@'
p5249
tp5250
Rp5251
sg319
F1.95
sa(dp5252
g300
g301
(g305
S'\xdb\xfbF\x17\x88e*@'
p5253
tp5254
Rp5255
sg311
F89.8
sg315
g301
(g305
S'\xc5 \xb0rh\xe16@'
p5256
tp5257
Rp5258
sg319
F1.45
sa(dp5259
g300
g301
(g305
S's\x86\x9a]\xae\xd9*@'
p5260
tp5261
Rp5262
sg311
F90.2
sg315
g301
(g305
S'\x86Z\xd3\xbc\xe3\xf46@'
p5263
tp5264
Rp5265
sg319
F2.0
sa(dp5266
g300
g301
(g305
S'\xc3qhp\xa1\x1d*@'
p5267
tp5268
Rp5269
sg311
F90.5
sg315
g301
(g305
S'\xa3\xd64\xef8\xa56@'
p5270
tp5271
Rp5272
sg319
F2.0
sa(dp5273
g300
g301
(g305
S'\xc3\x99\n\tQ.*@'
p5274
tp5275
Rp5276
sg311
F91.25
sg315
g301
(g305
S'"\xfd\xf6u\xe0\xcc6@'
p5277
tp5278
Rp5279
sg319
F1.8
sa(dp5280
g300
g301
(g305
S'\x9e\x87\xb1C\x94\xa7*@'
p5281
tp5282
Rp5283
sg311
F92.8
sg315
g301
(g305
S'\x16jM\xf3\x8e\xe36@'
p5284
tp5285
Rp5286
sg319
F2.2
sa(dp5287
g300
g301
(g305
S'\xc8\x91\x81JH\xac*@'
p5288
tp5289
Rp5290
sg311
F92.75
sg315
g301
(g305
S'\x1e\xa7\xe8H.\xcf6@'
p5291
tp5292
Rp5293
sg319
F1.7
sa(dp5294
g300
g301
(g305
S'\xb8\x88\xa7\x0cVW*@'
p5295
tp5296
Rp5297
sg311
F86.75
sg315
g301
(g305
S'\x9c\xc4 \xb0r\xc86@'
p5298
tp5299
Rp5300
sg319
F1.95
sa(dp5301
g300
g301
(g305
S'\x0e\xdd\xb9\xc1\x94R+@'
p5302
tp5303
Rp5304
sg311
F92.6
sg315
g301
(g305
S'2\x08\xac\x1cZ\x147@'
p5305
tp5306
Rp5307
sg319
F2.45
sa(dp5308
g300
g301
(g305
S'\x86s\x8f\x19\xc79+@'
p5309
tp5310
Rp5311
sg311
F93.55
sg315
g301
(g305
S"\x12\xe9\xb7\xaf\x03'7@"
p5312
tp5313
Rp5314
sg319
F2.4
sa(dp5315
g300
g301
(g305
S'p\xa3\xb2t\xa1L+@'
p5316
tp5317
Rp5318
sg311
F93.3
sg315
g301
(g305
S'\x88\xf4\xdb\xd7\x81\x037@'
p5319
tp5320
Rp5321
sg319
F1.9
sa(dp5322
g300
g301
(g305
S'\x88\x00-\xaa\x98\xfe*@'
p5323
tp5324
Rp5325
sg311
F94.1
sg315
g301
(g305
S'\xe2\xc7\x98\xbb\x96\x107@'
p5326
tp5327
Rp5328
sg319
F1.85
sa(dp5329
g300
g301
(g305
S'\xfaye\xc4nd*@'
p5330
tp5331
Rp5332
sg311
F90.15
sg315
g301
(g305
S'\xe8\xfb\xa9\xf1\xd2\xed6@'
p5333
tp5334
Rp5335
sg319
F2.0
sa(dp5336
g300
g301
(g305
S'\xd2\xa5\xbd\x96\x0b\xe2*@'
p5337
tp5338
Rp5339
sg311
F90.5
sg315
g301
(g305
S'\x95e\x88c]\xfc6@'
p5340
tp5341
Rp5342
sg319
F2.15
sa(dp5343
g300
g301
(g305
S'\x8e\x99\x18\x9bP\xfd*@'
p5344
tp5345
Rp5346
sg311
F89.6
sg315
g301
(g305
S'\x86\xebQ\xb8\x1e\x157@'
p5347
tp5348
Rp5349
sg319
F2.25
sa(dp5350
g300
g301
(g305
S'\xe0\x93\x83Ny\xa8*@'
p5351
tp5352
Rp5353
sg311
F89.4
sg315
g301
(g305
S'B`\xe5\xd0"\x0b7@'
p5354
tp5355
Rp5356
sg319
F2.35
sa(dp5357
g300
g301
(g305
S'bmj\x17\xa9\xa3*@'
p5358
tp5359
Rp5360
sg311
F88.25
sg315
g301
(g305
S'K\xc8\x07=\x9b\xf56@'
p5361
tp5362
Rp5363
sg319
F1.95
sa(dp5364
g300
g301
(g305
S'\xb8\x80\xc0\x90\x84\xea)@'
p5365
tp5366
Rp5367
sg311
F90.05
sg315
g301
(g305
S'\xe5\xa5\x9b\xc4 \xb06@'
p5368
tp5369
Rp5370
sg319
F2.0
sa(dp5371
g300
g301
(g305
S'\xd32&|, *@'
p5372
tp5373
Rp5374
sg311
F91.05
sg315
g301
(g305
S't\xb5\x15\xfb\xcb\xde6@'
p5375
tp5376
Rp5377
sg319
F1.9
sa(dp5378
g300
g301
(g305
S'#\x94\xe64\x8e|*@'
p5379
tp5380
Rp5381
sg311
F91.25
sg315
g301
(g305
S'\xaa\x13\xd0D\xd8\xf06@'
p5382
tp5383
Rp5384
sg319
F1.8
sa(dp5385
g300
g301
(g305
S'\x98F\x9a\xcb\xe5\x0c+@'
p5386
tp5387
Rp5388
sg311
F91.25
sg315
g301
(g305
S',\xd4\x9a\xe6\x1d77@'
p5389
tp5390
Rp5391
sg319
F2.0
sa(dp5392
g300
g301
(g305
S'\x90\x0el\x03\xadJ+@'
p5393
tp5394
Rp5395
sg311
F91.6
sg315
g301
(g305
S'$\x06\x81\x95C;7@'
p5396
tp5397
Rp5398
sg319
F2.55
sa(dp5399
g300
g301
(g305
S'[\n\xca\r\x03\xfe*@'
p5400
tp5401
Rp5402
sg311
F93.8
sg315
g301
(g305
S':#J{\x83\x0f7@'
p5403
tp5404
Rp5405
sg319
F2.15
sa(dp5406
g300
g301
(g305
S'[t\x95\xc9\xe9\x9c+@'
p5407
tp5408
Rp5409
sg311
F97.5
sg315
g301
(g305
S'\xe1\x9c\x11\xa5\xbd!7@'
p5410
tp5411
Rp5412
sg319
F1.6
sa(dp5413
g300
g301
(g305
S'\xc88n(\xe4\x8d*@'
p5414
tp5415
Rp5416
sg311
F92.45
sg315
g301
(g305
S'Z\xd3\xbc\xe3\x14\xcd6@'
p5417
tp5418
Rp5419
sg319
F1.45
sa(dp5420
g300
g301
(g305
S'\x16\xfd\xc9\xfe\xd3\x02+@'
p5421
tp5422
Rp5423
sg311
F94.2
sg315
g301
(g305
S']\xfeC\xfa\xed\x1b7@'
p5424
tp5425
Rp5426
sg319
F2.3
sa(dp5427
g300
g301
(g305
S'\xe5\x97M\x80\xba8+@'
p5428
tp5429
Rp5430
sg311
F93.65
sg315
g301
(g305
S'6\xcd;N\xd1!7@'
p5431
tp5432
Rp5433
sg319
F1.85
sa(dp5434
g300
g301
(g305
S'J?X\xe8M\x04+@'
p5435
tp5436
Rp5437
sg311
F94.65
sg315
g301
(g305
S'|\x83/L\xa6\n7@'
p5438
tp5439
Rp5440
sg319
F2.0
sa(dp5441
g300
g301
(g305
S'\xc5\xcc\xe6\x8a\x07\xce*@'
p5442
tp5443
Rp5444
sg311
F92.5
sg315
g301
(g305
S'\xd6\xe7j+\xf6\x077@'
p5445
tp5446
Rp5447
sg319
F2.3
sa(dp5448
g300
g301
(g305
S'\xc8\xf4f9\xc0]+@'
p5449
tp5450
Rp5451
sg311
F95.5
sg315
g301
(g305
S'~j\xbct\x93\x187@'
p5452
tp5453
Rp5454
sg319
F1.25
sa(dp5455
g300
g301
(g305
S'V\xfc\xef\x1fl\x10+@'
p5456
tp5457
Rp5458
sg311
F89.9
sg315
g301
(g305
S'C\x1c\xeb\xe26\x1a7@'
p5459
tp5460
Rp5461
sg319
F1.75
sa(dp5462
g300
g301
(g305
S'\r\xe2\xf8b\xfc,+@'
p5463
tp5464
Rp5465
sg311
F92.15
sg315
g301
(g305
S'\xf2\x1f\xd2o_77@'
p5466
tp5467
Rp5468
sg319
F2.15
sa(dp5469
g300
g301
(g305
S'\xfa\x8f8\x10\xfb\xff*@'
p5470
tp5471
Rp5472
sg311
F91.5
sg315
g301
(g305
S'\xc9\xc3B\xadi\x1e7@'
p5473
tp5474
Rp5475
sg319
F1.6
sa(dp5476
g300
g301
(g305
S'\xee\xb5,^j\x84+@'
p5477
tp5478
Rp5479
sg311
F94.0
sg315
g301
(g305
S'\x1f\xf4lV}>7@'
p5480
tp5481
Rp5482
sg319
F1.8
sa(dp5483
g300
g301
(g305
S'\x95j\x8c\x04\xff\xec*@'
p5484
tp5485
Rp5486
sg311
F93.05
sg315
g301
(g305
S'\x8duq\x1b\r\x007@'
p5487
tp5488
Rp5489
sg319
F1.5
sa(dp5490
g300
g301
(g305
S'\x05-\x83l\xd1\x99*@'
p5491
tp5492
Rp5493
sg311
F90.45
sg315
g301
(g305
S'(:\x92\xcb\x7f\xf86@'
p5494
tp5495
Rp5496
sg319
F1.95
sa(dp5497
g300
g301
(g305
S'\xa6#m,\x80<+@'
p5498
tp5499
Rp5500
sg311
F93.95
sg315
g301
(g305
S'\x96C\x8bl\xe7;7@'
p5501
tp5502
Rp5503
sg319
F2.35
sa(dp5504
g300
g301
(g305
S'\xd2}\t\x97x)+@'
p5505
tp5506
Rp5507
sg311
F90.45
sg315
g301
(g305
S'\xaa\xf1\xd2Mb@7@'
p5508
tp5509
Rp5510
sg319
F2.45
sa(dp5511
g300
g301
(g305
S'^\xb9\x8c\xc1\x00\x19+@'
p5512
tp5513
Rp5514
sg311
F91.1
sg315
g301
(g305
S'\x14?\xc6\xdc\xb5\x147@'
p5515
tp5516
Rp5517
sg319
F1.8
sa(dp5518
g300
g301
(g305
S'\x9b\t\xf0\xa8b\x8b*@'
p5519
tp5520
Rp5521
sg311
F88.55
sg315
g301
(g305
S'\xd6\xe7j+\xf6\x077@'
p5522
tp5523
Rp5524
sg319
F1.5
sa(dp5525
g300
g301
(g305
S"X\x03'\npo*@"
p5526
tp5527
Rp5528
sg311
F88.65
sg315
g301
(g305
S'*:\x92\xcb\x7f\xf86@'
p5529
tp5530
Rp5531
sg319
F1.85
sa(dp5532
g300
g301
(g305
S'\xd2>)\xa3\x89\x19*@'
p5533
tp5534
Rp5535
sg311
F86.8
sg315
g301
(g305
S'n\xa3\x01\xbc\x05\xe26@'
p5536
tp5537
Rp5538
sg319
F2.0
sa(dp5539
g300
g301
(g305
S'\n\xfe\xdb\xe6\x96b*@'
p5540
tp5541
Rp5542
sg311
F87.6
sg315
g301
(g305
S'\xecs\xb5\x15\xfb\xeb6@'
p5543
tp5544
Rp5545
sg319
F2.0
sa(dp5546
g300
g301
(g305
S'\xd0q\xe2O\x17f*@'
p5547
tp5548
Rp5549
sg311
F90.75
sg315
g301
(g305
S'\x0eO\xaf\x94e\xe86@'
p5550
tp5551
Rp5552
sg319
F1.65
sa(dp5553
g300
g301
(g305
S'\x9e\xc2\xa1\x0c\x96\xa4*@'
p5554
tp5555
Rp5556
sg311
F90.0
sg315
g301
(g305
S"0\xbb'\x0f\x0b\xf56@"
p5557
tp5558
Rp5559
sg319
F2.0
sa(dp5560
g300
g301
(g305
S'\x96\xee\xf7#\xb3E*@'
p5561
tp5562
Rp5563
sg311
F90.8
sg315
g301
(g305
S'\n\xd7\xa3p=\xda6@'
p5564
tp5565
Rp5566
sg319
F2.1
sa(dp5567
g300
g301
(g305
S'K(d\xf4\xb2\xe4*@'
p5568
tp5569
Rp5570
sg311
F93.35
sg315
g301
(g305
S'\x98L\x15\x8cJ\xea6@'
p5571
tp5572
Rp5573
sg319
F2.0
sa(dp5574
g300
g301
(g305
S'\x83k\x94s\xf0\x9e*@'
p5575
tp5576
Rp5577
sg311
F89.9
sg315
g301
(g305
S'\xaf\x94e\x88c\xdd6@'
p5578
tp5579
Rp5580
sg319
F2.1
sa(dp5581
g300
g301
(g305
S'\xe2H\xfe\xb7\xf4\xf6*@'
p5582
tp5583
Rp5584
sg311
F90.9
sg315
g301
(g305
S'\x868\xd6\xc5m\x047@'
p5585
tp5586
Rp5587
sg319
F2.1
sa(dp5588
g300
g301
(g305
S'\xfd\x91\x81\xb4\xff\x18*@'
p5589
tp5590
Rp5591
sg311
F92.45
sg315
g301
(g305
S'\xe5?\xa4\xdf\xbe\xbe6@'
p5592
tp5593
Rp5594
sg319
F2.05
sa(dp5595
g300
g301
(g305
S']{[,#\xf3)@'
p5596
tp5597
Rp5598
sg311
F89.25
sg315
g301
(g305
S'X9\xb4\xc8v\xae6@'
p5599
tp5600
Rp5601
sg319
F1.5
sa(dp5602
g300
g301
(g305
S'\xcd\x03w\\\xaf\xd2)@'
p5603
tp5604
Rp5605
sg311
F88.85
sg315
g301
(g305
S'gDio\xf0\x956@'
p5606
tp5607
Rp5608
sg319
F2.2
sa(dp5609
g300
g301
(g305
S'\x8aY\xb6-\xe7\xd6)@'
p5610
tp5611
Rp5612
sg311
F92.25
sg315
g301
(g305
S'^\x98L\x15\x8c\xba6@'
p5613
tp5614
Rp5615
sg319
F2.5
sa(dp5616
g300
g301
(g305
S'p\xc5\x8d8\xa9\x03*@'
p5617
tp5618
Rp5619
sg311
F89.75
sg315
g301
(g305
S's\xd7\x12\xf2A\xaf6@'
p5620
tp5621
Rp5622
sg319
F1.65
sa(dp5623
g300
g301
(g305
S'\x1dAPt\xf4\x01*@'
p5624
tp5625
Rp5626
sg311
F92.05
sg315
g301
(g305
S'\x03\t\x8a\x1fc\xae6@'
p5627
tp5628
Rp5629
sg319
F2.3
sa(dp5630
g300
g301
(g305
S'\x90\xa1/\x84T4*@'
p5631
tp5632
Rp5633
sg311
F91.0
sg315
g301
(g305
S'ZB>\xe8\xd9\xcc6@'
p5634
tp5635
Rp5636
sg319
F1.7
sa(dp5637
g300
g301
(g305
S'\xe0\xceC\xcc\x01e*@'
p5638
tp5639
Rp5640
sg311
F92.05
sg315
g301
(g305
S'`vO\x1e\x16\xea6@'
p5641
tp5642
Rp5643
sg319
F1.9
sa(dp5644
g300
g301
(g305
S'\xa0s*a.\xc6)@'
p5645
tp5646
Rp5647
sg311
F88.95
sg315
g301
(g305
S'r\xd7\x12\xf2A\xdf6@'
p5648
tp5649
Rp5650
sg319
F2.4
sa(dp5651
g300
g301
(g305
S'\xcac\x1c\xb7\x97f*@'
p5652
tp5653
Rp5654
sg311
F91.0
sg315
g301
(g305
S'\xa8\x13\xd0D\xd8\xd06@'
p5655
tp5656
Rp5657
sg319
F1.85
sa(dp5658
g300
g301
(g305
S'jJV\x89\xea0*@'
p5659
tp5660
Rp5661
sg311
F90.75
sg315
g301
(g305
S'[\xb1\xbf\xec\x9e\xcc6@'
p5662
tp5663
Rp5664
sg319
F2.3
sa(dp5665
g300
g301
(g305
S'+\x8c\x1d\xa4*1*@'
p5666
tp5667
Rp5668
sg311
F91.7
sg315
g301
(g305
S'\x91~\xfb:p\xce6@'
p5669
tp5670
Rp5671
sg319
F2.2
sa(dp5672
g300
g301
(g305
S'*\xfa\x17sUN*@'
p5673
tp5674
Rp5675
sg311
F93.9
sg315
g301
(g305
S'\x9e\xab\xad\xd8_\xd66@'
p5676
tp5677
Rp5678
sg319
F1.8
sa(dp5679
g300
g301
(g305
S'\xfdI\x98\xce\xea\x96*@'
p5680
tp5681
Rp5682
sg311
F93.15
sg315
g301
(g305
S'\x0c\x02+\x87\x16\xc96@'
p5683
tp5684
Rp5685
sg319
F2.0
sa(dp5686
g300
g301
(g305
S's\xa0\xfcy\xe9\xaf*@'
p5687
tp5688
Rp5689
sg311
F91.15
sg315
g301
(g305
S'^\x98L\x15\x8c\xda6@'
p5690
tp5691
Rp5692
sg319
F2.0
sa(dp5693
g300
g301
(g305
S'\xd6`\x11-\xa0o*@'
p5694
tp5695
Rp5696
sg311
F94.05
sg315
g301
(g305
S'\xa0\x1a/\xdd$\xb66@'
p5697
tp5698
Rp5699
sg319
F2.35
sa(dp5700
g300
g301
(g305
S'\xb2\xdf\xff\xefs\xaf*@'
p5701
tp5702
Rp5703
sg311
F95.2
sg315
g301
(g305
S'\xcc2\xc4\xb1.\xbe6@'
p5704
tp5705
Rp5706
sg319
F1.85
sa(dp5707
g300
g301
(g305
S'\x185\xcdf6p)@'
p5708
tp5709
Rp5710
sg311
F90.45
sg315
g301
(g305
S'2\xa2\xb47\xf8\x826@'
p5711
tp5712
Rp5713
sg319
F1.85
sa(dp5714
g300
g301
(g305
S'\xe3\xa1\x0f\xed\xf4\xa6*@'
p5715
tp5716
Rp5717
sg311
F88.15
sg315
g301
(g305
S'\xce\x19Q\xda\x1b\xfc6@'
p5718
tp5719
Rp5720
sg319
F1.9
sa(dp5721
g300
g301
(g305
S']\x01b\xd6x\xb4*@'
p5722
tp5723
Rp5724
sg311
F90.5
sg315
g301
(g305
S'E\xb6\xf3\xfd\xd4\xe86@'
p5725
tp5726
Rp5727
sg319
F2.05
sa(dp5728
g300
g301
(g305
S'\x16\xf3\xdb\xb4\x1e\x0e+@'
p5729
tp5730
Rp5731
sg311
F93.6
sg315
g301
(g305
S'\xf6(\\\x8f\xc2\x157@'
p5732
tp5733
Rp5734
sg319
F2.2
sa(dp5735
g300
g301
(g305
S'\x98\x05-\xa5\x9b(+@'
p5736
tp5737
Rp5738
sg311
F91.4
sg315
g301
(g305
S'\x96\xb2\x0cq\xac\x1b7@'
p5739
tp5740
Rp5741
sg319
F2.0
sa(dp5742
g300
g301
(g305
S'fM\xdeX\xf5++@'
p5743
tp5744
Rp5745
sg311
F91.25
sg315
g301
(g305
S'\x0e\xe0-\x90\xa0(7@'
p5746
tp5747
Rp5748
sg319
F1.9
sa(dp5749
g300
g301
(g305
S'\x15\xd9\x99f\xf7\xcd*@'
p5750
tp5751
Rp5752
sg311
F92.95
sg315
g301
(g305
S'&\x06\x81\x95C\xeb6@'
p5753
tp5754
Rp5755
sg319
F2.1
sa(dp5756
g300
g301
(g305
S'\x82\x987\x1bJ\xeb*@'
p5757
tp5758
Rp5759
sg311
F95.7
sg315
g301
(g305
S'\x96\xd4\th"\x1c7@'
p5760
tp5761
Rp5762
sg319
F2.5
sa(dp5763
g300
g301
(g305
S'\x93\xd4:\xf3*\xaa*@'
p5764
tp5765
Rp5766
sg311
F92.15
sg315
g301
(g305
S'\xc6K7\x89A\xf06@'
p5767
tp5768
Rp5769
sg319
F1.9
sa(dp5770
g300
g301
(g305
S'\n\t\xb3\xb2\xab\x03+@'
p5771
tp5772
Rp5773
sg311
F91.1
sg315
g301
(g305
S'\xe7\x1d\xa7\xe8H\x1e7@'
p5774
tp5775
Rp5776
sg319
F2.1
sa(dp5777
g300
g301
(g305
S'r\xb3c\x91\xe4\x07+@'
p5778
tp5779
Rp5780
sg311
F93.4
sg315
g301
(g305
S'o\x81\x04\xc5\x8f\x017@'
p5781
tp5782
Rp5783
sg319
F2.4
sa(dp5784
g300
g301
(g305
S'\x03\xc8Q$\xbd.+@'
p5785
tp5786
Rp5787
sg311
F94.5
sg315
g301
(g305
S'\x8a\x1fc\xeeZ\x027@'
p5788
tp5789
Rp5790
sg319
F2.15
sa(dp5791
g300
g301
(g305
S'5\xa9\x16Lu\x16+@'
p5792
tp5793
Rp5794
sg311
F93.25
sg315
g301
(g305
S'\xf3A\xcff\xd5\xf76@'
p5795
tp5796
Rp5797
sg319
F1.75
sa(dp5798
g300
g301
(g305
S'*\x0c\x87\xb1\xb9\xb8*@'
p5799
tp5800
Rp5801
sg311
F92.45
sg315
g301
(g305
S'e\xeeZB>\xd86@'
p5802
tp5803
Rp5804
sg319
F1.75
sa(dp5805
g300
g301
(g305
S'M\xb2[\x87\xee\x01+@'
p5806
tp5807
Rp5808
sg311
F94.85
sg315
g301
(g305
S'th\x91\xed|\x0f7@'
p5809
tp5810
Rp5811
sg319
F1.55
sa(dp5812
g300
g301
(g305
S'\x9e\x02W2;\x01+@'
p5813
tp5814
Rp5815
sg311
F92.35
sg315
g301
(g305
S'$(~\x8c\xb9\x0b7@'
p5816
tp5817
Rp5818
sg319
F1.5
sa(dp5819
g300
g301
(g305
S'\x0e;\x18\x80)p*@'
p5820
tp5821
Rp5822
sg311
F90.4
sg315
g301
(g305
S'\x05\t\x8a\x1fc\xee6@'
p5823
tp5824
Rp5825
sg319
F2.05
sa(dp5826
g300
g301
(g305
S'\xcaL\x17\xd7\xf5\xaa*@'
p5827
tp5828
Rp5829
sg311
F93.35
sg315
g301
(g305
S'\x08\x8a\x1fc\xee\xfa6@'
p5830
tp5831
Rp5832
sg319
F2.0
sa(dp5833
g300
g301
(g305
S'U\xc9z,-}*@'
p5834
tp5835
Rp5836
sg311
F89.15
sg315
g301
(g305
S'\xa7W\xca2\xc4\xe16@'
p5837
tp5838
Rp5839
sg319
F2.15
sa(dp5840
g300
g301
(g305
S'8B\xaf\x04\x03\x8e*@'
p5841
tp5842
Rp5843
sg311
F91.15
sg315
g301
(g305
S'\x85Z\xd3\xbc\xe3\xe46@'
p5844
tp5845
Rp5846
sg319
F2.2
sa(dp5847
g300
g301
(g305
S'\xebe\xfe#\xad\xac*@'
p5848
tp5849
Rp5850
sg311
F89.05
sg315
g301
(g305
S'\xbf\xec\x9e<,\x047@'
p5851
tp5852
Rp5853
sg319
F1.65
sa(dp5854
g300
g301
(g305
S'8\xc6L/\xf4\xbd*@'
p5855
tp5856
Rp5857
sg311
F91.25
sg315
g301
(g305
S'\x8e\x97n\x12\x83\x107@'
p5858
tp5859
Rp5860
sg319
F1.65
sa(dp5861
g300
g301
(g305
S'\xae\xdc\x84?\xe9\xf8*@'
p5862
tp5863
Rp5864
sg311
F92.65
sg315
g301
(g305
S'5\xcd;N\xd1!7@'
p5865
tp5866
Rp5867
sg319
F1.6
sa(dp5868
g300
g301
(g305
S'\x10~\x89\x89O"+@'
p5869
tp5870
Rp5871
sg311
F91.3
sg315
g301
(g305
S"\x9d^)\xcb\x10'7@"
p5872
tp5873
Rp5874
sg319
F1.9
sa(dp5875
g300
g301
(g305
S'+\xb3u\xca\xea\x00+@'
p5876
tp5877
Rp5878
sg311
F90.35
sg315
g301
(g305
S'\x9d\xc4 \xb0r\x187@'
p5879
tp5880
Rp5881
sg319
F1.65
sa(dp5882
g300
g301
(g305
S'x\x03\xa9\xd2yK+@'
p5883
tp5884
Rp5885
sg311
F92.35
sg315
g301
(g305
S'Nb\x10X947@'
p5886
tp5887
Rp5888
sg319
F1.9
sa(dp5889
g300
g301
(g305
S'\x88\xde"r\x10;*@'
p5890
tp5891
Rp5892
sg311
F90.3529411764706
sg315
g301
(g305
S'\xd9q\x0b\xa5>\xd86@'
p5893
tp5894
Rp5895
sg319
F1.7058823529411764
sa(dp5896
g300
g301
(g305
S'\xff\xbc\xc5\x0b\xa1H*@'
p5897
tp5898
Rp5899
sg311
F86.66666666666667
sg315
g301
(g305
S'u\x05\xc8\xbd\xe6\xe26@'
p5900
tp5901
Rp5902
sg319
F2.4166666666666665
sa(dp5903
g300
g301
(g305
S'\x1e\xcb\x8a\xcf\xc1\x15+@'
p5904
tp5905
Rp5906
sg311
F92.8
sg315
g301
(g305
S'fffff\xa67@'
p5907
tp5908
Rp5909
sg319
F2.6
sa(dp5910
g300
g301
(g305
S'\xfd\x87\xf06&\x1e,@'
p5911
tp5912
Rp5913
sg311
F94.0
sg315
g301
(g305
S'\xb6\xf3\xfd\xd4x\xe96@'
p5914
tp5915
Rp5916
sg319
F3.0
satp5917
Rp5918
(dp5919
g289
I01
sg290
Nsg291
Nsg292
I0
sg293
g294
(g1
tp5920
Rp5921
sbssb.