ccopy_reg
_reconstructor
p0
(cdeap.tools.support
Logbook
p1
c__builtin__
list
p2
(lp3
(dp4
S'nevals'
p5
F500.0
sS'gen'
p6
I0
sa(dp7
g5
F865.75
sg6
I1
sa(dp8
g5
F1229.85
sg6
I2
sa(dp9
g5
F1595.85
sg6
I3
sa(dp10
g5
F1960.85
sg6
I4
sa(dp11
g5
F2327.5
sg6
I5
sa(dp12
g5
F2692.55
sg6
I6
sa(dp13
g5
F3062.15
sg6
I7
sa(dp14
g5
F3426.85
sg6
I8
sa(dp15
g5
F3795.0
sg6
I9
sa(dp16
g5
F4163.2
sg6
I10
sa(dp17
g5
F4529.15
sg6
I11
sa(dp18
g5
F4895.5
sg6
I12
sa(dp19
g5
F5256.35
sg6
I13
sa(dp20
g5
F5618.5
sg6
I14
sa(dp21
g5
F5984.4
sg6
I15
sa(dp22
g5
F6348.9
sg6
I16
sa(dp23
g5
F6716.95
sg6
I17
sa(dp24
g5
F7083.85
sg6
I18
sa(dp25
g5
F7450.15
sg6
I19
sa(dp26
g5
F7814.05
sg6
I20
sa(dp27
g5
F8179.3
sg6
I21
sa(dp28
g5
F8539.15
sg6
I22
sa(dp29
g5
F8902.35
sg6
I23
sa(dp30
g5
F9265.3
sg6
I24
sa(dp31
g5
F9632.8
sg6
I25
sa(dp32
g5
F9995.0
sg6
I26
sa(dp33
g5
F10355.85
sg6
I27
sa(dp34
g5
F10715.2
sg6
I28
sa(dp35
g5
F11077.65
sg6
I29
sa(dp36
g5
F11441.15
sg6
I30
sa(dp37
g5
F11805.65
sg6
I31
sa(dp38
g5
F12167.1
sg6
I32
sa(dp39
g5
F12529.15
sg6
I33
sa(dp40
g5
F12893.85
sg6
I34
sa(dp41
g5
F13256.75
sg6
I35
sa(dp42
g5
F13618.25
sg6
I36
sa(dp43
g5
F13981.25
sg6
I37
sa(dp44
g5
F14346.05
sg6
I38
sa(dp45
g5
F14709.65
sg6
I39
sa(dp46
g5
F15071.2
sg6
I40
sa(dp47
g5
F15435.45
sg6
I41
sa(dp48
g5
F15802.8
sg6
I42
sa(dp49
g5
F16167.5
sg6
I43
sa(dp50
g5
F16530.25
sg6
I44
sa(dp51
g5
F16893.35
sg6
I45
sa(dp52
g5
F17254.7
sg6
I46
sa(dp53
g5
F17622.2
sg6
I47
sa(dp54
g5
F17984.35
sg6
I48
sa(dp55
g5
F18351.6
sg6
I49
sa(dp56
g5
F18719.9
sg6
I50
sa(dp57
g5
F19083.2
sg6
I51
sa(dp58
g5
F19446.75
sg6
I52
sa(dp59
g5
F19809.3
sg6
I53
sa(dp60
g5
F20171.55
sg6
I54
sa(dp61
g5
F20536.25
sg6
I55
sa(dp62
g5
F20898.4
sg6
I56
sa(dp63
g5
F21261.35
sg6
I57
sa(dp64
g5
F21626.9
sg6
I58
sa(dp65
g5
F21996.2
sg6
I59
sa(dp66
g5
F22357.55
sg6
I60
sa(dp67
g5
F22719.4
sg6
I61
sa(dp68
g5
F23081.65
sg6
I62
sa(dp69
g5
F23447.15
sg6
I63
sa(dp70
g5
F23807.95
sg6
I64
sa(dp71
g5
F24168.5
sg6
I65
sa(dp72
g5
F24526.4
sg6
I66
sa(dp73
g5
F24892.6
sg6
I67
sa(dp74
g5
F25258.25
sg6
I68
sa(dp75
g5
F25627.45
sg6
I69
sa(dp76
g5
F25993.55
sg6
I70
sa(dp77
g5
F26352.75
sg6
I71
sa(dp78
g5
F26712.5
sg6
I72
sa(dp79
g5
F27074.15
sg6
I73
sa(dp80
g5
F27435.2
sg6
I74
sa(dp81
g5
F27797.25
sg6
I75
sa(dp82
g5
F28159.2
sg6
I76
sa(dp83
g5
F28521.9
sg6
I77
sa(dp84
g5
F28885.05
sg6
I78
sa(dp85
g5
F29246.1
sg6
I79
sa(dp86
g5
F29609.7
sg6
I80
sa(dp87
g5
F29974.75
sg6
I81
sa(dp88
g5
F30339.6
sg6
I82
sa(dp89
g5
F30701.1
sg6
I83
sa(dp90
g5
F31065.0
sg6
I84
sa(dp91
g5
F31425.3
sg6
I85
sa(dp92
g5
F31786.35
sg6
I86
sa(dp93
g5
F32149.9
sg6
I87
sa(dp94
g5
F32506.35
sg6
I88
sa(dp95
g5
F32868.4
sg6
I89
sa(dp96
g5
F33230.75
sg6
I90
sa(dp97
g5
F33594.15
sg6
I91
sa(dp98
g5
F33958.35
sg6
I92
sa(dp99
g5
F34320.85
sg6
I93
sa(dp100
g5
F34688.65
sg6
I94
sa(dp101
g5
F35050.6
sg6
I95
sa(dp102
g5
F35415.55
sg6
I96
sa(dp103
g5
F35778.85
sg6
I97
sa(dp104
g5
F36144.7
sg6
I98
sa(dp105
g5
F36507.45
sg6
I99
sa(dp106
g5
F36873.45
sg6
I100
sa(dp107
g5
F37231.25
sg6
I101
sa(dp108
g5
F37595.55
sg6
I102
sa(dp109
g5
F37959.15
sg6
I103
sa(dp110
g5
F38323.05
sg6
I104
sa(dp111
g5
F38685.6
sg6
I105
sa(dp112
g5
F39048.7
sg6
I106
sa(dp113
g5
F39415.6
sg6
I107
sa(dp114
g5
F39778.25
sg6
I108
sa(dp115
g5
F40141.05
sg6
I109
sa(dp116
g5
F40503.35
sg6
I110
sa(dp117
g5
F40863.35
sg6
I111
sa(dp118
g5
F41225.0
sg6
I112
sa(dp119
g5
F41587.75
sg6
I113
sa(dp120
g5
F41951.0
sg6
I114
sa(dp121
g5
F42319.55
sg6
I115
sa(dp122
g5
F42683.3
sg6
I116
sa(dp123
g5
F43045.3
sg6
I117
sa(dp124
g5
F43406.6
sg6
I118
sa(dp125
g5
F43771.1
sg6
I119
sa(dp126
g5
F44134.45
sg6
I120
sa(dp127
g5
F44498.05
sg6
I121
sa(dp128
g5
F44864.35
sg6
I122
sa(dp129
g5
F45231.1
sg6
I123
sa(dp130
g5
F45594.45
sg6
I124
sa(dp131
g5
F45956.9
sg6
I125
sa(dp132
g5
F46324.3
sg6
I126
sa(dp133
g5
F46685.15
sg6
I127
sa(dp134
g5
F47046.35
sg6
I128
sa(dp135
g5
F47409.3
sg6
I129
sa(dp136
g5
F47776.85
sg6
I130
sa(dp137
g5
F48143.05
sg6
I131
sa(dp138
g5
F48506.35
sg6
I132
sa(dp139
g5
F48871.95
sg6
I133
sa(dp140
g5
F49238.45
sg6
I134
sa(dp141
g5
F49603.4
sg6
I135
sa(dp142
g5
F49968.85
sg6
I136
sa(dp143
g5
F50327.55
sg6
I137
sa(dp144
g5
F50692.25
sg6
I138
sa(dp145
g5
F51055.45
sg6
I139
sa(dp146
g5
F51419.85
sg6
I140
sa(dp147
g5
F51783.35
sg6
I141
sa(dp148
g5
F52145.85
sg6
I142
sa(dp149
g5
F52509.45
sg6
I143
sa(dp150
g5
F52873.95
sg6
I144
sa(dp151
g5
F53238.55
sg6
I145
sa(dp152
g5
F53601.0
sg6
I146
sa(dp153
g5
F53964.35
sg6
I147
sa(dp154
g5
F54325.8
sg6
I148
sa(dp155
g5
F54691.0
sg6
I149
sa(dp156
g5
F55055.95
sg6
I150
sa(dp157
g5
F55418.35
sg6
I151
sa(dp158
g5
F55782.3
sg6
I152
sa(dp159
g5
F56144.0
sg6
I153
sa(dp160
g5
F56507.65
sg6
I154
sa(dp161
g5
F56869.9
sg6
I155
sa(dp162
g5
F57230.65
sg6
I156
sa(dp163
g5
F57591.6
sg6
I157
sa(dp164
g5
F57952.05
sg6
I158
sa(dp165
g5
F58309.95
sg6
I159
sa(dp166
g5
F58677.15
sg6
I160
sa(dp167
g5
F59040.0
sg6
I161
sa(dp168
g5
F59397.35
sg6
I162
sa(dp169
g5
F59760.6
sg6
I163
sa(dp170
g5
F60125.35
sg6
I164
sa(dp171
g5
F60488.7
sg6
I165
sa(dp172
g5
F60846.7
sg6
I166
sa(dp173
g5
F61210.25
sg6
I167
sa(dp174
g5
F61571.2
sg6
I168
sa(dp175
g5
F61937.4
sg6
I169
sa(dp176
g5
F62297.0
sg6
I170
sa(dp177
g5
F62656.55
sg6
I171
sa(dp178
g5
F63014.2
sg6
I172
sa(dp179
g5
F63375.85
sg6
I173
sa(dp180
g5
F63737.85
sg6
I174
sa(dp181
g5
F64099.8
sg6
I175
sa(dp182
g5
F64462.15
sg6
I176
sa(dp183
g5
F64826.9
sg6
I177
sa(dp184
g5
F65188.95
sg6
I178
sa(dp185
g5
F65550.95
sg6
I179
sa(dp186
g5
F65912.95
sg6
I180
sa(dp187
g5
F66279.35
sg6
I181
sa(dp188
g5
F66644.15
sg6
I182
sa(dp189
g5
F67011.75
sg6
I183
sa(dp190
g5
F67378.15
sg6
I184
sa(dp191
g5
F67740.7
sg6
I185
sa(dp192
g5
F68102.0
sg6
I186
sa(dp193
g5
F68458.65
sg6
I187
sa(dp194
g5
F68818.4
sg6
I188
sa(dp195
g5
F69184.25
sg6
I189
sa(dp196
g5
F69544.85
sg6
I190
sa(dp197
g5
F69905.55
sg6
I191
sa(dp198
g5
F70268.6
sg6
I192
sa(dp199
g5
F70629.5
sg6
I193
sa(dp200
g5
F70992.1
sg6
I194
sa(dp201
g5
F71355.7
sg6
I195
sa(dp202
g5
F71718.9
sg6
I196
sa(dp203
g5
F72080.6
sg6
I197
sa(dp204
g5
F72446.75
sg6
I198
sa(dp205
g5
F72809.3
sg6
I199
sa(dp206
g5
F73171.75
sg6
I200
sa(dp207
g5
F73535.3
sg6
I201
sa(dp208
g5
F73899.15
sg6
I202
sa(dp209
g5
F74261.45
sg6
I203
sa(dp210
g5
F74624.9
sg6
I204
sa(dp211
g5
F74986.3
sg6
I205
sa(dp212
g5
F75346.5
sg6
I206
sa(dp213
g5
F75704.6
sg6
I207
sa(dp214
g5
F76065.35
sg6
I208
sa(dp215
g5
F76429.15
sg6
I209
sa(dp216
g5
F76792.55
sg6
I210
sa(dp217
g5
F77157.65
sg6
I211
sa(dp218
g5
F77522.35
sg6
I212
sa(dp219
g5
F77886.8
sg6
I213
sa(dp220
g5
F78246.35
sg6
I214
sa(dp221
g5
F78608.75
sg6
I215
sa(dp222
g5
F78977.35
sg6
I216
sa(dp223
g5
F79338.9
sg6
I217
sa(dp224
g5
F79701.55
sg6
I218
sa(dp225
g5
F80064.85
sg6
I219
sa(dp226
g5
F80431.7
sg6
I220
sa(dp227
g5
F80797.45
sg6
I221
sa(dp228
g5
F81157.45
sg6
I222
sa(dp229
g5
F81515.3
sg6
I223
sa(dp230
g5
F81873.95
sg6
I224
sa(dp231
g5
F82234.55
sg6
I225
sa(dp232
g5
F82591.1
sg6
I226
sa(dp233
g5
F82952.0
sg6
I227
sa(dp234
g5
F83315.45
sg6
I228
sa(dp235
g5
F83679.4
sg6
I229
sa(dp236
g5
F84046.65
sg6
I230
sa(dp237
g5
F84409.7
sg6
I231
sa(dp238
g5
F84770.55
sg6
I232
sa(dp239
g5
F85132.75
sg6
I233
sa(dp240
g5
F85493.55
sg6
I234
sa(dp241
g5
F85852.5
sg6
I235
sa(dp242
g5
F86216.5
sg6
I236
sa(dp243
g5
F86580.95
sg6
I237
sa(dp244
g5
F86943.75
sg6
I238
sa(dp245
g5
F87302.6
sg6
I239
sa(dp246
g5
F87661.0
sg6
I240
sa(dp247
g5
F88025.85
sg6
I241
sa(dp248
g5
F88385.4
sg6
I242
sa(dp249
g5
F88751.5
sg6
I243
sa(dp250
g5
F89109.5
sg6
I244
sa(dp251
g5
F89468.8
sg6
I245
sa(dp252
g5
F89830.7
sg6
I246
sa(dp253
g5
F90192.75
sg6
I247
sa(dp254
g5
F90553.55
sg6
I248
sa(dp255
g5
F90912.95
sg6
I249
sa(dp256
g5
F91273.15
sg6
I250
sa(dp257
g5
F91638.9
sg6
I251
sa(dp258
g5
F92005.85
sg6
I252
sa(dp259
g5
F92362.9
sg6
I253
sa(dp260
g5
F92724.0
sg6
I254
sa(dp261
g5
F93087.9
sg6
I255
sa(dp262
g5
F93448.65
sg6
I256
sa(dp263
g5
F93809.5
sg6
I257
sa(dp264
g5
F94170.8
sg6
I258
sa(dp265
g5
F94532.0
sg6
I259
sa(dp266
g5
F94891.6
sg6
I260
sa(dp267
g5
F95254.05
sg6
I261
sa(dp268
g5
F95617.15
sg6
I262
sa(dp269
g5
F95982.0
sg6
I263
sa(dp270
g5
F96341.95
sg6
I264
sa(dp271
g5
F96707.35
sg6
I265
sa(dp272
g5
F97069.9
sg6
I266
sa(dp273
g5
F97431.25
sg6
I267
sa(dp274
g5
F97795.05
sg6
I268
sa(dp275
g5
F98154.05
sg6
I269
sa(dp276
g5
F98517.9
sg6
I270
sa(dp277
g5
F98884.55
sg6
I271
sa(dp278
g5
F99245.5
sg6
I272
sa(dp279
g5
F99498.11111111111
sg6
I273
sa(dp280
g5
F99626.46153846153
sg6
I274
sa(dp281
g5
F99676.625
sg6
I275
sa(dp282
g5
F99885.0
sg6
I276
sa(dp283
g5
F99748.5
sg6
I277
sa(dp284
g5
F99486.0
sg6
I278
sa(dp285
g5
F99849.0
sg6
I279
sa(dp286
g5
F100216.0
sg6
I280
satp287
Rp288
(dp289
S'log_header'
p290
I01
sS'header'
p291
NsS'columns_len'
p292
NsS'buffindex'
p293
I0
sS'chapters'
p294
ccollections
defaultdict
p295
(g1
tp296
Rp297
S'fitness'
p298
g0
(g1
g2
(lp299
(dp300
S'std'
p301
cnumpy.core.multiarray
scalar
p302
(cnumpy
dtype
p303
(S'f8'
p304
I0
I1
tp305
Rp306
(I3
S'<'
p307
NNNI-1
I-1
I0
tp308
bS'\xf3\x04N\xec\xf5E\xfb?'
p309
tp310
Rp311
sS'max'
p312
g302
(g306
S'\x021nBX\x9c1@'
p313
tp314
Rp315
sS'avg'
p316
g302
(g306
S'\xee]o\xeb\x00k\xf9?'
p317
tp318
Rp319
sS'min'
p320
g302
(g306
S'#\x12W^\x8a\\\xa4?'
p321
tp322
Rp323
sa(dp324
g301
g302
(g306
S'\x84\xd8\x87\x1f\xff\x19\xe7?'
p325
tp326
Rp327
sg312
g302
(g306
S'\xe8\x94\x87Ri\xb0\x1a@'
p328
tp329
Rp330
sg316
g302
(g306
S'\x82\x8b\xc8\xf3\x9e\x97\xea?'
p331
tp332
Rp333
sg320
g302
(g306
S'\x18\xc8\x11=\xb9>\xa1?'
p334
tp335
Rp336
sa(dp337
g301
g302
(g306
S'\xc6B\x18\x98\xcel\xe8?'
p338
tp339
Rp340
sg312
g302
(g306
S'x;\x86\xbd\xec\xf4"@'
p341
tp342
Rp343
sg316
g302
(g306
S'\xba\xdc\x97\x93 8\xe2?'
p344
tp345
Rp346
sg320
g302
(g306
S'\xf3\x98\xc2/gI\x95?'
p347
tp348
Rp349
sa(dp350
g301
g302
(g306
S'\x8c\xe1R\xd9[v\xe5?'
p351
tp352
Rp353
sg312
g302
(g306
S'p\x87\xae\x8dv\xe3\x1c@'
p354
tp355
Rp356
sg316
g302
(g306
S'\xde\xa9\xb5!\x97\xe5\xdc?'
p357
tp358
Rp359
sg320
g302
(g306
S'uNg\xb2u,\x91?'
p360
tp361
Rp362
sa(dp363
g301
g302
(g306
S'\xcc\xac\xd1\x9e\x92i\xe4?'
p364
tp365
Rp366
sg312
g302
(g306
S'\x16Iw\xb4\xca\xfe\x18@'
p367
tp368
Rp369
sg316
g302
(g306
S'~\xb7\x83"\x07\xb1\xd8?'
p370
tp371
Rp372
sg320
g302
(g306
S'uG6\xbf\xb0\xe8\x8d?'
p373
tp374
Rp375
sa(dp376
g301
g302
(g306
S'\xe2R\xfe0iS\xe8?'
p377
tp378
Rp379
sg312
g302
(g306
S'SG\xf07\x95\x80"@'
p380
tp381
Rp382
sg316
g302
(g306
S'sKQ\xfe\xd3[\xd6?'
p383
tp384
Rp385
sg320
g302
(g306
S'\xae<a\xec1O\x85?'
p386
tp387
Rp388
sa(dp389
g301
g302
(g306
S'\xf6\x88M\xb4\x19\xd4\xe8?'
p390
tp391
Rp392
sg312
g302
(g306
S'~\xe7&P\x15\xda\x1f@'
p393
tp394
Rp395
sg316
g302
(g306
S'\xf6@j\x80]\x83\xd6?'
p396
tp397
Rp398
sg320
g302
(g306
S'*\x11f\xe2o\xde\x83?'
p399
tp400
Rp401
sa(dp402
g301
g302
(g306
S'\xf8x\xe4Q)\x90\xea?'
p403
tp404
Rp405
sg312
g302
(g306
S'\xb3h\xb1I\x9b* @'
p406
tp407
Rp408
sg316
g302
(g306
S'\xbaJ\xbbAW\xcd\xd6?'
p409
tp410
Rp411
sg320
g302
(g306
S'\x83\x85\xc0\xb5\x06\xfb\x80?'
p412
tp413
Rp414
sa(dp415
g301
g302
(g306
S'\x00\xde\xf1\x87\xb6\x82\xea?'
p416
tp417
Rp418
sg312
g302
(g306
S'\xb2\xbaG\xc9\xba\xfd!@'
p419
tp420
Rp421
sg316
g302
(g306
S'\x11\x93\xba\x13\x80\x90\xd6?'
p422
tp423
Rp424
sg320
g302
(g306
S'\x16\x92\xfc*\xacHu?'
p425
tp426
Rp427
sa(dp428
g301
g302
(g306
S'\x16.K\xd3\xd1(\xee?'
p429
tp430
Rp431
sg312
g302
(g306
S'(jM\x19Ve%@'
p432
tp433
Rp434
sg316
g302
(g306
S'\xd1\xe5b\xfd\xff\xde\xd7?'
p435
tp436
Rp437
sg320
g302
(g306
S'\xf1\xd7\xea m\xcct?'
p438
tp439
Rp440
sa(dp441
g301
g302
(g306
S"\xebv\xce\x02\xd4'\xef?"
p442
tp443
Rp444
sg312
g302
(g306
S'\xf1G\x01\xec6X%@'
p445
tp446
Rp447
sg316
g302
(g306
S'2\x05\x81,\xf2\xfe\xd7?'
p448
tp449
Rp450
sg320
g302
(g306
S'\xfa\xb8|`\x94\xf2s?'
p451
tp452
Rp453
sa(dp454
g301
g302
(g306
S'X\xe9\xf4\xd0\\\xbe\xeb?'
p455
tp456
Rp457
sg312
g302
(g306
S'Gqc\xba\xdd6$@'
p458
tp459
Rp460
sg316
g302
(g306
S'zl\xf9S\xcb\x95\xd5?'
p461
tp462
Rp463
sg320
g302
(g306
S'\x04%\xf2i\x80\xfcr?'
p464
tp465
Rp466
sa(dp467
g301
g302
(g306
S'\x08\xa8J=\x13\xeb\xeb?'
p468
tp469
Rp470
sg312
g302
(g306
S'\xf8\xb10*\xebY%@'
p471
tp472
Rp473
sg316
g302
(g306
S'r\n\r\xce\x7fR\xd4?'
p474
tp475
Rp476
sg320
g302
(g306
S'^\xb7r\xdf\xb8\xf4k?'
p477
tp478
Rp479
sa(dp480
g301
g302
(g306
S'\xe0^\x83\xb2>\xd5\xf5?'
p481
tp482
Rp483
sg312
g302
(g306
S'.\xf7\x18\xc4\xfa\xd65@'
p484
tp485
Rp486
sg316
g302
(g306
S'\x02\x85D\xc5\xa6\x1e\xd5?'
p487
tp488
Rp489
sg320
g302
(g306
S"\x1d'\xee\x15\xef%j?"
p490
tp491
Rp492
sa(dp493
g301
g302
(g306
S'\x16\x14\x95\x01n\x97\xec?'
p494
tp495
Rp496
sg312
g302
(g306
S'\xee!8\x0fnr$@'
p497
tp498
Rp499
sg316
g302
(g306
S'\x02\xe3\x10\xfa\xcb\xf1\xd2?'
p500
tp501
Rp502
sg320
g302
(g306
S'\xf8\xeeL\x92\xc2\xd2d?'
p503
tp504
Rp505
sa(dp506
g301
g302
(g306
S'\xa6\x98<\x07\xfeb\xed?'
p507
tp508
Rp509
sg312
g302
(g306
S"^\xac\x14\xe70v'@"
p510
tp511
Rp512
sg316
g302
(g306
S'\xdb1C\xbeOQ\xd3?'
p513
tp514
Rp515
sg320
g302
(g306
S'f\xa3\xde\x95w\xff`?'
p516
tp517
Rp518
sa(dp519
g301
g302
(g306
S'f5\xa0\xc6\xb5)\xea?'
p520
tp521
Rp522
sg312
g302
(g306
S'O\x89\x93\xc1\x8cJ"@'
p523
tp524
Rp525
sg316
g302
(g306
S'\xc6~\xb9Q!\xbf\xd2?'
p526
tp527
Rp528
sg320
g302
(g306
S'\x90\xc7\xae\xcf\x9b\xd1^?'
p529
tp530
Rp531
sa(dp532
g301
g302
(g306
S'\xea\xbf\xae\x8a:1\xea?'
p533
tp534
Rp535
sg312
g302
(g306
S'\xe8\x13\xb9\xbc\xea\xc8"@'
p536
tp537
Rp538
sg316
g302
(g306
S'\x8e\xba\x04{\xd3\\\xd2?'
p539
tp540
Rp541
sg320
g302
(g306
S'k\xf2F\xa8\x9b\xd1^?'
p542
tp543
Rp544
sa(dp545
g301
g302
(g306
S'\xec\x89];0&\xe9?'
p546
tp547
Rp548
sg312
g302
(g306
S'\x1dq\x9dpQ\xcd\x1f@'
p549
tp550
Rp551
sg316
g302
(g306
S'3E\x82<\x18Z\xd2?'
p552
tp553
Rp554
sg320
g302
(g306
S'\xe6\x1d\xc6\xb3\x9a\x95]?'
p555
tp556
Rp557
sa(dp558
g301
g302
(g306
S'\xeb\xc4\xeeF2\xd2\xea?'
p559
tp560
Rp561
sg312
g302
(g306
S'\x02\x88\x1d0\xc58%@'
p562
tp563
Rp564
sg316
g302
(g306
S'"}\xc5\x11\xb37\xd2?'
p565
tp566
Rp567
sg320
g302
(g306
S'\xaa\n-Fh\xf5Z?'
p568
tp569
Rp570
sa(dp571
g301
g302
(g306
S'\xd9\x02\xea\xf4\xcd\n\xe9?'
p572
tp573
Rp574
sg312
g302
(g306
S'\xfc$\xa0\xbb\xbd\xda#@'
p575
tp576
Rp577
sg316
g302
(g306
S'@R\xeb\xc4\x82\xaa\xd0?'
p578
tp579
Rp580
sg320
g302
(g306
S'/\x0f?\x00>ET?'
p581
tp582
Rp583
sa(dp584
g301
g302
(g306
S'^1\xcf\xd7#\xaa\xea?'
p585
tp586
Rp587
sg312
g302
(g306
S'*\x99\xf5\xf0\xea\xbd"@'
p588
tp589
Rp590
sg316
g302
(g306
S'J\xa6">\xbev\xd1?'
p591
tp592
Rp593
sg320
g302
(g306
S'\xb6\xd4\xb6_\xb4\xbfY?'
p594
tp595
Rp596
sa(dp597
g301
g302
(g306
S'\xe7r\r\x85\xbb\xa6\xe6?'
p598
tp599
Rp600
sg312
g302
(g306
S'\x95>\x95\xe5\xc9h\x1e@'
p601
tp602
Rp603
sg316
g302
(g306
S'Q\xbeQ\xa4\xc7\x8f\xd0?'
p604
tp605
Rp606
sg320
g302
(g306
S'\rN\x12+\x0c\xb9M?'
p607
tp608
Rp609
sa(dp610
g301
g302
(g306
S'\xef\x82r\xfe\rd\xe6?'
p611
tp612
Rp613
sg312
g302
(g306
S'Sqt\xbb\xfe\x9c\x1d@'
p614
tp615
Rp616
sg316
g302
(g306
S'#\xd7\xcf@\xd9\x1a\xcf?'
p617
tp618
Rp619
sg320
g302
(g306
S'\x0b[(\x88\xa4\xf1N?'
p620
tp621
Rp622
sa(dp623
g301
g302
(g306
S'N\x12\x8a&\x9dP\xe8?'
p624
tp625
Rp626
sg312
g302
(g306
S'\xe7\xab\\\xb5\xf3< @'
p627
tp628
Rp629
sg316
g302
(g306
S'\xbaR\xbe\xa9X\xfb\xd0?'
p630
tp631
Rp632
sg320
g302
(g306
S'6:\xa8\xf3\xdc\x12P?'
p633
tp634
Rp635
sa(dp636
g301
g302
(g306
S'KZ\xd5\xc4\xa2\x14\xe8?'
p637
tp638
Rp639
sg312
g302
(g306
S'\xc8\xfb}\x87]\xd5!@'
p640
tp641
Rp642
sg316
g302
(g306
S'\x02@\xe5)\x90\xd4\xd0?'
p643
tp644
Rp645
sg320
g302
(g306
S'\xce\x8e\xda\xf9+\xbdL?'
p646
tp647
Rp648
sa(dp649
g301
g302
(g306
S'\xf0j\x01)\xecP\xe9?'
p650
tp651
Rp652
sg312
g302
(g306
S'\xb4V=\x0e9)#@'
p653
tp654
Rp655
sg316
g302
(g306
S'w\xfa\xb5Q$\xbf\xd1?'
p656
tp657
Rp658
sg320
g302
(g306
S'\xce\x8e\xda\xf9+\xbdL?'
p659
tp660
Rp661
sa(dp662
g301
g302
(g306
S'\xa5e)\t\xd5\xfb\xe7?'
p663
tp664
Rp665
sg312
g302
(g306
S'\xc2v\x89\x92\xa3* @'
p666
tp667
Rp668
sg316
g302
(g306
S'i3\xab\x14i\xa6\xd2?'
p669
tp670
Rp671
sg320
g302
(g306
S'\x93\xc5\x88\x1b\x92#K?'
p672
tp673
Rp674
sa(dp675
g301
g302
(g306
S'!\xcc\xab1\xd9\x04\xe9?'
p676
tp677
Rp678
sg312
g302
(g306
S'7\xa8\xbb#o}"@'
p679
tp680
Rp681
sg316
g302
(g306
S'\xb0\xb3*N\x04S\xd1?'
p682
tp683
Rp684
sg320
g302
(g306
S'\x18Qt\xcdljH?'
p685
tp686
Rp687
sa(dp688
g301
g302
(g306
S'\x06\x1e\x82\x05jF\xe9?'
p689
tp690
Rp691
sg312
g302
(g306
S'\xbdr\xdc\x85\xdau @'
p692
tp693
Rp694
sg316
g302
(g306
S'\xd6\x06\x10h\x16\x96\xd3?'
p695
tp696
Rp697
sg320
g302
(g306
S'b;\x89\xa2\xb2lH?'
p698
tp699
Rp700
sa(dp701
g301
g302
(g306
S'\xc6\xff\x05CD\x97\xf2?'
p702
tp703
Rp704
sg312
g302
(g306
S'\x9a\xc8\x88\xc6;\xd81@'
p705
tp706
Rp707
sg316
g302
(g306
S'\x1cL\xf2\x8e\xd4r\xd3?'
p708
tp709
Rp710
sg320
g302
(g306
S'\xff\xb9\x81\x01\xbaxH?'
p711
tp712
Rp713
sa(dp714
g301
g302
(g306
S'\x9bj\\\x11>\xa0\xe6?'
p715
tp716
Rp717
sg312
g302
(g306
S'\xbdr\xf5\xfc\x19\x07\x1d@'
p718
tp719
Rp720
sg316
g302
(g306
S'8\x93TJ\xee\xc2\xd0?'
p721
tp722
Rp723
sg320
g302
(g306
S'\x15:\t\xcd\x86mH?'
p724
tp725
Rp726
sa(dp727
g301
g302
(g306
S'\x8e\xf0]\x19\xf6\x7f\xe6?'
p728
tp729
Rp730
sg312
g302
(g306
S'\x82\xd3\xf5\x8b\xfe\xa6\x1b@'
p731
tp732
Rp733
sg316
g302
(g306
S'\x9e~\x1bJ\x9c0\xd1?'
p734
tp735
Rp736
sg320
g302
(g306
S'u\nQ\x88\x86mH?'
p737
tp738
Rp739
sa(dp740
g301
g302
(g306
S'-q\xa3\xd4\xcc\xd4\x01@'
p741
tp742
Rp743
sg312
g302
(g306
S'W\xa5\xe1\xf8S\xb4A@'
p744
tp745
Rp746
sg316
g302
(g306
S'\xcb\xb9\xf0a\x80\x0e\xd8?'
p747
tp748
Rp749
sg320
g302
(g306
S'u\nQ\x88\x86mH?'
p750
tp751
Rp752
sa(dp753
g301
g302
(g306
S'_\xc6"\xc4\x97S\xe9?'
p754
tp755
Rp756
sg312
g302
(g306
S'\xd1\xd5\x12\xc0\x9b\t#@'
p757
tp758
Rp759
sg316
g302
(g306
S'\xf43\x8b\xd0h\xf4\xd0?'
p760
tp761
Rp762
sg320
g302
(g306
S':U\x19:\xc3OE?'
p763
tp764
Rp765
sa(dp766
g301
g302
(g306
S'\x90\xde\xdbN.-\xe8?'
p767
tp768
Rp769
sg312
g302
(g306
S'\x9bc\x9a\x94\xdf\xcc"@'
p770
tp771
Rp772
sg316
g302
(g306
S'\xaf&S\xcb\xdb8\xd0?'
p773
tp774
Rp775
sg320
g302
(g306
S'o\x9a\n\xac\x03wF?'
p776
tp777
Rp778
sa(dp779
g301
g302
(g306
S'&\x0f\xae\xa6\x83\xce\xf1?'
p780
tp781
Rp782
sg312
g302
(g306
S'\x92\x84\xd3\xea*O/@'
p783
tp784
Rp785
sg316
g302
(g306
S'\xb2\x9bn6\xd2\x8d\xd2?'
p786
tp787
Rp788
sg320
g302
(g306
S'\xbe\x1f\x06\x06]\x05E?'
p789
tp790
Rp791
sa(dp792
g301
g302
(g306
S'\x0c\xfeY\x0b_\xfc\xe5?'
p793
tp794
Rp795
sg312
g302
(g306
S'\n|S\xaa\xeb!\x1f@'
p796
tp797
Rp798
sg316
g302
(g306
S'\xde"X\xa9c\x11\xd0?'
p799
tp800
Rp801
sg320
g302
(g306
S'o\x9a\n\xac\x03wF?'
p802
tp803
Rp804
sa(dp805
g301
g302
(g306
S'\xe2}W\xccp\xb6\xfa?'
p806
tp807
Rp808
sg312
g302
(g306
S'+W\xbd\x9d\x10\x0c>@'
p809
tp810
Rp811
sg316
g302
(g306
S'J\xcem\xb9\xf0C\xd3?'
p812
tp813
Rp814
sg320
g302
(g306
S'\x8e\xf5U\x16\x82TF?'
p815
tp816
Rp817
sa(dp818
g301
g302
(g306
S'\x12\xb3\xd6\x9c\x8b\xdb\xe5?'
p819
tp820
Rp821
sg312
g302
(g306
S'\xf0\xa5\x98\x01\xdc\xf3\x1c@'
p822
tp823
Rp824
sg316
g302
(g306
S'\x169`\xb7\xb9&\xce?'
p825
tp826
Rp827
sg320
g302
(g306
S'Z\xb0d\xa4A-E?'
p828
tp829
Rp830
sa(dp831
g301
g302
(g306
S'k\xd1\xb5\x9c^A\xe4?'
p832
tp833
Rp834
sg312
g302
(g306
S'0\x03\xaf<\x00\x82\x18@'
p835
tp836
Rp837
sg316
g302
(g306
S'\xe8\x80 \x10\x88\x85\xce?'
p838
tp839
Rp840
sg320
g302
(g306
S']!G\xa6\xd6\x91B?'
p841
tp842
Rp843
sa(dp844
g301
g302
(g306
S'\xb8\x15\x12\xf3\xd9\xa9\xe5?'
p845
tp846
Rp847
sg312
g302
(g306
S'\xb3\x93\xfb\xa9\xc6\x8e\x1d@'
p848
tp849
Rp850
sg316
g302
(g306
S'U\xb1n?\x7f\xad\xcf?'
p851
tp852
Rp853
sg320
g302
(g306
S'Y\x1e\xb1\xdct\x80@?'
p854
tp855
Rp856
sa(dp857
g301
g302
(g306
S'f\x88\x08\xd8\x99=\xe5?'
p858
tp859
Rp860
sg312
g302
(g306
S'\xbb\x93l\xdf\x1f\xfe\x1c@'
p861
tp862
Rp863
sg316
g302
(g306
S':\x1c\x0bQ\xc8v\xce?'
p864
tp865
Rp866
sg320
g302
(g306
S'[\xb1NGk\x91>?'
p867
tp868
Rp869
sa(dp870
g301
g302
(g306
S'\xd6\xc6\xf4\x88Q \xe8?'
p871
tp872
Rp873
sg312
g302
(g306
S'\xb7\x9d7ZU| @'
p874
tp875
Rp876
sg316
g302
(g306
S'\xb5\xd4\x1a\xda\xb0\x9b\xcf?'
p877
tp878
Rp879
sg320
g302
(g306
S'\xf0&lc\xeaB<?'
p880
tp881
Rp882
sa(dp883
g301
g302
(g306
S'\x8d\xbd\xebzlb\xe9?'
p884
tp885
Rp886
sg312
g302
(g306
S'NTm\xf1\x00\xdc @'
p887
tp888
Rp889
sg316
g302
(g306
S'8}!\x0b\x06\x9a\xd0?'
p890
tp891
Rp892
sg320
g302
(g306
S'\xb3\xf7 \x9f\xc3M<?'
p893
tp894
Rp895
sa(dp896
g301
g302
(g306
S'\x9e\x94h5B=\xe7?'
p897
tp898
Rp899
sg312
g302
(g306
S'#\xf7\xaa0^\xe9 @'
p900
tp901
Rp902
sg316
g302
(g306
S'\xd3T]\x17(?\xcf?'
p903
tp904
Rp905
sg320
g302
(g306
S'(\xca\xee\x01\x96\x8e;?'
p906
tp907
Rp908
sa(dp909
g301
g302
(g306
S'\x9acxXC\xa6\xe3?'
p910
tp911
Rp912
sg312
g302
(g306
S'uy\xb4\xa8\xbc\xcf\x1a@'
p913
tp914
Rp915
sg316
g302
(g306
S'v|\xe3N\x95O\xcd?'
p916
tp917
Rp918
sg320
g302
(g306
S'\x12F\xd2\xf9\x0e\xa87?'
p919
tp920
Rp921
sa(dp922
g301
g302
(g306
S'\xde\xe8#w\x1e8\xe6?'
p923
tp924
Rp925
sg312
g302
(g306
S'}\xb7\x8e,\xa8K\x1d@'
p926
tp927
Rp928
sg316
g302
(g306
S'\xd3\xbe\xde\xa6(\x04\xd0?'
p929
tp930
Rp931
sg320
g302
(g306
S"\xb9\x9a\xda'\x81\x8e1?"
p932
tp933
Rp934
sa(dp935
g301
g302
(g306
S'Q\x9c\xda|+"\xe9?'
p936
tp937
Rp938
sg312
g302
(g306
S"\x7f\xf9\xc1\xf7o' @"
p939
tp940
Rp941
sg316
g302
(g306
S'V\x82\xbc6\xa6d\xd1?'
p942
tp943
Rp944
sg320
g302
(g306
S'\x86q\x83\x99\x0c\x8e1?'
p945
tp946
Rp947
sa(dp948
g301
g302
(g306
S'x\x18\x8bvX\xe3\xe5?'
p949
tp950
Rp951
sg312
g302
(g306
S'\xd2\x1c\x01\x96\xd7K\x1d@'
p952
tp953
Rp954
sg316
g302
(g306
S'\xae`jh\xf5\xd5\xce?'
p955
tp956
Rp957
sg320
g302
(g306
S'\x12\xc2ND+\x8e1?'
p958
tp959
Rp960
sa(dp961
g301
g302
(g306
S'~\xb5\x11\xafR\x07\xe4?'
p962
tp963
Rp964
sg312
g302
(g306
S'\x98l\xc6\x17\x1b\xac\x1a@'
p965
tp966
Rp967
sg316
g302
(g306
S'\x95\xe3D~l\x18\xcf?'
p968
tp969
Rp970
sg320
g302
(g306
S'\x9a\xbb\x1eT"\xf0%?'
p971
tp972
Rp973
sa(dp974
g301
g302
(g306
S'0\x01\x9e\xf7b6\xe8?'
p975
tp976
Rp977
sg312
g302
(g306
S'Fu \x086u\x1f@'
p978
tp979
Rp980
sg316
g302
(g306
S'\xb7R\xb4r\x13\x10\xd1?'
p981
tp982
Rp983
sg320
g302
(g306
S'\xe6/\xc0Ek\xd3(?'
p984
tp985
Rp986
sa(dp987
g301
g302
(g306
S'\xeb\xeaa2\x7f\x93\xe6?'
p988
tp989
Rp990
sg312
g302
(g306
S'C\xc6\xc7\xfc\x0fA\x1e@'
p991
tp992
Rp993
sg316
g302
(g306
S'\xf7\xddCR\xd4\x9a\xd0?'
p994
tp995
Rp996
sg320
g302
(g306
S"C\xae+\x1b\xa6]'?"
p997
tp998
Rp999
sa(dp1000
g301
g302
(g306
S'\x19\xf57\x9e\\\xaf\xe4?'
p1001
tp1002
Rp1003
sg312
g302
(g306
S'`\x90\x8cH\x9bS\x1b@'
p1004
tp1005
Rp1006
sg316
g302
(g306
S'0}\xfa|w\xc7\xce?'
p1007
tp1008
Rp1009
sg320
g302
(g306
S"C\xae+\x1b\xa6]'?"
p1010
tp1011
Rp1012
sa(dp1013
g301
g302
(g306
S'\xef\xf8\xcd\xd0H\xb3\xe8?'
p1014
tp1015
Rp1016
sg312
g302
(g306
S'\x1a\xb0}\x92\xd05 @'
p1017
tp1018
Rp1019
sg316
g302
(g306
S'\xf6\xdc\xb3>+M\xd1?'
p1020
tp1021
Rp1022
sg320
g302
(g306
S'l\xb9\xea\x0b{N"?'
p1023
tp1024
Rp1025
sa(dp1026
g301
g302
(g306
S'a\x80h\xfc\xbd\x03\xe6?'
p1027
tp1028
Rp1029
sg312
g302
(g306
S"n\xeai\x1a\xe3'!@"
p1030
tp1031
Rp1032
sg316
g302
(g306
S'\x8e\xa6a\xb6\x19\x7f\xcf?'
p1033
tp1034
Rp1035
sg320
g302
(g306
S'\xda\xf27a\x0b\xa4"?'
p1036
tp1037
Rp1038
sa(dp1039
g301
g302
(g306
S'\x0e\xb3\xec(\x13\xcd\xe3?'
p1040
tp1041
Rp1042
sg312
g302
(g306
S'%\x0fq\x87\xe6,\x1b@'
p1043
tp1044
Rp1045
sg316
g302
(g306
S'\x9d\xff\x17\x83v4\xce?'
p1046
tp1047
Rp1048
sg320
g302
(g306
S'\xda\xf27a\x0b\xa4"?'
p1049
tp1050
Rp1051
sa(dp1052
g301
g302
(g306
S'\xe6\xde!\xa4\x96_\xef?'
p1053
tp1054
Rp1055
sg312
g302
(g306
S'[,\xac\x95ZE&@'
p1056
tp1057
Rp1058
sg316
g302
(g306
S'\x9e\xc0cg\xa0\x19\xd3?'
p1059
tp1060
Rp1061
sg320
g302
(g306
S"\x01\x9f\x94\xbao]'?"
p1062
tp1063
Rp1064
sa(dp1065
g301
g302
(g306
S'L\x8e\xc8[\xb4\x85\xe7?'
p1066
tp1067
Rp1068
sg312
g302
(g306
S'\x1b\xda\x96\x93\xea\x97\x1e@'
p1069
tp1070
Rp1071
sg316
g302
(g306
S'\x084q\xdc\xf7\xcb\xcf?'
p1072
tp1073
Rp1074
sg320
g302
(g306
S"\x01\x9f\x94\xbao]'?"
p1075
tp1076
Rp1077
sa(dp1078
g301
g302
(g306
S'd\xd8\xf9\x06\x92p\xe6?'
p1079
tp1080
Rp1081
sg312
g302
(g306
S'#\xf2Z\xec\xd4\xac\x1f@'
p1082
tp1083
Rp1084
sg316
g302
(g306
S' 7\x06x(1\xce?'
p1085
tp1086
Rp1087
sg320
g302
(g306
S'\xbc\xf5\xd9\xfex\xa1&?'
p1088
tp1089
Rp1090
sa(dp1091
g301
g302
(g306
S'@9\xb9<\x80S\xe8?'
p1092
tp1093
Rp1094
sg312
g302
(g306
S'^\xd9\xd87Nr @'
p1095
tp1096
Rp1097
sg316
g302
(g306
S'\x05\xda\xc3\xe3\xc7\xe3\xd0?'
p1098
tp1099
Rp1100
sg320
g302
(g306
S"\x90\x10:U\xaf<'?"
p1101
tp1102
Rp1103
sa(dp1104
g301
g302
(g306
S'\xa0\xcfsr\x97\xae\xe7?'
p1105
tp1106
Rp1107
sg312
g302
(g306
S'.\xf1Fk)\xc9\x1c@'
p1108
tp1109
Rp1110
sg316
g302
(g306
S'\xe1fO\x0e\xacp\xd0?'
p1111
tp1112
Rp1113
sg320
g302
(g306
S'pp\x94\xe9y\xa7&?'
p1114
tp1115
Rp1116
sa(dp1117
g301
g302
(g306
S'\xc6\xcd?\x8f=\xe6\xea?'
p1118
tp1119
Rp1120
sg312
g302
(g306
S'\xac\x9b\xe9\xa9\xdf\xa8"@'
p1121
tp1122
Rp1123
sg316
g302
(g306
S'^WR\x94\x9eH\xd1?'
p1124
tp1125
Rp1126
sg320
g302
(g306
S'&\xcee|\xa1\xdc%?'
p1127
tp1128
Rp1129
sa(dp1130
g301
g302
(g306
S'\x91R\x86\x9b\x94\x07\xe7?'
p1131
tp1132
Rp1133
sg312
g302
(g306
S'\xc08\xa0\x10\x0e( @'
p1134
tp1135
Rp1136
sg316
g302
(g306
S'\x89\x079\xec\xb4|\xd0?'
p1137
tp1138
Rp1139
sg320
g302
(g306
S'%\xcee|\xa1\xdc%?'
p1140
tp1141
Rp1142
sa(dp1143
g301
g302
(g306
S'\xe5Y\x91\xe1\x1d\xf8\xe6?'
p1144
tp1145
Rp1146
sg312
g302
(g306
S'\n\xfb(\xa8\x11\xd3!@'
p1147
tp1148
Rp1149
sg316
g302
(g306
S'\xf2r9\xf19\x0b\xcf?'
p1150
tp1151
Rp1152
sg320
g302
(g306
S'\xa6\xeb\xf2\xdbG\xd6 ?'
p1153
tp1154
Rp1155
sa(dp1156
g301
g302
(g306
S'\xa25\x80U\xda\xf3\xe6?'
p1157
tp1158
Rp1159
sg312
g302
(g306
S'^\xbe@_2L!@'
p1160
tp1161
Rp1162
sg316
g302
(g306
S'\x03\x02\x9c\xf7\xd9M\xce?'
p1163
tp1164
Rp1165
sg320
g302
(g306
S'\xa6\xeb\xf2\xdbG\xd6 ?'
p1166
tp1167
Rp1168
sa(dp1169
g301
g302
(g306
S'\x13\x99\x94\xa1\x1e\xdc\xe7?'
p1170
tp1171
Rp1172
sg312
g302
(g306
S'\x85\xa2d\x92\xaf\xd8\x1c@'
p1173
tp1174
Rp1175
sg316
g302
(g306
S'\x05\xec\xee\xb6\x84\\\xd0?'
p1176
tp1177
Rp1178
sg320
g302
(g306
S'\xa6\xeb\xf2\xdbG\xd6 ?'
p1179
tp1180
Rp1181
sa(dp1182
g301
g302
(g306
S"T'>U_\xe0\xe6?"
p1183
tp1184
Rp1185
sg312
g302
(g306
S'(cE3\x88\x16\x1a@'
p1186
tp1187
Rp1188
sg316
g302
(g306
S'J\xdd\x0b\xf3\xef\xa7\xd0?'
p1189
tp1190
Rp1191
sg320
g302
(g306
S'\xa6\xeb\xf2\xdbG\xd6 ?'
p1192
tp1193
Rp1194
sa(dp1195
g301
g302
(g306
S'\xba\x04\tDJP\xe9?'
p1196
tp1197
Rp1198
sg312
g302
(g306
S'So-\xdb3\xdb"@'
p1199
tp1200
Rp1201
sg316
g302
(g306
S'\x02w\x82\x0chx\xd0?'
p1202
tp1203
Rp1204
sg320
g302
(g306
S'\xa7\xeb\xf2\xdbG\xd6 ?'
p1205
tp1206
Rp1207
sa(dp1208
g301
g302
(g306
S'b\x82W\xce\xa5\xfd\xe5?'
p1209
tp1210
Rp1211
sg312
g302
(g306
S'3J\xe75\xed@\x1c@'
p1212
tp1213
Rp1214
sg316
g302
(g306
S'\xd6WR6j\x90\xd0?'
p1215
tp1216
Rp1217
sg320
g302
(g306
S'\xa7\xeb\xf2\xdbG\xd6 ?'
p1218
tp1219
Rp1220
sa(dp1221
g301
g302
(g306
S'\xb9\n\xf3n\xce\xba\xe6?'
p1222
tp1223
Rp1224
sg312
g302
(g306
S'\x9a\x8d\xa9\x83\xbe\xfe\x1e@'
p1225
tp1226
Rp1227
sg316
g302
(g306
S'\xce\x16\xc3\xd9\x8d\xb1\xcf?'
p1228
tp1229
Rp1230
sg320
g302
(g306
S'\xa7\xeb\xf2\xdbG\xd6 ?'
p1231
tp1232
Rp1233
sa(dp1234
g301
g302
(g306
S'zh\xdfR\x17\x88\xea?'
p1235
tp1236
Rp1237
sg312
g302
(g306
S'\x11\x12\xc5|\x92\xa5$@'
p1238
tp1239
Rp1240
sg316
g302
(g306
S'|\xfc\xf8\xff\xb4\xb7\xd0?'
p1241
tp1242
Rp1243
sg320
g302
(g306
S'\xa7\xeb\xf2\xdbG\xd6 ?'
p1244
tp1245
Rp1246
sa(dp1247
g301
g302
(g306
S'*\x04\x81~j\xdb\xe8?'
p1248
tp1249
Rp1250
sg312
g302
(g306
S'\x08\xab\xd8eg\xcd\x1f@'
p1251
tp1252
Rp1253
sg316
g302
(g306
S'\xe0\x84\xb4b\xce\xac\xd1?'
p1254
tp1255
Rp1256
sg320
g302
(g306
S'\xa7\xeb\xf2\xdbG\xd6 ?'
p1257
tp1258
Rp1259
sa(dp1260
g301
g302
(g306
S'\xd24\x8e\xa0\xc5\x08\xec?'
p1261
tp1262
Rp1263
sg312
g302
(g306
S"?\xe1uY\xd6\x95'@"
p1264
tp1265
Rp1266
sg316
g302
(g306
S'\x92\xd4\x08\xe8\xdf\x8a\xd0?'
p1267
tp1268
Rp1269
sg320
g302
(g306
S'\xa7\xeb\xf2\xdbG\xd6 ?'
p1270
tp1271
Rp1272
sa(dp1273
g301
g302
(g306
S'S\xb3Q\x0c\xd7$\xe5?'
p1274
tp1275
Rp1276
sg312
g302
(g306
S'\xed\xcd+\xf5b\x96\x1c@'
p1277
tp1278
Rp1279
sg316
g302
(g306
S'\xc0-s0\x85\xd5\xcd?'
p1280
tp1281
Rp1282
sg320
g302
(g306
S'\xa5\xeb\xf2\xdbG\xd6 ?'
p1283
tp1284
Rp1285
sa(dp1286
g301
g302
(g306
S'\xbd\x8aq\xc8m\xa6\xe9?'
p1287
tp1288
Rp1289
sg312
g302
(g306
S'\xb1\x9d\xcdu\x1d\x92"@'
p1290
tp1291
Rp1292
sg316
g302
(g306
S'X\x15\xe6k\xa8\xb6\xd0?'
p1293
tp1294
Rp1295
sg320
g302
(g306
S'\xa5\xeb\xf2\xdbG\xd6 ?'
p1296
tp1297
Rp1298
sa(dp1299
g301
g302
(g306
S'\x15\xaa:\xe3,\x0f\xec?'
p1300
tp1301
Rp1302
sg312
g302
(g306
S"\xb34\x92\xbf\xf2a'@"
p1303
tp1304
Rp1305
sg316
g302
(g306
S'lc\xfb\x82\x1a\x98\xd0?'
p1306
tp1307
Rp1308
sg320
g302
(g306
S'\xa5\xeb\xf2\xdbG\xd6 ?'
p1309
tp1310
Rp1311
sa(dp1312
g301
g302
(g306
S'\x94B\xfaXn\x1e\xe6?'
p1313
tp1314
Rp1315
sg312
g302
(g306
S'\xce\xc7CF\xa3`\x1a@'
p1316
tp1317
Rp1318
sg316
g302
(g306
S'\xca\xcejf\x14(\xd0?'
p1319
tp1320
Rp1321
sg320
g302
(g306
S'\xa5\xeb\xf2\xdbG\xd6 ?'
p1322
tp1323
Rp1324
sa(dp1325
g301
g302
(g306
S'?G\x0c\x80\x06\x06\xe9?'
p1326
tp1327
Rp1328
sg312
g302
(g306
S'/"S\xb9\xbb\n"@'
p1329
tp1330
Rp1331
sg316
g302
(g306
S'\xea?\xcc\xffu\x9b\xd1?'
p1332
tp1333
Rp1334
sg320
g302
(g306
S'\xa5\xeb\xf2\xdbG\xd6 ?'
p1335
tp1336
Rp1337
sa(dp1338
g301
g302
(g306
S'\x07s\x97?f\xbc\xe7?'
p1339
tp1340
Rp1341
sg312
g302
(g306
S'r\x90\xc9\xe2\xce\xab!@'
p1342
tp1343
Rp1344
sg316
g302
(g306
S'\x90\xe5*G\x17%\xd0?'
p1345
tp1346
Rp1347
sg320
g302
(g306
S'\xa5\xeb\xf2\xdbG\xd6 ?'
p1348
tp1349
Rp1350
sa(dp1351
g301
g302
(g306
S'\xe1\xe6*\x06\xa3\x84\xe6?'
p1352
tp1353
Rp1354
sg312
g302
(g306
S'\xb8},1\x13\x0e\x1f@'
p1355
tp1356
Rp1357
sg316
g302
(g306
S'\xcdJ\x95a\xc6\x90\xce?'
p1358
tp1359
Rp1360
sg320
g302
(g306
S'\xa5\xeb\xf2\xdbG\xd6 ?'
p1361
tp1362
Rp1363
sa(dp1364
g301
g302
(g306
S'\xa9\xdc\xd7G\xa3D\xf1?'
p1365
tp1366
Rp1367
sg312
g302
(g306
S'h\xde0IP\x9d/@'
p1368
tp1369
Rp1370
sg316
g302
(g306
S'X\xd3K*}\xf1\xd1?'
p1371
tp1372
Rp1373
sg320
g302
(g306
S'\xa5\xeb\xf2\xdbG\xd6 ?'
p1374
tp1375
Rp1376
sa(dp1377
g301
g302
(g306
S'Y\x0f"C\xd1X\xf3?'
p1378
tp1379
Rp1380
sg312
g302
(g306
S'\xae\xec\xe7vd\x9f3@'
p1381
tp1382
Rp1383
sg316
g302
(g306
S'\x01\xa5\x86\xc02(\xd1?'
p1384
tp1385
Rp1386
sg320
g302
(g306
S'\xa5\xeb\xf2\xdbG\xd6 ?'
p1387
tp1388
Rp1389
sa(dp1390
g301
g302
(g306
S'\xeaN\x03G\xa0\xb5\xea?'
p1391
tp1392
Rp1393
sg312
g302
(g306
S'\xa2\xc5\x089<\x8c%@'
p1394
tp1395
Rp1396
sg316
g302
(g306
S'tg\xa4\x82\xc1\x13\xd1?'
p1397
tp1398
Rp1399
sg320
g302
(g306
S'\xa5\xeb\xf2\xdbG\xd6 ?'
p1400
tp1401
Rp1402
sa(dp1403
g301
g302
(g306
S'\x12\xb9}N\x82\xae\xe6?'
p1404
tp1405
Rp1406
sg312
g302
(g306
S'\xdbP!c\xa8\x83\x1d@'
p1407
tp1408
Rp1409
sg316
g302
(g306
S'd\xf1M\xcd\xefb\xd0?'
p1410
tp1411
Rp1412
sg320
g302
(g306
S'\xa5\xeb\xf2\xdbG\xd6 ?'
p1413
tp1414
Rp1415
sa(dp1416
g301
g302
(g306
S'\x9dv?%E\xf4\xe9?'
p1417
tp1418
Rp1419
sg312
g302
(g306
S'\x8f\x8f\xdau\xb1\xe1#@'
p1420
tp1421
Rp1422
sg316
g302
(g306
S'n%\xa4\xa6\xb5\x89\xd0?'
p1423
tp1424
Rp1425
sg320
g302
(g306
S'\xa5\xeb\xf2\xdbG\xd6 ?'
p1426
tp1427
Rp1428
sa(dp1429
g301
g302
(g306
S'\x81\xfa\xe0\xd1+\xf4\xe4?'
p1430
tp1431
Rp1432
sg312
g302
(g306
S'\xb5\xbe(\xcd\x10\xe4\x1b@'
p1433
tp1434
Rp1435
sg316
g302
(g306
S'\xce]1\xabA\xbf\xce?'
p1436
tp1437
Rp1438
sg320
g302
(g306
S'\xa5\xeb\xf2\xdbG\xd6 ?'
p1439
tp1440
Rp1441
sa(dp1442
g301
g302
(g306
S'\xf5PaO\xd4\xcf\xea?'
p1443
tp1444
Rp1445
sg312
g302
(g306
S'z\xa3Y\xdcZ\x15%@'
p1446
tp1447
Rp1448
sg316
g302
(g306
S'\x9f\xf9\xdf\x16\xae\xb2\xd0?'
p1449
tp1450
Rp1451
sg320
g302
(g306
S'\xa5\xeb\xf2\xdbG\xd6 ?'
p1452
tp1453
Rp1454
sa(dp1455
g301
g302
(g306
S'\x8a\xd3.!uF\xea?'
p1456
tp1457
Rp1458
sg312
g302
(g306
S':\x8735\xffg$@'
p1459
tp1460
Rp1461
sg316
g302
(g306
S'\xec\xdda\x0flu\xd0?'
p1462
tp1463
Rp1464
sg320
g302
(g306
S'\xa5\xeb\xf2\xdbG\xd6 ?'
p1465
tp1466
Rp1467
sa(dp1468
g301
g302
(g306
S'\xa2\xd6\xedi\x95X\xf2?'
p1469
tp1470
Rp1471
sg312
g302
(g306
S'\x82`\xffR\x82K3@'
p1472
tp1473
Rp1474
sg316
g302
(g306
S'\xac\x19\xf8\xc8\xa6\t\xd0?'
p1475
tp1476
Rp1477
sg320
g302
(g306
S'\xa5\xeb\xf2\xdbG\xd6 ?'
p1478
tp1479
Rp1480
sa(dp1481
g301
g302
(g306
S'c@\x97\xce\xc4\x93\xff?'
p1482
tp1483
Rp1484
sg312
g302
(g306
S'\x0c^\xf5\xe1\xdd(B@'
p1485
tp1486
Rp1487
sg316
g302
(g306
S'\tyw\x93G\xa8\xd4?'
p1488
tp1489
Rp1490
sg320
g302
(g306
S'\xa5\xeb\xf2\xdbG\xd6 ?'
p1491
tp1492
Rp1493
sa(dp1494
g301
g302
(g306
S'\xa6\xc3\x10\x16\x04\x1a\xe9?'
p1495
tp1496
Rp1497
sg312
g302
(g306
S'X\x0c\xdc\xa8i\xe2!@'
p1498
tp1499
Rp1500
sg316
g302
(g306
S'E[\xe1$\xae\x0b\xd0?'
p1501
tp1502
Rp1503
sg320
g302
(g306
S'\xa5\xeb\xf2\xdbG\xd6 ?'
p1504
tp1505
Rp1506
sa(dp1507
g301
g302
(g306
S'\xb3J\xa6H;\xa3\xe6?'
p1508
tp1509
Rp1510
sg312
g302
(g306
S'6\x88\xf3\x82$W\x1c@'
p1511
tp1512
Rp1513
sg316
g302
(g306
S'v\x97\x06c@w\xcf?'
p1514
tp1515
Rp1516
sg320
g302
(g306
S'\xa5\xeb\xf2\xdbG\xd6 ?'
p1517
tp1518
Rp1519
sa(dp1520
g301
g302
(g306
S'=\xc1\xf6Q\xc1\x0c\xff?'
p1521
tp1522
Rp1523
sg312
g302
(g306
S'\xdf\xaf\xc91\x06\x94A@'
p1524
tp1525
Rp1526
sg316
g302
(g306
S'\x85\xbf z_8\xd4?'
p1527
tp1528
Rp1529
sg320
g302
(g306
S'\xa5\xeb\xf2\xdbG\xd6 ?'
p1530
tp1531
Rp1532
sa(dp1533
g301
g302
(g306
S'aU\xbc\xf0(\xcf\xe4?'
p1534
tp1535
Rp1536
sg312
g302
(g306
S'\x88\xcc\x99N\xb5\xb5\x19@'
p1537
tp1538
Rp1539
sg316
g302
(g306
S'\xfe\xab\xb3\xd5*%\xcf?'
p1540
tp1541
Rp1542
sg320
g302
(g306
S'\xa5\xeb\xf2\xdbG\xd6 ?'
p1543
tp1544
Rp1545
sa(dp1546
g301
g302
(g306
S'\xac\xf7\x9d;[\x98\xe5?'
p1547
tp1548
Rp1549
sg312
g302
(g306
S'\xbc\x80f\x194\x9b @'
p1550
tp1551
Rp1552
sg316
g302
(g306
S'\xf8\xbf}\xc1<`\xcd?'
p1553
tp1554
Rp1555
sg320
g302
(g306
S'\xa5\xeb\xf2\xdbG\xd6 ?'
p1556
tp1557
Rp1558
sa(dp1559
g301
g302
(g306
S'\xbe\x13\xfb3\xad\x83\xe7?'
p1560
tp1561
Rp1562
sg312
g302
(g306
S'\xe3K\x18b\x89\x8c\x1e@'
p1563
tp1564
Rp1565
sg316
g302
(g306
S'q\xd6\x0e\xf1\x1e2\xd0?'
p1566
tp1567
Rp1568
sg320
g302
(g306
S'\xa5\xeb\xf2\xdbG\xd6 ?'
p1569
tp1570
Rp1571
sa(dp1572
g301
g302
(g306
S'\xaf\x04\xaa\x01\xf7y\xe7?'
p1573
tp1574
Rp1575
sg312
g302
(g306
S'\xca]\xee\xaa1\xa1 @'
p1576
tp1577
Rp1578
sg316
g302
(g306
S'\x15\x98\xad\xbb\xf9\x1c\xd0?'
p1579
tp1580
Rp1581
sg320
g302
(g306
S'\xa5\xeb\xf2\xdbG\xd6 ?'
p1582
tp1583
Rp1584
sa(dp1585
g301
g302
(g306
S'\x1b\x8bZG\xf5\x1f\xe7?'
p1586
tp1587
Rp1588
sg312
g302
(g306
S'\xcd\x11\xe5\xac\xf8\x86\x1e@'
p1589
tp1590
Rp1591
sg316
g302
(g306
S'\xee\xe0\x97\xff\x9e\xca\xd0?'
p1592
tp1593
Rp1594
sg320
g302
(g306
S'\xa5\xeb\xf2\xdbG\xd6 ?'
p1595
tp1596
Rp1597
sa(dp1598
g301
g302
(g306
S'\xd9fv( \x7f\xe7?'
p1599
tp1600
Rp1601
sg312
g302
(g306
S'z|\x17?YY!@'
p1602
tp1603
Rp1604
sg316
g302
(g306
S'\x87J\x7f"3\n\xd0?'
p1605
tp1606
Rp1607
sg320
g302
(g306
S'\xa5\xeb\xf2\xdbG\xd6 ?'
p1608
tp1609
Rp1610
sa(dp1611
g301
g302
(g306
S'~\x06l\x08ir\xe6?'
p1612
tp1613
Rp1614
sg312
g302
(g306
S'\x82\xfef!2.\x1e@'
p1615
tp1616
Rp1617
sg316
g302
(g306
S'\x90\xcc\xafM\x16\xe0\xcf?'
p1618
tp1619
Rp1620
sg320
g302
(g306
S'\xa5\xeb\xf2\xdbG\xd6 ?'
p1621
tp1622
Rp1623
sa(dp1624
g301
g302
(g306
S'\xcfV\x05d\xd3\xc3\xe6?'
p1625
tp1626
Rp1627
sg312
g302
(g306
S'2\xbb\xfa\xcc9\x8a\x1f@'
p1628
tp1629
Rp1630
sg316
g302
(g306
S'\xeea\xbcr\x10[\xd0?'
p1631
tp1632
Rp1633
sg320
g302
(g306
S'\xa5\xeb\xf2\xdbG\xd6 ?'
p1634
tp1635
Rp1636
sa(dp1637
g301
g302
(g306
S'\xb9Z\xa5\xd2d%\xe7?'
p1638
tp1639
Rp1640
sg312
g302
(g306
S'VfM\xf6t\x04\x1f@'
p1641
tp1642
Rp1643
sg316
g302
(g306
S'\xf0D\x92\\\x19\xa6\xcf?'
p1644
tp1645
Rp1646
sg320
g302
(g306
S'\xa5\xeb\xf2\xdbG\xd6 ?'
p1647
tp1648
Rp1649
sa(dp1650
g301
g302
(g306
S'Okw\xd0\x0c\x08\xe8?'
p1651
tp1652
Rp1653
sg312
g302
(g306
S'\xcf\xec7\x03\x90\xcc @'
p1654
tp1655
Rp1656
sg316
g302
(g306
S'\x9a\xed\xec\xd3\xdd\x04\xd0?'
p1657
tp1658
Rp1659
sg320
g302
(g306
S'\xa5\xeb\xf2\xdbG\xd6 ?'
p1660
tp1661
Rp1662
sa(dp1663
g301
g302
(g306
S'bjzi\xf5\xc5\xea?'
p1664
tp1665
Rp1666
sg312
g302
(g306
S'L\x99\xd6\x00\x18\x7f%@'
p1667
tp1668
Rp1669
sg316
g302
(g306
S"\x81'\x03\xdb\xf7\xec\xd0?"
p1670
tp1671
Rp1672
sg320
g302
(g306
S'\xa5\xeb\xf2\xdbG\xd6 ?'
p1673
tp1674
Rp1675
sa(dp1676
g301
g302
(g306
S'\xe0M\x1bC\x1e\x16\xea?'
p1677
tp1678
Rp1679
sg312
g302
(g306
S'\xf0\xbcw\xb5\xfd\xcc#@'
p1680
tp1681
Rp1682
sg316
g302
(g306
S'y\xfb\x8b\x05\x06#\xd1?'
p1683
tp1684
Rp1685
sg320
g302
(g306
S'\xa5\xeb\xf2\xdbG\xd6 ?'
p1686
tp1687
Rp1688
sa(dp1689
g301
g302
(g306
S'6Y\xbdj;V\xf0?'
p1690
tp1691
Rp1692
sg312
g302
(g306
S'H6\x93uN\xaf,@'
p1693
tp1694
Rp1695
sg316
g302
(g306
S'\xd0\xde\xe1\xc2+\x12\xd1?'
p1696
tp1697
Rp1698
sg320
g302
(g306
S'"$\xcd\\6\xf3\xe1>'
p1699
tp1700
Rp1701
sa(dp1702
g301
g302
(g306
S'\x19\x87\xad\xdf\xdeU\xe6?'
p1703
tp1704
Rp1705
sg312
g302
(g306
S'MT&\xd1\xf5\xeb\x1f@'
p1706
tp1707
Rp1708
sg316
g302
(g306
S'}\x91\r7\xa1\x19\xd0?'
p1709
tp1710
Rp1711
sg320
g302
(g306
S'"$\xcd\\6\xf3\xe1>'
p1712
tp1713
Rp1714
sa(dp1715
g301
g302
(g306
S'\xe2^\xea\xee\xac\xfa\xe7?'
p1716
tp1717
Rp1718
sg312
g302
(g306
S'\xd3E\xf8\xd8f$ @'
p1719
tp1720
Rp1721
sg316
g302
(g306
S'\x99\x82\x97\xf3\x7fx\xd0?'
p1722
tp1723
Rp1724
sg320
g302
(g306
S'"$\xcd\\6\xf3\xe1>'
p1725
tp1726
Rp1727
sa(dp1728
g301
g302
(g306
S'(2L\x07\xe8\xf3\xef?'
p1729
tp1730
Rp1731
sg312
g302
(g306
S'\x05\xf8\xb4\xc8\x86F-@'
p1732
tp1733
Rp1734
sg316
g302
(g306
S'm[\xd4M;/\xd1?'
p1735
tp1736
Rp1737
sg320
g302
(g306
S'"$\xcd\\6\xf3\xe1>'
p1738
tp1739
Rp1740
sa(dp1741
g301
g302
(g306
S'\xa9\x9b\xd4J\x12\x9d\xe6?'
p1742
tp1743
Rp1744
sg312
g302
(g306
S'\xec\xd5\xe2uJ)!@'
p1745
tp1746
Rp1747
sg316
g302
(g306
S'\xa6S\xa2\xf4\r(\xd0?'
p1748
tp1749
Rp1750
sg320
g302
(g306
S'"$\xcd\\6\xf3\xe1>'
p1751
tp1752
Rp1753
sa(dp1754
g301
g302
(g306
S'\xfb\xa8wvS\xa2\xf7?'
p1755
tp1756
Rp1757
sg312
g302
(g306
S"\xa2\x93D,\xfe'9@"
p1758
tp1759
Rp1760
sg316
g302
(g306
S'B\x99b\xb7-o\xd2?'
p1761
tp1762
Rp1763
sg320
g302
(g306
S'"$\xcd\\6\xf3\xe1>'
p1764
tp1765
Rp1766
sa(dp1767
g301
g302
(g306
S'\xbb\x9f\xe63\x1f\xa6\xe3?'
p1768
tp1769
Rp1770
sg312
g302
(g306
S'\x8bL\x81\niY\x18@'
p1771
tp1772
Rp1773
sg316
g302
(g306
S'\xe6\xa4\xd1i\r\x07\xce?'
p1774
tp1775
Rp1776
sg320
g302
(g306
S'"$\xcd\\6\xf3\xe1>'
p1777
tp1778
Rp1779
sa(dp1780
g301
g302
(g306
S'a\xa8L\xaf\xe9\xde\xf7?'
p1781
tp1782
Rp1783
sg312
g302
(g306
S'\x05\xa5\xf2 \x8b\x9c8@'
p1784
tp1785
Rp1786
sg316
g302
(g306
S'\x1a\nU\x02\x83\xc4\xd3?'
p1787
tp1788
Rp1789
sg320
g302
(g306
S'"$\xcd\\6\xf3\xe1>'
p1790
tp1791
Rp1792
sa(dp1793
g301
g302
(g306
S'O[X}\xf6\x1e\xf0?'
p1794
tp1795
Rp1796
sg312
g302
(g306
S'\x98\xdc#h_\x10-@'
p1797
tp1798
Rp1799
sg316
g302
(g306
S'\xd5\x81j6\xfc\xec\xd0?'
p1800
tp1801
Rp1802
sg320
g302
(g306
S'"$\xcd\\6\xf3\xe1>'
p1803
tp1804
Rp1805
sa(dp1806
g301
g302
(g306
S'\xcd\xc2G\xa2\xf0\x88\xec?'
p1807
tp1808
Rp1809
sg312
g302
(g306
S"\x03\xcf\xdd\x08\xde\xce'@"
p1810
tp1811
Rp1812
sg316
g302
(g306
S'\xb3K5J\xe1\xd1\xd0?'
p1813
tp1814
Rp1815
sg320
g302
(g306
S'"$\xcd\\6\xf3\xe1>'
p1816
tp1817
Rp1818
sa(dp1819
g301
g302
(g306
S'^\x82\xe1\x1cZ:\xe8?'
p1820
tp1821
Rp1822
sg312
g302
(g306
S'W\xcc\xdeu1,#@'
p1823
tp1824
Rp1825
sg316
g302
(g306
S'M\x88[\xff\xba\xe0\xd0?'
p1826
tp1827
Rp1828
sg320
g302
(g306
S'"$\xcd\\6\xf3\xe1>'
p1829
tp1830
Rp1831
sa(dp1832
g301
g302
(g306
S'zx\xbc3\xca%\xe9?'
p1833
tp1834
Rp1835
sg312
g302
(g306
S'\xdc\xa7r;U\x08!@'
p1836
tp1837
Rp1838
sg316
g302
(g306
S')\x12\xa4i\x97\x8c\xd1?'
p1839
tp1840
Rp1841
sg320
g302
(g306
S'"$\xcd\\6\xf3\xe1>'
p1842
tp1843
Rp1844
sa(dp1845
g301
g302
(g306
S'+g\x9a\xb3\xe1S\xef?'
p1846
tp1847
Rp1848
sg312
g302
(g306
S'\xe0\xfd>K\xcc}*@'
p1849
tp1850
Rp1851
sg316
g302
(g306
S'\x00\xccppA\xe8\xd1?'
p1852
tp1853
Rp1854
sg320
g302
(g306
S'"$\xcd\\6\xf3\xe1>'
p1855
tp1856
Rp1857
sa(dp1858
g301
g302
(g306
S'\x069\x0f\x02\xdf\x0c\xee?'
p1859
tp1860
Rp1861
sg312
g302
(g306
S'\xd0\xb8\xec\xd1\xdag*@'
p1862
tp1863
Rp1864
sg316
g302
(g306
S'V\x10<\xe4\xef}\xd1?'
p1865
tp1866
Rp1867
sg320
g302
(g306
S'"$\xcd\\6\xf3\xe1>'
p1868
tp1869
Rp1870
sa(dp1871
g301
g302
(g306
S'LG\x1eEOu\xe7?'
p1872
tp1873
Rp1874
sg312
g302
(g306
S'\xd0\xfd\x8e\xdd\x15\\\x1f@'
p1875
tp1876
Rp1877
sg316
g302
(g306
S'\x06\xb9\x17=3\xff\xd0?'
p1878
tp1879
Rp1880
sg320
g302
(g306
S'"$\xcd\\6\xf3\xe1>'
p1881
tp1882
Rp1883
sa(dp1884
g301
g302
(g306
S'Y\x88\x0b\xa4<\x13\xf5?'
p1885
tp1886
Rp1887
sg312
g302
(g306
S'9\xaa\x0f\xd2B\xd64@'
p1888
tp1889
Rp1890
sg316
g302
(g306
S'/,\xa6\xb1\xe3Q\xd3?'
p1891
tp1892
Rp1893
sg320
g302
(g306
S'"$\xcd\\6\xf3\xe1>'
p1894
tp1895
Rp1896
sa(dp1897
g301
g302
(g306
S'\x92\xf3\x85\xb6qu\xe9?'
p1898
tp1899
Rp1900
sg312
g302
(g306
S'\x00 \xf3\xdfQ5#@'
p1901
tp1902
Rp1903
sg316
g302
(g306
S'\x02\xcaq R\xd0\xd1?'
p1904
tp1905
Rp1906
sg320
g302
(g306
S'"$\xcd\\6\xf3\xe1>'
p1907
tp1908
Rp1909
sa(dp1910
g301
g302
(g306
S'\xcc\x82\xe3b\x8c(\xf8?'
p1911
tp1912
Rp1913
sg312
g302
(g306
S' 2\xc0\xd8h\x1f:@'
p1914
tp1915
Rp1916
sg316
g302
(g306
S'6\x85\xf5l\xa4\xdd\xd3?'
p1917
tp1918
Rp1919
sg320
g302
(g306
S'"$\xcd\\6\xf3\xe1>'
p1920
tp1921
Rp1922
sa(dp1923
g301
g302
(g306
S'\xba\xd2&\xcd\x9fS\xed?'
p1924
tp1925
Rp1926
sg312
g302
(g306
S'\xc5\xf2@\xc2.I)@'
p1927
tp1928
Rp1929
sg316
g302
(g306
S'\xb8i/;\x81\xdf\xd1?'
p1930
tp1931
Rp1932
sg320
g302
(g306
S'"$\xcd\\6\xf3\xe1>'
p1933
tp1934
Rp1935
sa(dp1936
g301
g302
(g306
S'S\xf1\x1e\x0e|s\xf0?'
p1937
tp1938
Rp1939
sg312
g302
(g306
S"P\xfa'\xfb\xca\x10-@"
p1940
tp1941
Rp1942
sg316
g302
(g306
S'\x7f\xf3\xdb\x98\xe4N\xd1?'
p1943
tp1944
Rp1945
sg320
g302
(g306
S'"$\xcd\\6\xf3\xe1>'
p1946
tp1947
Rp1948
sa(dp1949
g301
g302
(g306
S'ad;\x1ay<\xe9?'
p1950
tp1951
Rp1952
sg312
g302
(g306
S'c\xdd\xd6_(\xb3"@'
p1953
tp1954
Rp1955
sg316
g302
(g306
S'\xa8\xba\x16\x1cb\x90\xd1?'
p1956
tp1957
Rp1958
sg320
g302
(g306
S'"$\xcd\\6\xf3\xe1>'
p1959
tp1960
Rp1961
sa(dp1962
g301
g302
(g306
S"\x86^'o\xfex\xec?"
p1963
tp1964
Rp1965
sg312
g302
(g306
S">\xf9\xb6\xd2\xb1\xa0'@"
p1966
tp1967
Rp1968
sg316
g302
(g306
S"'\xf8<n\xd9\xe2\xd1?"
p1969
tp1970
Rp1971
sg320
g302
(g306
S'"$\xcd\\6\xf3\xe1>'
p1972
tp1973
Rp1974
sa(dp1975
g301
g302
(g306
S'&\x10\x11Vd\xa9\xe7?'
p1976
tp1977
Rp1978
sg312
g302
(g306
S'\x9b\x8fh\xc6_+\x1d@'
p1979
tp1980
Rp1981
sg316
g302
(g306
S'\xfb\xad\xd8i%-\xd1?'
p1982
tp1983
Rp1984
sg320
g302
(g306
S'"$\xcd\\6\xf3\xe1>'
p1985
tp1986
Rp1987
sa(dp1988
g301
g302
(g306
S'b\x00\xc7\xb3 \x8f\xfc?'
p1989
tp1990
Rp1991
sg312
g302
(g306
S'V\xe0\xe5m\xce\xab@@'
p1992
tp1993
Rp1994
sg316
g302
(g306
S'\x96\x92T8!\xcc\xd2?'
p1995
tp1996
Rp1997
sg320
g302
(g306
S'K\x8ey\x0b\x8e\x0c\xce>'
p1998
tp1999
Rp2000
sa(dp2001
g301
g302
(g306
S"\x11\x88\x17\xa0]'\xe7?"
p2002
tp2003
Rp2004
sg312
g302
(g306
S'p;E\xbd\x89l\x1e@'
p2005
tp2006
Rp2007
sg316
g302
(g306
S'\xfa\x90\xe9\xe9YJ\xd1?'
p2008
tp2009
Rp2010
sg320
g302
(g306
S'K\x8ey\x0b\x8e\x0c\xce>'
p2011
tp2012
Rp2013
sa(dp2014
g301
g302
(g306
S'6\x0c\x90\xa9\xbf\xa9\xe4?'
p2015
tp2016
Rp2017
sg312
g302
(g306
S'\xbe\x08\xda1\xfe/\x1a@'
p2018
tp2019
Rp2020
sg316
g302
(g306
S'\xae@D\xb8\xc7\xd2\xce?'
p2021
tp2022
Rp2023
sg320
g302
(g306
S'K\x8ey\x0b\x8e\x0c\xce>'
p2024
tp2025
Rp2026
sa(dp2027
g301
g302
(g306
S'^\nK\xdd\xefp\xe8?'
p2028
tp2029
Rp2030
sg312
g302
(g306
S'*Iy,\xeaf"@'
p2031
tp2032
Rp2033
sg316
g302
(g306
S',6\xc2\x06Ef\xd0?'
p2034
tp2035
Rp2036
sg320
g302
(g306
S'K\x8ey\x0b\x8e\x0c\xce>'
p2037
tp2038
Rp2039
sa(dp2040
g301
g302
(g306
S'\rmo\xa0Hz\xe8?'
p2041
tp2042
Rp2043
sg312
g302
(g306
S'\x86~\x9cp\x7f\xe0 @'
p2044
tp2045
Rp2046
sg316
g302
(g306
S'\x7f,x\xea8n\xd0?'
p2047
tp2048
Rp2049
sg320
g302
(g306
S'K\x8ey\x0b\x8e\x0c\xce>'
p2050
tp2051
Rp2052
sa(dp2053
g301
g302
(g306
S'6\x15\xa7\x01`}\xee?'
p2054
tp2055
Rp2056
sg312
g302
(g306
S'\x12i*:\xa55*@'
p2057
tp2058
Rp2059
sg316
g302
(g306
S"\x16\xfd'\x9e\x80\xfb\xd0?"
p2060
tp2061
Rp2062
sg320
g302
(g306
S'K\x8ey\x0b\x8e\x0c\xce>'
p2063
tp2064
Rp2065
sa(dp2066
g301
g302
(g306
S'5\xc1\xc6@Uj\xe7?'
p2067
tp2068
Rp2069
sg312
g302
(g306
S'b\xea\xb5\xbd\x0e\x8f @'
p2070
tp2071
Rp2072
sg316
g302
(g306
S'\xe4\xdf\x05\xa2\xe0#\xd1?'
p2073
tp2074
Rp2075
sg320
g302
(g306
S'\x8e\x8dy\x0b\x8e\x0c\xce>'
p2076
tp2077
Rp2078
sa(dp2079
g301
g302
(g306
S' \x8c\x91\x91\xf1\x9b\xe9?'
p2080
tp2081
Rp2082
sg312
g302
(g306
S'L\xd1(\x8e\xfbD#@'
p2083
tp2084
Rp2085
sg316
g302
(g306
S'\x93\xab$+\xb1\x82\xd0?'
p2086
tp2087
Rp2088
sg320
g302
(g306
S'\x8e\x8dy\x0b\x8e\x0c\xce>'
p2089
tp2090
Rp2091
sa(dp2092
g301
g302
(g306
S'\xe80\x1f\xdcX\xb9\xe7?'
p2093
tp2094
Rp2095
sg312
g302
(g306
S'j\xa2\xf4:\xed\xd9!@'
p2096
tp2097
Rp2098
sg316
g302
(g306
S'*\x92\x9a@\xda\x81\xcf?'
p2099
tp2100
Rp2101
sg320
g302
(g306
S'\x8e\x8dy\x0b\x8e\x0c\xce>'
p2102
tp2103
Rp2104
sa(dp2105
g301
g302
(g306
S"\x8f'\xc7h\x91\x18\xf7?"
p2106
tp2107
Rp2108
sg312
g302
(g306
S'\x0eC\xa7\xcd\x98\xdc7@'
p2109
tp2110
Rp2111
sg316
g302
(g306
S'\x87\xa4\xdd\xce\x1f\xa1\xd2?'
p2112
tp2113
Rp2114
sg320
g302
(g306
S'\x8e\x8dy\x0b\x8e\x0c\xce>'
p2115
tp2116
Rp2117
sa(dp2118
g301
g302
(g306
S'\xe2\xfc\xb4\x97\x93\xf4\xe6?'
p2119
tp2120
Rp2121
sg312
g302
(g306
S'\xc8\xc6\xf8\xaerb\x1f@'
p2122
tp2123
Rp2124
sg316
g302
(g306
S'\x12\xe4E\xd1rL\xd0?'
p2125
tp2126
Rp2127
sg320
g302
(g306
S'\x8e\x8dy\x0b\x8e\x0c\xce>'
p2128
tp2129
Rp2130
sa(dp2131
g301
g302
(g306
S'.\x96\xf0I\xff0\xef?'
p2132
tp2133
Rp2134
sg312
g302
(g306
S'\xfd\xf9\x98\\vz)@'
p2135
tp2136
Rp2137
sg316
g302
(g306
S'~\x9f\x12\x04x{\xd2?'
p2138
tp2139
Rp2140
sg320
g302
(g306
S'\x8e\x8dy\x0b\x8e\x0c\xce>'
p2141
tp2142
Rp2143
sa(dp2144
g301
g302
(g306
S'\x965W/\xfb\xba\xe7?'
p2145
tp2146
Rp2147
sg312
g302
(g306
S'\xb4\xd1\\\xd8\xf5o!@'
p2148
tp2149
Rp2150
sg316
g302
(g306
S'v\x9a\x07\xc5\xf0+\xcf?'
p2151
tp2152
Rp2153
sg320
g302
(g306
S'\x8e\x8dy\x0b\x8e\x0c\xce>'
p2154
tp2155
Rp2156
sa(dp2157
g301
g302
(g306
S'\x1a}\x04\xcf\xd3D\xe8?'
p2158
tp2159
Rp2160
sg312
g302
(g306
S'\xdb\x80!v=\xe6\x1d@'
p2161
tp2162
Rp2163
sg316
g302
(g306
S',\xa9\xe2\x130S\xd0?'
p2164
tp2165
Rp2166
sg320
g302
(g306
S'\x8e\x8dy\x0b\x8e\x0c\xce>'
p2167
tp2168
Rp2169
sa(dp2170
g301
g302
(g306
S'\x8fJ\x97\x1d\xe2\xa2\xe7?'
p2171
tp2172
Rp2173
sg312
g302
(g306
S'\x9amuR\xefK"@'
p2174
tp2175
Rp2176
sg316
g302
(g306
S'\xfb#\xc9;\xc9\x14\xd0?'
p2177
tp2178
Rp2179
sg320
g302
(g306
S'\x8e\x8dy\x0b\x8e\x0c\xce>'
p2180
tp2181
Rp2182
sa(dp2183
g301
g302
(g306
S'\xc3\x12`\x17\x1e\xa2\xe6?'
p2184
tp2185
Rp2186
sg312
g302
(g306
S'(Ft2X\xb6 @'
p2187
tp2188
Rp2189
sg316
g302
(g306
S'~6<\x0b\xc5\x00\xd0?'
p2190
tp2191
Rp2192
sg320
g302
(g306
S'\x8e\x8dy\x0b\x8e\x0c\xce>'
p2193
tp2194
Rp2195
sa(dp2196
g301
g302
(g306
S'\xfa@\xc9\xe3,\x14\xeb?'
p2197
tp2198
Rp2199
sg312
g302
(g306
S'Es4G\x19B$@'
p2200
tp2201
Rp2202
sg316
g302
(g306
S'\x95X)\x92\xdf \xd1?'
p2203
tp2204
Rp2205
sg320
g302
(g306
S'\x8e\x8dy\x0b\x8e\x0c\xce>'
p2206
tp2207
Rp2208
sa(dp2209
g301
g302
(g306
S'H\xfd-\x91\x9c\xd5\xeb?'
p2210
tp2211
Rp2212
sg312
g302
(g306
S'[\xb4",\xaa\x0c)@'
p2213
tp2214
Rp2215
sg316
g302
(g306
S'\x02\x83\x18\xb7\x8dd\xd0?'
p2216
tp2217
Rp2218
sg320
g302
(g306
S'\x8e\x8dy\x0b\x8e\x0c\xce>'
p2219
tp2220
Rp2221
sa(dp2222
g301
g302
(g306
S'*U,q\xe2Y\xe8?'
p2223
tp2224
Rp2225
sg312
g302
(g306
S';\x000?bo @'
p2226
tp2227
Rp2228
sg316
g302
(g306
S'\xb3S\xa1\x10xY\xd0?'
p2229
tp2230
Rp2231
sg320
g302
(g306
S'\x8e\x8dy\x0b\x8e\x0c\xce>'
p2232
tp2233
Rp2234
sa(dp2235
g301
g302
(g306
S'v\x11\t\xb2\xb1n\xe3?'
p2236
tp2237
Rp2238
sg312
g302
(g306
S'j\xb6\x87dJW\x17@'
p2239
tp2240
Rp2241
sg316
g302
(g306
S'3\xa5q\x1c\xf8\x8d\xcd?'
p2242
tp2243
Rp2244
sg320
g302
(g306
S'\x8e\x8dy\x0b\x8e\x0c\xce>'
p2245
tp2246
Rp2247
sa(dp2248
g301
g302
(g306
S'\x92\x1a\xfd\xde\xf9:\xea?'
p2249
tp2250
Rp2251
sg312
g302
(g306
S'\x00\x80\x1d\xbc\xfa8%@'
p2252
tp2253
Rp2254
sg316
g302
(g306
S'\xc1\xb1\xf5\xe53f\xd0?'
p2255
tp2256
Rp2257
sg320
g302
(g306
S'\x8e\x8dy\x0b\x8e\x0c\xce>'
p2258
tp2259
Rp2260
sa(dp2261
g301
g302
(g306
S'R\x96\x11\x14\x8fU\xeb?'
p2262
tp2263
Rp2264
sg312
g302
(g306
S"\xcaAp\xbd\x07\x04'@"
p2265
tp2266
Rp2267
sg316
g302
(g306
S' d8W\xaf:\xd1?'
p2268
tp2269
Rp2270
sg320
g302
(g306
S'\x8e\x8dy\x0b\x8e\x0c\xce>'
p2271
tp2272
Rp2273
sa(dp2274
g301
g302
(g306
S'\xca.\xf8\xde\x9a\xc6\xe5?'
p2275
tp2276
Rp2277
sg312
g302
(g306
S'\xaeW\x07.\xdf" @'
p2278
tp2279
Rp2280
sg316
g302
(g306
S'\x92\xd1\x94\x94\xd2.\xcf?'
p2281
tp2282
Rp2283
sg320
g302
(g306
S'\x8e\x8dy\x0b\x8e\x0c\xce>'
p2284
tp2285
Rp2286
sa(dp2287
g301
g302
(g306
S'K\xfaw\xfd\xda\xac\xed?'
p2288
tp2289
Rp2290
sg312
g302
(g306
S'\x12\xca\xa3\xb8Ld+@'
p2291
tp2292
Rp2293
sg316
g302
(g306
S'VT\x9czoU\xd0?'
p2294
tp2295
Rp2296
sg320
g302
(g306
S'\x8e\x8dy\x0b\x8e\x0c\xce>'
p2297
tp2298
Rp2299
sa(dp2300
g301
g302
(g306
S'\xca\xfd\xf0\xde\xe2\xb0\xe6?'
p2301
tp2302
Rp2303
sg312
g302
(g306
S'j\xda\xd8\xb2I!\x1f@'
p2304
tp2305
Rp2306
sg316
g302
(g306
S'\x8d\xdf\xb3\xdb\xf4\xc6\xce?'
p2307
tp2308
Rp2309
sg320
g302
(g306
S'\x8e\x8dy\x0b\x8e\x0c\xce>'
p2310
tp2311
Rp2312
sa(dp2313
g301
g302
(g306
S'#\xb8\xe6\x02cW\xe8?'
p2314
tp2315
Rp2316
sg312
g302
(g306
S'\x9c\xcc\xd1I\xd2\xe8!@'
p2317
tp2318
Rp2319
sg316
g302
(g306
S'F<\x00\x85w\x00\xd0?'
p2320
tp2321
Rp2322
sg320
g302
(g306
S'\x8e\x8dy\x0b\x8e\x0c\xce>'
p2323
tp2324
Rp2325
sa(dp2326
g301
g302
(g306
S'6\x8d\x1a\x01\x01\xf0\xe5?'
p2327
tp2328
Rp2329
sg312
g302
(g306
S"\xd1~\x9d\xf6'\xed @"
p2330
tp2331
Rp2332
sg316
g302
(g306
S'8\x12\xf0\x80F\x08\xce?'
p2333
tp2334
Rp2335
sg320
g302
(g306
S'\x8e\x8dy\x0b\x8e\x0c\xce>'
p2336
tp2337
Rp2338
sa(dp2339
g301
g302
(g306
S'\xe8$O\xb4\xcf\xd0\xe7?'
p2340
tp2341
Rp2342
sg312
g302
(g306
S'\xe7\xa8\xaef\x01\x1f @'
p2343
tp2344
Rp2345
sg316
g302
(g306
S'm\xc0\xbb&\x96p\xcf?'
p2346
tp2347
Rp2348
sg320
g302
(g306
S'\x8e\x8dy\x0b\x8e\x0c\xce>'
p2349
tp2350
Rp2351
sa(dp2352
g301
g302
(g306
S'\xf3\x15\x05&D\xff\xed?'
p2353
tp2354
Rp2355
sg312
g302
(g306
S'\x93\xa7\xf0ov\x1b,@'
p2356
tp2357
Rp2358
sg316
g302
(g306
S'rO\x97\xd7?\x1b\xd0?'
p2359
tp2360
Rp2361
sg320
g302
(g306
S'\x9a\x99\x99\x99\x99\xe929'
p2362
tp2363
Rp2364
sa(dp2365
g301
g302
(g306
S'\x95,=\xd1R\x9f\xe7?'
p2366
tp2367
Rp2368
sg312
g302
(g306
S'2\x89\x84#\x85\xa6 @'
p2369
tp2370
Rp2371
sg316
g302
(g306
S'\x96\xba=\xe6\xcb\x1d\xd0?'
p2372
tp2373
Rp2374
sg320
g302
(g306
S'\x9a\x99\x99\x99\x99\xe929'
p2375
tp2376
Rp2377
sa(dp2378
g301
g302
(g306
S'\xb7\xda\n\x0fd\x9c\xe7?'
p2379
tp2380
Rp2381
sg312
g302
(g306
S'\xa4\xc5|]\x1c\x06#@'
p2382
tp2383
Rp2384
sg316
g302
(g306
S'\xe2\xb7\xeb\x9c\xdcB\xd0?'
p2385
tp2386
Rp2387
sg320
g302
(g306
S'\x9a\x99\x99\x99\x99\xe929'
p2388
tp2389
Rp2390
sa(dp2391
g301
g302
(g306
S'\xf16\x92\x8c~o\xe5?'
p2392
tp2393
Rp2394
sg312
g302
(g306
S'\x03\xfd\x19\xdd\xea\xc2\x1a@'
p2395
tp2396
Rp2397
sg316
g302
(g306
S"N\xb6'\x9f\xb7\x06\xd0?"
p2398
tp2399
Rp2400
sg320
g302
(g306
S'\x9a\x99\x99\x99\x99\xe929'
p2401
tp2402
Rp2403
sa(dp2404
g301
g302
(g306
S'\xb6\xff\xe8r\xc3\x1d\xe8?'
p2405
tp2406
Rp2407
sg312
g302
(g306
S'\xdb\xd3\x9a`d\x90!@'
p2408
tp2409
Rp2410
sg316
g302
(g306
S'\x8aV\x9a\xf5\x80\x80\xd0?'
p2411
tp2412
Rp2413
sg320
g302
(g306
S'\x9a\x99\x99\x99\x99\xe929'
p2414
tp2415
Rp2416
sa(dp2417
g301
g302
(g306
S'\x83\x02\xa9\xc0C<\xe5?'
p2418
tp2419
Rp2420
sg312
g302
(g306
S'8|~\xdc)g\x1b@'
p2421
tp2422
Rp2423
sg316
g302
(g306
S'\xbdm\x0e\x07$\x01\xcf?'
p2424
tp2425
Rp2426
sg320
g302
(g306
S'\x9a\x99\x99\x99\x99\xe929'
p2427
tp2428
Rp2429
sa(dp2430
g301
g302
(g306
S'Y\xc0d98u\xe7?'
p2431
tp2432
Rp2433
sg312
g302
(g306
S'1V\x10:$<!@'
p2434
tp2435
Rp2436
sg316
g302
(g306
S'\xf0\xee,\xf1ea\xce?'
p2437
tp2438
Rp2439
sg320
g302
(g306
S'\x9a\x99\x99\x99\x99\xe929'
p2440
tp2441
Rp2442
sa(dp2443
g301
g302
(g306
S'\xb9\x9f\x80"\x18\xce\xe4?'
p2444
tp2445
Rp2446
sg312
g302
(g306
S'\x07\x8a\xd1?c\x95\x19@'
p2447
tp2448
Rp2449
sg316
g302
(g306
S'\x98\xdco\x94&>\xce?'
p2450
tp2451
Rp2452
sg320
g302
(g306
S'\x9a\x99\x99\x99\x99\xe929'
p2453
tp2454
Rp2455
sa(dp2456
g301
g302
(g306
S'\xea\xf6\x00\x99\xb3\x00\xe9?'
p2457
tp2458
Rp2459
sg312
g302
(g306
S'bz`\xa7\x97x"@'
p2460
tp2461
Rp2462
sg316
g302
(g306
S'\x8a9\xd4y\x01A\xd0?'
p2463
tp2464
Rp2465
sg320
g302
(g306
S'fffff\xe629'
p2466
tp2467
Rp2468
sa(dp2469
g301
g302
(g306
S';\x9f\xef\xa81J\xe6?'
p2470
tp2471
Rp2472
sg312
g302
(g306
S'\x1a\xd0bP\xacD @'
p2473
tp2474
Rp2475
sg316
g302
(g306
S',\x9a\xb4\x8a[!\xd0?'
p2476
tp2477
Rp2478
sg320
g302
(g306
S'fffff\xe629'
p2479
tp2480
Rp2481
sa(dp2482
g301
g302
(g306
S'\x83\xce\xc0;\x82 \xe5?'
p2483
tp2484
Rp2485
sg312
g302
(g306
S'\xa8_n\xd0}\xd2\x1d@'
p2486
tp2487
Rp2488
sg316
g302
(g306
S'X\xfb\x9e5\xa6P\xcd?'
p2489
tp2490
Rp2491
sg320
g302
(g306
S'fffff\xe629'
p2492
tp2493
Rp2494
sa(dp2495
g301
g302
(g306
S'\xc5\x98.\xc3S#\xe6?'
p2496
tp2497
Rp2498
sg312
g302
(g306
S'\r\ts\xd6\xd9\x83\x1d@'
p2499
tp2500
Rp2501
sg316
g302
(g306
S'@>F\xbe\xca\xe2\xce?'
p2502
tp2503
Rp2504
sg320
g302
(g306
S'fffff\xe629'
p2505
tp2506
Rp2507
sa(dp2508
g301
g302
(g306
S'\x13\xad\x10z\x17\xc8\xe7?'
p2509
tp2510
Rp2511
sg312
g302
(g306
S'n\xc2\x05LA\xb8 @'
p2512
tp2513
Rp2514
sg316
g302
(g306
S'\x82\xcc\x9cs6\xbd\xce?'
p2515
tp2516
Rp2517
sg320
g302
(g306
S'fffff\xe629'
p2518
tp2519
Rp2520
sa(dp2521
g301
g302
(g306
S'\xe2W5\xc6\r\x16\xe8?'
p2522
tp2523
Rp2524
sg312
g302
(g306
S'\xb4<G\xc0\x90l @'
p2525
tp2526
Rp2527
sg316
g302
(g306
S'v\xd05\x17\xb5\xe0\xcf?'
p2528
tp2529
Rp2530
sg320
g302
(g306
S'fffff\xe629'
p2531
tp2532
Rp2533
sa(dp2534
g301
g302
(g306
S'G\x80\xa0\xef\xa5\xee\xe5?'
p2535
tp2536
Rp2537
sg312
g302
(g306
S'\xaa\x0b\xb6|\x84(\x1e@'
p2538
tp2539
Rp2540
sg316
g302
(g306
S'\xa3\xf8\r\xe2\xe6R\xcd?'
p2541
tp2542
Rp2543
sg320
g302
(g306
S'fffff\xe629'
p2544
tp2545
Rp2546
sa(dp2547
g301
g302
(g306
S'\x88\xf4\x06\x95%I\xe3?'
p2548
tp2549
Rp2550
sg312
g302
(g306
S"'\x05\x8c\xb6\xc6h\x17@"
p2551
tp2552
Rp2553
sg316
g302
(g306
S'\xbb\xf0\xb9\x8fX\xa0\xcc?'
p2554
tp2555
Rp2556
sg320
g302
(g306
S'fffff\xe629'
p2557
tp2558
Rp2559
sa(dp2560
g301
g302
(g306
S'*\x17\xd1\x1c\xe5\x17\xe6?'
p2561
tp2562
Rp2563
sg312
g302
(g306
S'\x05%\x87\x06\x1a\xfa\x1a@'
p2564
tp2565
Rp2566
sg316
g302
(g306
S'\xbe\xd3\x01\xa1\xce\xff\xce?'
p2567
tp2568
Rp2569
sg320
g302
(g306
S'fffff\xe629'
p2570
tp2571
Rp2572
sa(dp2573
g301
g302
(g306
S'\xa5BFJIv\xe6?'
p2574
tp2575
Rp2576
sg312
g302
(g306
S';o?~U\x85 @'
p2577
tp2578
Rp2579
sg316
g302
(g306
S'\xc6\xd1\x9d]\xe3\xdf\xcd?'
p2580
tp2581
Rp2582
sg320
g302
(g306
S'fffff\xe629'
p2583
tp2584
Rp2585
sa(dp2586
g301
g302
(g306
S'\xea\xd6D\xf4\x12\xe4\xe6?'
p2587
tp2588
Rp2589
sg312
g302
(g306
S'.\xb8d\xda\xbf\xbc @'
p2590
tp2591
Rp2592
sg316
g302
(g306
S'\xeb\xeax\x11\x9d~\xce?'
p2593
tp2594
Rp2595
sg320
g302
(g306
S'fffff\xe629'
p2596
tp2597
Rp2598
sa(dp2599
g301
g302
(g306
S'f$\x88\x0f\x8a\xe0\xe3?'
p2600
tp2601
Rp2602
sg312
g302
(g306
S'\xd6\x12\x95XAB\x1a@'
p2603
tp2604
Rp2605
sg316
g302
(g306
S'bU]\xf4`\xaf\xcc?'
p2606
tp2607
Rp2608
sg320
g302
(g306
S'fffff\xe629'
p2609
tp2610
Rp2611
sa(dp2612
g301
g302
(g306
S'f\xe3\xdak3o\xe5?'
p2613
tp2614
Rp2615
sg312
g302
(g306
S'\x15`>FL\xd0\x1d@'
p2616
tp2617
Rp2618
sg316
g302
(g306
S'\xfb\x95\xb9!\x9cT\xce?'
p2619
tp2620
Rp2621
sg320
g302
(g306
S'fffff\xe629'
p2622
tp2623
Rp2624
sa(dp2625
g301
g302
(g306
S'\xda\xca#\xf5\x00\xa4\xe7?'
p2626
tp2627
Rp2628
sg312
g302
(g306
S'\xfd\xd1 \x85\x1a\r"@'
p2629
tp2630
Rp2631
sg316
g302
(g306
S'6\xd1\xcd\xba\xa5z\xce?'
p2632
tp2633
Rp2634
sg320
g302
(g306
S'fffff\xe629'
p2635
tp2636
Rp2637
sa(dp2638
g301
g302
(g306
S'\xb7\x07/\xac\x83\xf3\xe7?'
p2639
tp2640
Rp2641
sg312
g302
(g306
S'\xe8?\xb8\xd3\x1d\xc6\x1f@'
p2642
tp2643
Rp2644
sg316
g302
(g306
S'\xa4\xffy$6!\xd0?'
p2645
tp2646
Rp2647
sg320
g302
(g306
S'fffff\xe629'
p2648
tp2649
Rp2650
sa(dp2651
g301
g302
(g306
S'\xbd;\\F\xac\t\xe6?'
p2652
tp2653
Rp2654
sg312
g302
(g306
S'(\xa2`\xaf\xb0|\x1f@'
p2655
tp2656
Rp2657
sg316
g302
(g306
S'\xd0\x91\xc3X\xc4\x9c\xcd?'
p2658
tp2659
Rp2660
sg320
g302
(g306
S'fffff\xe629'
p2661
tp2662
Rp2663
sa(dp2664
g301
g302
(g306
S'(:\x8d-\xa7;\xe6?'
p2665
tp2666
Rp2667
sg312
g302
(g306
S'Bh\xcf\x9d<\x01\x1f@'
p2668
tp2669
Rp2670
sg316
g302
(g306
S'\x06Jh*J\x15\xd0?'
p2671
tp2672
Rp2673
sg320
g302
(g306
S'fffff\xe629'
p2674
tp2675
Rp2676
sa(dp2677
g301
g302
(g306
S' !\xcc\x8b\xb6\xe1\xe4?'
p2678
tp2679
Rp2680
sg312
g302
(g306
S'\xaa\x96\x8e\xba\x96(\x1e@'
p2681
tp2682
Rp2683
sg316
g302
(g306
S':\x86\xc7["\xb3\xcd?'
p2684
tp2685
Rp2686
sg320
g302
(g306
S'fffff\xe629'
p2687
tp2688
Rp2689
sa(dp2690
g301
g302
(g306
S'\x93\xff\xe52\x1er\xe7?'
p2691
tp2692
Rp2693
sg312
g302
(g306
S'\xd0mo\x1en\x9f\x1f@'
p2694
tp2695
Rp2696
sg316
g302
(g306
S'\x1b\xc2s\x1bU\x10\xd0?'
p2697
tp2698
Rp2699
sg320
g302
(g306
S'fffff\xe629'
p2700
tp2701
Rp2702
sa(dp2703
g301
g302
(g306
S'I\xd2U\x0c~g\xe8?'
p2704
tp2705
Rp2706
sg312
g302
(g306
S'l\xef\x11S\x86\x01#@'
p2707
tp2708
Rp2709
sg316
g302
(g306
S'F\xb5\x0cH\x80p\xd0?'
p2710
tp2711
Rp2712
sg320
g302
(g306
S'fffff\xe629'
p2713
tp2714
Rp2715
sa(dp2716
g301
g302
(g306
S'X\xc7\xeaX\xff\xe4\xe5?'
p2717
tp2718
Rp2719
sg312
g302
(g306
S':\xca\x0c}1.\x1c@'
p2720
tp2721
Rp2722
sg316
g302
(g306
S'\x17\xf1y\xd4\xad\x15\xd0?'
p2723
tp2724
Rp2725
sg320
g302
(g306
S'fffff\xe629'
p2726
tp2727
Rp2728
sa(dp2729
g301
g302
(g306
S'\x9bm#>3\xbf\xe6?'
p2730
tp2731
Rp2732
sg312
g302
(g306
S'\xe3x{j\xcb\x9f\x1f@'
p2733
tp2734
Rp2735
sg316
g302
(g306
S'Zj\x9ecO4\xd0?'
p2736
tp2737
Rp2738
sg320
g302
(g306
S'fffff\xe629'
p2739
tp2740
Rp2741
sa(dp2742
g301
g302
(g306
S'\xd7\xdf,\x10\x9ay\xe4?'
p2743
tp2744
Rp2745
sg312
g302
(g306
S'\xf5\xcb\\\x0bd\x8e\x1e@'
p2746
tp2747
Rp2748
sg316
g302
(g306
S'\x1e\x00\x16q9\xed\xcd?'
p2749
tp2750
Rp2751
sg320
g302
(g306
S'fffff\xe629'
p2752
tp2753
Rp2754
sa(dp2755
g301
g302
(g306
S'-;U\x03h\x91\xe9?'
p2756
tp2757
Rp2758
sg312
g302
(g306
S'K\xd9\x03\x82\xcf\xd9%@'
p2759
tp2760
Rp2761
sg316
g302
(g306
S'Pk\x00C!}\xcf?'
p2762
tp2763
Rp2764
sg320
g302
(g306
S'fffff\xe629'
p2765
tp2766
Rp2767
sa(dp2768
g301
g302
(g306
S'4\x0c\xe4\xfe\xf81\xe5?'
p2769
tp2770
Rp2771
sg312
g302
(g306
S'\xc0\x92\x00@3\xed\x19@'
p2772
tp2773
Rp2774
sg316
g302
(g306
S'\x9bB/H\xbc\x06\xcf?'
p2775
tp2776
Rp2777
sg320
g302
(g306
S'\xcd\xcc\xcc\xcc\xccL29'
p2778
tp2779
Rp2780
sa(dp2781
g301
g302
(g306
S'A\xef\xd6\xde\x8ei\xe7?'
p2782
tp2783
Rp2784
sg312
g302
(g306
S's\n\xc5\xb4\xb3\xc2"@'
p2785
tp2786
Rp2787
sg316
g302
(g306
S'0\x1cOU\xac_\xcf?'
p2788
tp2789
Rp2790
sg320
g302
(g306
S'\xcd\xcc\xcc\xcc\xccL29'
p2791
tp2792
Rp2793
sa(dp2794
g301
g302
(g306
S'\x0f\xcd\xeend!\xe6?'
p2795
tp2796
Rp2797
sg312
g302
(g306
S'\x89\xb0\xe4MB] @'
p2798
tp2799
Rp2800
sg316
g302
(g306
S'\xd6^\xd0\xbcT\x82\xce?'
p2801
tp2802
Rp2803
sg320
g302
(g306
S'\xcd\xcc\xcc\xcc\xccL29'
p2804
tp2805
Rp2806
sa(dp2807
g301
g302
(g306
S'[\xb8H5Q\x1c\xe6?'
p2808
tp2809
Rp2810
sg312
g302
(g306
S'\x0e\x84C#\xa2\xd4\x1c@'
p2811
tp2812
Rp2813
sg316
g302
(g306
S'\xcb\xaf_5m\xff\xce?'
p2814
tp2815
Rp2816
sg320
g302
(g306
S'\xcd\xcc\xcc\xcc\xccL29'
p2817
tp2818
Rp2819
sa(dp2820
g301
g302
(g306
S'[\x92\xf8\xd0\xba\x0e\xe5?'
p2821
tp2822
Rp2823
sg312
g302
(g306
S'\xb2\x07\x96\xc1\xf9\x9f\x1c@'
p2824
tp2825
Rp2826
sg316
g302
(g306
S'\xb6\xfc\x0bR\xf6#\xce?'
p2827
tp2828
Rp2829
sg320
g302
(g306
S'\xcd\xcc\xcc\xcc\xccL29'
p2830
tp2831
Rp2832
sa(dp2833
g301
g302
(g306
S'-[<\xb2B\xba\xe5?'
p2834
tp2835
Rp2836
sg312
g302
(g306
S'\xb8\xeb\xe6\xad\xcc\x0e\x1c@'
p2837
tp2838
Rp2839
sg316
g302
(g306
S'X\x7f8\x97l\x1e\xcf?'
p2840
tp2841
Rp2842
sg320
g302
(g306
S'\xcd\xcc\xcc\xcc\xccL29'
p2843
tp2844
Rp2845
sa(dp2846
g301
g302
(g306
S'\xc3^V\x13\xa11\xe4?'
p2847
tp2848
Rp2849
sg312
g302
(g306
S'~o{\xba4\xc6\x1b@'
p2850
tp2851
Rp2852
sg316
g302
(g306
S'\xab\xe2\xd4\xe0\xcb2\xcd?'
p2853
tp2854
Rp2855
sg320
g302
(g306
S'\xcd\xcc\xcc\xcc\xccL29'
p2856
tp2857
Rp2858
sa(dp2859
g301
g302
(g306
S'\xe4\xcf\x15\xf0?\xe9\xe4?'
p2860
tp2861
Rp2862
sg312
g302
(g306
S'\xa2i\x89\xc5\ts\x1b@'
p2863
tp2864
Rp2865
sg316
g302
(g306
S'*\xb31\xb8\x95\xb4\xcd?'
p2866
tp2867
Rp2868
sg320
g302
(g306
S'\xcd\xcc\xcc\xcc\xccL29'
p2869
tp2870
Rp2871
sa(dp2872
g301
g302
(g306
S'i\x8bI\x01\xb9\x9b\xe5?'
p2873
tp2874
Rp2875
sg312
g302
(g306
S'eoW\xbe\xc8?\x1d@'
p2876
tp2877
Rp2878
sg316
g302
(g306
S'\xbb\xb1&\x1c\xbb]\xcf?'
p2879
tp2880
Rp2881
sg320
g302
(g306
S'\xcd\xcc\xcc\xcc\xccL29'
p2882
tp2883
Rp2884
sa(dp2885
g301
g302
(g306
S'\xe7#\x8a\xe9[g\xe7?'
p2886
tp2887
Rp2888
sg312
g302
(g306
S'=\x1a\x8e\xb0wQ @'
p2889
tp2890
Rp2891
sg316
g302
(g306
S'\xd3\x80v\x96^\x1e\xd0?'
p2892
tp2893
Rp2894
sg320
g302
(g306
S'\x9a\x99\x99\x99\x99\x1929'
p2895
tp2896
Rp2897
sa(dp2898
g301
g302
(g306
S'\xe2\xca\x07x\x8c\xd0\xe7?'
p2899
tp2900
Rp2901
sg312
g302
(g306
S'\xef\xcd\x05U\x17\x9b$@'
p2902
tp2903
Rp2904
sg316
g302
(g306
S'\xe3\xc0\xbf\x95\x83t\xce?'
p2905
tp2906
Rp2907
sg320
g302
(g306
S'\x9a\x99\x99\x99\x99\x1929'
p2908
tp2909
Rp2910
sa(dp2911
g301
g302
(g306
S'\xda\xef\xee.\xa3\x86\xe7?'
p2912
tp2913
Rp2914
sg312
g302
(g306
S'\x9e,\xb2\x91\xcad @'
p2915
tp2916
Rp2917
sg316
g302
(g306
S'k\xd0*\xf1L7\xcf?'
p2918
tp2919
Rp2920
sg320
g302
(g306
S'\xcd\xcc\xcc\xcc\xccL29'
p2921
tp2922
Rp2923
sa(dp2924
g301
g302
(g306
S'\x1e\xcfH\xab\xb9\xb7\xe6?'
p2925
tp2926
Rp2927
sg312
g302
(g306
S'\xbe\xb9r\x8d\xe0\x16#@'
p2928
tp2929
Rp2930
sg316
g302
(g306
S'\xcaX\x91\x9c\xfe\xd6\xce?'
p2931
tp2932
Rp2933
sg320
g302
(g306
S'333333.9'
p2934
tp2935
Rp2936
sa(dp2937
g301
g302
(g306
S'1\xa3Rp\x8e\xa5\xe5?'
p2938
tp2939
Rp2940
sg312
g302
(g306
S'v\xfa\xbcsD\xe8\x1d@'
p2941
tp2942
Rp2943
sg316
g302
(g306
S'{\xcd\xf8)\xc2.\xce?'
p2944
tp2945
Rp2946
sg320
g302
(g306
S'333333.9'
p2947
tp2948
Rp2949
sa(dp2950
g301
g302
(g306
S'f\x9b\x06\xe1\xda\xab\xe6?'
p2951
tp2952
Rp2953
sg312
g302
(g306
S'P"\xa6\xf1\x1b\x0c @'
p2954
tp2955
Rp2956
sg316
g302
(g306
S'\xe3\xa8\xfb\x053\x85\xcf?'
p2957
tp2958
Rp2959
sg320
g302
(g306
S'333333.9'
p2960
tp2961
Rp2962
sa(dp2963
g301
g302
(g306
S'.s\xfe\xb9\xcfA\xe5?'
p2964
tp2965
Rp2966
sg312
g302
(g306
S'\x93\xd6o\xda\xed\xe1\x1d@'
p2967
tp2968
Rp2969
sg316
g302
(g306
S'\x8e[+\xec\xa8\xdb\xcd?'
p2970
tp2971
Rp2972
sg320
g302
(g306
S'333333.9'
p2973
tp2974
Rp2975
sa(dp2976
g301
g302
(g306
S']\x1f\xdc\xe6\xa9e\xe7?'
p2977
tp2978
Rp2979
sg312
g302
(g306
S'_xo\xf27\xa4"@'
p2980
tp2981
Rp2982
sg316
g302
(g306
S'[\x95-b\xa1\xa7\xce?'
p2983
tp2984
Rp2985
sg320
g302
(g306
S'333333.9'
p2986
tp2987
Rp2988
sa(dp2989
g301
g302
(g306
S'y\xe5\xb7|\xa9\x11\xe5?'
p2990
tp2991
Rp2992
sg312
g302
(g306
S'O\x9a\xf6\xd3\nk\x19@'
p2993
tp2994
Rp2995
sg316
g302
(g306
S'E\x10\x8c\x1dP`\xce?'
p2996
tp2997
Rp2998
sg320
g302
(g306
S'333333.9'
p2999
tp3000
Rp3001
sa(dp3002
g301
g302
(g306
S'n\xd5\x8a\x8f>\xcb\xe5?'
p3003
tp3004
Rp3005
sg312
g302
(g306
S'\x18|\xab\xa5-h\x1d@'
p3006
tp3007
Rp3008
sg316
g302
(g306
S'stTr\x1a\xcd\xce?'
p3009
tp3010
Rp3011
sg320
g302
(g306
S'333333.9'
p3012
tp3013
Rp3014
sa(dp3015
g301
g302
(g306
S'\x9e\xa8\xf3\xceto\xe4?'
p3016
tp3017
Rp3018
sg312
g302
(g306
S'c\xfc\xca\xbao\xce\x19@'
p3019
tp3020
Rp3021
sg316
g302
(g306
S'\xab\x86\x89\x95bd\xcd?'
p3022
tp3023
Rp3024
sg320
g302
(g306
S'333333.9'
p3025
tp3026
Rp3027
sa(dp3028
g301
g302
(g306
S'z\x00\xeej\\\xbb\xe7?'
p3029
tp3030
Rp3031
sg312
g302
(g306
S'3IPs\xdd\x9e @'
p3032
tp3033
Rp3034
sg316
g302
(g306
S'6\xa5\xd3\x90\xa1\x9a\xd0?'
p3035
tp3036
Rp3037
sg320
g302
(g306
S'333333.9'
p3038
tp3039
Rp3040
sa(dp3041
g301
g302
(g306
S'2\xed\x92\xb8\xbb\xa0\xe6?'
p3042
tp3043
Rp3044
sg312
g302
(g306
S'B$`*\x82^ @'
p3045
tp3046
Rp3047
sg316
g302
(g306
S'\x86\xf7\xd1\xe5\x0f\x1e\xd0?'
p3048
tp3049
Rp3050
sg320
g302
(g306
S'333333.9'
p3051
tp3052
Rp3053
sa(dp3054
g301
g302
(g306
S'w\t9E4I\xe6?'
p3055
tp3056
Rp3057
sg312
g302
(g306
S'\xcd3\x01\x8d\xc0\x00\x1f@'
p3058
tp3059
Rp3060
sg316
g302
(g306
S'\xf3\xd8\xa3F1\t\xce?'
p3061
tp3062
Rp3063
sg320
g302
(g306
S'333333.9'
p3064
tp3065
Rp3066
sa(dp3067
g301
g302
(g306
S'\xca["\xf6\x91\xa7\xea?'
p3068
tp3069
Rp3070
sg312
g302
(g306
S"\xf2b\x0f\xf4K\xdb'@"
p3071
tp3072
Rp3073
sg316
g302
(g306
S'\xc0*\x16y\xde\xfe\xce?'
p3074
tp3075
Rp3076
sg320
g302
(g306
S'333333.9'
p3077
tp3078
Rp3079
sa(dp3080
g301
g302
(g306
S'\x854\x90\n\xd6\x18\xe8?'
p3081
tp3082
Rp3083
sg312
g302
(g306
S'h,_@fU @'
p3084
tp3085
Rp3086
sg316
g302
(g306
S'\xb0\xd2\xf9\xd5\x11\x8b\xd0?'
p3087
tp3088
Rp3089
sg320
g302
(g306
S'333333.9'
p3090
tp3091
Rp3092
sa(dp3093
g301
g302
(g306
S'\xda\xe6b\x7f/\xf9\xe5?'
p3094
tp3095
Rp3096
sg312
g302
(g306
S'\x078\xd06\xd6M @'
p3097
tp3098
Rp3099
sg316
g302
(g306
S'\xf5_\x11\xafx\xd2\xcd?'
p3100
tp3101
Rp3102
sg320
g302
(g306
S'333333.9'
p3103
tp3104
Rp3105
sa(dp3106
g301
g302
(g306
S'\xba\x10\xac\xafiU\xe8?'
p3107
tp3108
Rp3109
sg312
g302
(g306
S'?\xbcs\xca\x1d\xbb"@'
p3110
tp3111
Rp3112
sg316
g302
(g306
S'Xq\xd0\x93Z\x82\xcf?'
p3113
tp3114
Rp3115
sg320
g302
(g306
S'333333.9'
p3116
tp3117
Rp3118
sa(dp3119
g301
g302
(g306
S'\x1dk\xfd\xcfoj\xe6?'
p3120
tp3121
Rp3122
sg312
g302
(g306
S'\x90\xae\xc2\x91\xf0F!@'
p3123
tp3124
Rp3125
sg316
g302
(g306
S'\x83]I\xf5^\xc5\xce?'
p3126
tp3127
Rp3128
sg320
g302
(g306
S'\xcd\xcc\xcc\xcc\xcc\xcc-9'
p3129
tp3130
Rp3131
sa(dp3132
g301
g302
(g306
S'\xf4\xad\x9b\xa06A\xe6?'
p3133
tp3134
Rp3135
sg312
g302
(g306
S'm\xf93)\xf8\xf6\x1f@'
p3136
tp3137
Rp3138
sg316
g302
(g306
S's\xde\xca\xa0\xe4\x8d\xce?'
p3139
tp3140
Rp3141
sg320
g302
(g306
S'\xcd\xcc\xcc\xcc\xcc\xcc-9'
p3142
tp3143
Rp3144
sa(dp3145
g301
g302
(g306
S'.\xb1a\x82\xf8\xd2\xe8?'
p3146
tp3147
Rp3148
sg312
g302
(g306
S"_*'\xd2~\x04 @"
p3149
tp3150
Rp3151
sg316
g302
(g306
S'\xd2L\xbc\xc5\xda\x9d\xd0?'
p3152
tp3153
Rp3154
sg320
g302
(g306
S'333333.9'
p3155
tp3156
Rp3157
sa(dp3158
g301
g302
(g306
S'\xe6#\x8d\xa1\x1a\x9d\xe4?'
p3159
tp3160
Rp3161
sg312
g302
(g306
S'\x12\xb2&\xe7_\xff\x1d@'
p3162
tp3163
Rp3164
sg316
g302
(g306
S'\xfe\xa7\xdd\xe1H\x86\xce?'
p3165
tp3166
Rp3167
sg320
g302
(g306
S'333333.9'
p3168
tp3169
Rp3170
sa(dp3171
g301
g302
(g306
S'\x93\xb2\xbc \x16\x1d\xe6?'
p3172
tp3173
Rp3174
sg312
g302
(g306
S'\x1a8C\xb9#\xf8\x1d@'
p3175
tp3176
Rp3177
sg316
g302
(g306
S'\xcd\x8b\xf7\xb1\xc44\xce?'
p3178
tp3179
Rp3180
sg320
g302
(g306
S'333333.9'
p3181
tp3182
Rp3183
sa(dp3184
g301
g302
(g306
S'\xef\x07\x04\xed\x13\xee\xe7?'
p3185
tp3186
Rp3187
sg312
g302
(g306
S'\xba\xf6\x96\x9a2\xf3\x1d@'
p3188
tp3189
Rp3190
sg316
g302
(g306
S'\xe0\xc77u\x15Z\xd0?'
p3191
tp3192
Rp3193
sg320
g302
(g306
S'333333.9'
p3194
tp3195
Rp3196
sa(dp3197
g301
g302
(g306
S'\xe39\xbf\xa5\xf6/\xe7?'
p3198
tp3199
Rp3200
sg312
g302
(g306
S'\xf6?\xc2#S\x13 @'
p3201
tp3202
Rp3203
sg316
g302
(g306
S'\x08>\xea\xa8\x91z\xcf?'
p3204
tp3205
Rp3206
sg320
g302
(g306
S'333333.9'
p3207
tp3208
Rp3209
sa(dp3210
g301
g302
(g306
S'p\xaf\xa5\x80v\x90\xe4?'
p3211
tp3212
Rp3213
sg312
g302
(g306
S'~\x96\x08\xc8\x82\xc3\x1b@'
p3214
tp3215
Rp3216
sg316
g302
(g306
S'\xea\xfc5u{t\xce?'
p3217
tp3218
Rp3219
sg320
g302
(g306
S'\xcd\xcc\xcc\xcc\xcc\xcc-9'
p3220
tp3221
Rp3222
sa(dp3223
g301
g302
(g306
S'n\x14*\xc3k2\xe5?'
p3224
tp3225
Rp3226
sg312
g302
(g306
S'^\xea6\xef\xca\xd8\x1e@'
p3227
tp3228
Rp3229
sg316
g302
(g306
S'\xe2\xa3e\x89\xfd^\xcd?'
p3230
tp3231
Rp3232
sg320
g302
(g306
S'\xcd\xcc\xcc\xcc\xcc\xcc-9'
p3233
tp3234
Rp3235
sa(dp3236
g301
g302
(g306
S'\xc7s\xa4P&\xf9\xe5?'
p3237
tp3238
Rp3239
sg312
g302
(g306
S'\xe8I\x81IM\xb3\x1f@'
p3240
tp3241
Rp3242
sg316
g302
(g306
S'm\xb8\xae \xfa\xf4\xcf?'
p3243
tp3244
Rp3245
sg320
g302
(g306
S'\xcd\xcc\xcc\xcc\xcc\xcc-9'
p3246
tp3247
Rp3248
sa(dp3249
g301
g302
(g306
S'\x10\x0e(\xc1\x85\xd7\xe7?'
p3250
tp3251
Rp3252
sg312
g302
(g306
S'\x9a\xcf\x9b\x10\xa9\xa4\x1e@'
p3253
tp3254
Rp3255
sg316
g302
(g306
S'\x01\x0c\x87\xe8\xe7T\xd0?'
p3256
tp3257
Rp3258
sg320
g302
(g306
S'\xcd\xcc\xcc\xcc\xcc\xcc-9'
p3259
tp3260
Rp3261
sa(dp3262
g301
g302
(g306
S'\x1e\xe1*.29\xe7?'
p3263
tp3264
Rp3265
sg312
g302
(g306
S'\xb5r^\xc04\xa8\x1b@'
p3266
tp3267
Rp3268
sg316
g302
(g306
S'\x0c#a@\xc3\xc3\xd0?'
p3269
tp3270
Rp3271
sg320
g302
(g306
S'\xcd\xcc\xcc\xcc\xcc\xcc-9'
p3272
tp3273
Rp3274
sa(dp3275
g301
g302
(g306
S'\x1ej\x86\xe7`\x88\xe6?'
p3276
tp3277
Rp3278
sg312
g302
(g306
S'6\xa83\xd4\r\xac\x1b@'
p3279
tp3280
Rp3281
sg316
g302
(g306
S'VU\xcb\\\xa7K\xd0?'
p3282
tp3283
Rp3284
sg320
g302
(g306
S'\xcd\xcc\xcc\xcc\xcc\xcc-9'
p3285
tp3286
Rp3287
sa(dp3288
g301
g302
(g306
S'\xf2<\xd7&\x16\xed\xec?'
p3289
tp3290
Rp3291
sg312
g302
(g306
S'\xbe\x83\xc1\xdd\xe2K+@'
p3292
tp3293
Rp3294
sg316
g302
(g306
S'?\xe2u\xc1\x97\xc1\xd0?'
p3295
tp3296
Rp3297
sg320
g302
(g306
S'\xcd\xcc\xcc\xcc\xcc\xcc-9'
p3298
tp3299
Rp3300
sa(dp3301
g301
g302
(g306
S'b\x9f\xab\xa6x\xd1\xe5?'
p3302
tp3303
Rp3304
sg312
g302
(g306
S'R\x04\xed&\xe9Q\x19@'
p3305
tp3306
Rp3307
sg316
g302
(g306
S'\x18\xc9s\xb6J\xfb\xd0?'
p3308
tp3309
Rp3310
sg320
g302
(g306
S'\xcd\xcc\xcc\xcc\xcc\xcc-9'
p3311
tp3312
Rp3313
sa(dp3314
g301
g302
(g306
S'\xca\x88\xae*E\x7f\xe7?'
p3315
tp3316
Rp3317
sg312
g302
(g306
S'fV\xa0\xc8\xc4\xff\x1d@'
p3318
tp3319
Rp3320
sg316
g302
(g306
S'xRG<\x9eM\xd0?'
p3321
tp3322
Rp3323
sg320
g302
(g306
S'\xcd\xcc\xcc\xcc\xcc\xcc-9'
p3324
tp3325
Rp3326
sa(dp3327
g301
g302
(g306
S'"\xd7\xe1\x00\xaa\x0e\xe6?'
p3328
tp3329
Rp3330
sg312
g302
(g306
S'\x00\xa7\xc1\xe1\xc6\xef\x1b@'
p3331
tp3332
Rp3333
sg316
g302
(g306
S'\x9elKB\xcad\xcf?'
p3334
tp3335
Rp3336
sg320
g302
(g306
S'\xcd\xcc\xcc\xcc\xcc\xcc-9'
p3337
tp3338
Rp3339
sa(dp3340
g301
g302
(g306
S'R\xf5\xe5\xe8\x0f\x11\xe9?'
p3341
tp3342
Rp3343
sg312
g302
(g306
S'{\xad\\\x8fv\t"@'
p3344
tp3345
Rp3346
sg316
g302
(g306
S'\xf8h\xffr x\xd0?'
p3347
tp3348
Rp3349
sg320
g302
(g306
S'\xcd\xcc\xcc\xcc\xcc\xcc-9'
p3350
tp3351
Rp3352
sa(dp3353
g301
g302
(g306
S'V\t"\xc4\xe2\xe6\xe4?'
p3354
tp3355
Rp3356
sg312
g302
(g306
S'\xa2\xd9^{\xe6\x98\x1b@'
p3357
tp3358
Rp3359
sg316
g302
(g306
S'\x9b&\xff\xe7$\x82\xce?'
p3360
tp3361
Rp3362
sg320
g302
(g306
S'\xcd\xcc\xcc\xcc\xcc\xcc-9'
p3363
tp3364
Rp3365
sa(dp3366
g301
g302
(g306
S'E\xf6\x0f\x0f\xcaD\xe7?'
p3367
tp3368
Rp3369
sg312
g302
(g306
S'\x18\x88\xf7P\xb3\xa6\x1f@'
p3370
tp3371
Rp3372
sg316
g302
(g306
S'FP\xe0u\x88R\xd0?'
p3373
tp3374
Rp3375
sg320
g302
(g306
S'\xcd\xcc\xcc\xcc\xcc\xcc-9'
p3376
tp3377
Rp3378
sa(dp3379
g301
g302
(g306
S'\xca\xe1\xeeiE#\xe9?'
p3380
tp3381
Rp3382
sg312
g302
(g306
S'5\xc39\x94\xe31"@'
p3383
tp3384
Rp3385
sg316
g302
(g306
S'\xd0\x9d\xd1F\x0e%\xd1?'
p3386
tp3387
Rp3388
sg320
g302
(g306
S'\xcd\xcc\xcc\xcc\xcc\xcc-9'
p3389
tp3390
Rp3391
sa(dp3392
g301
g302
(g306
S'?\x81\x07is\xdb\xe6?'
p3393
tp3394
Rp3395
sg312
g302
(g306
S'\xf2\x10\x0e\x18\xc5\xf7 @'
p3396
tp3397
Rp3398
sg316
g302
(g306
S'\xfd\x160\x11O\x98\xcf?'
p3399
tp3400
Rp3401
sg320
g302
(g306
S'\xcd\xcc\xcc\xcc\xcc\xcc-9'
p3402
tp3403
Rp3404
sa(dp3405
g301
g302
(g306
S'\x90\x1b\n\x03u\xad\xe4?'
p3406
tp3407
Rp3408
sg312
g302
(g306
S'z\x91\x94P\xe6/\x1a@'
p3409
tp3410
Rp3411
sg316
g302
(g306
S'h\xc9\x8c\x7f.M\xcf?'
p3412
tp3413
Rp3414
sg320
g302
(g306
S'\xcd\xcc\xcc\xcc\xcc\xcc-9'
p3415
tp3416
Rp3417
sa(dp3418
g301
g302
(g306
S'\xff\xd9kO\xf9\x16\xe5?'
p3419
tp3420
Rp3421
sg312
g302
(g306
S'U\xc0\xb0en\x87\x1a@'
p3422
tp3423
Rp3424
sg316
g302
(g306
S'\xbb\xdd\xce\x17tC\xcf?'
p3425
tp3426
Rp3427
sg320
g302
(g306
S'ffffff/9'
p3428
tp3429
Rp3430
sa(dp3431
g301
g302
(g306
S'\n#\x1cQn\x10\xe6?'
p3432
tp3433
Rp3434
sg312
g302
(g306
S'\xb6\xb2\x1fvUS\x1b@'
p3435
tp3436
Rp3437
sg316
g302
(g306
S'\xfc\xe5\x01M\x8f\\\xd0?'
p3438
tp3439
Rp3440
sg320
g302
(g306
S'ffffff/9'
p3441
tp3442
Rp3443
sa(dp3444
g301
g302
(g306
S'-G,\xe0\x10\xa3\xe7?'
p3445
tp3446
Rp3447
sg312
g302
(g306
S'Sg^\xd4\xadu\x1f@'
p3448
tp3449
Rp3450
sg316
g302
(g306
S'\xb8\x8d(\xb0\xc8\xb7\xd0?'
p3451
tp3452
Rp3453
sg320
g302
(g306
S'ffffff/9'
p3454
tp3455
Rp3456
sa(dp3457
g301
g302
(g306
S'\x0e\x04\xda\xda\x05\xef\xe6?'
p3458
tp3459
Rp3460
sg312
g302
(g306
S'\x8aC\xd0\xfd\x82\xa6\x1e@'
p3461
tp3462
Rp3463
sg316
g302
(g306
S'\x93\x08\xcbE\xd0\x0c\xd0?'
p3464
tp3465
Rp3466
sg320
g302
(g306
S'ffffff/9'
p3467
tp3468
Rp3469
sa(dp3470
g301
g302
(g306
S'\xbe|8XS\xe0\xe5?'
p3471
tp3472
Rp3473
sg312
g302
(g306
S'@s\x19\xe9Tj\x1f@'
p3474
tp3475
Rp3476
sg316
g302
(g306
S'vF3\xf3\xeaC\xd0?'
p3477
tp3478
Rp3479
sg320
g302
(g306
S'ffffff/9'
p3480
tp3481
Rp3482
sa(dp3483
g301
g302
(g306
S'\xb3\x07\x90\x11\xa4\xa8\xe9?'
p3484
tp3485
Rp3486
sg312
g302
(g306
S'\xda\x94\x89\xbc%X$@'
p3487
tp3488
Rp3489
sg316
g302
(g306
S'$\xe8)\xf4\xe6\r\xd1?'
p3490
tp3491
Rp3492
sg320
g302
(g306
S'ffffff/9'
p3493
tp3494
Rp3495
sa(dp3496
g301
g302
(g306
S'Z\xe8\x1c\xc0|\x9f\xe7?'
p3497
tp3498
Rp3499
sg312
g302
(g306
S'0eV\xc4mV#@'
p3500
tp3501
Rp3502
sg316
g302
(g306
S'\xa5_\xc4\x80\xa3c\xcf?'
p3503
tp3504
Rp3505
sg320
g302
(g306
S'ffffff/9'
p3506
tp3507
Rp3508
sa(dp3509
g301
g302
(g306
S'\x18Uq\xe9\xfb\xa0\xe6?'
p3510
tp3511
Rp3512
sg312
g302
(g306
S'\xe5\xb9<#\x86\x02\x1e@'
p3513
tp3514
Rp3515
sg316
g302
(g306
S'\x1e\x1dv;\xe1+\xd0?'
p3516
tp3517
Rp3518
sg320
g302
(g306
S'ffffff/9'
p3519
tp3520
Rp3521
sa(dp3522
g301
g302
(g306
S'\x18%L8\x13\xac\xe5?'
p3523
tp3524
Rp3525
sg312
g302
(g306
S'\x9e\xc3-?\x06\xe4\x19@'
p3526
tp3527
Rp3528
sg316
g302
(g306
S'\xc4\x97\x0c\xf2\xa0{\xd0?'
p3529
tp3530
Rp3531
sg320
g302
(g306
S'\x00\x00\x00\x00\x00\x00/9'
p3532
tp3533
Rp3534
sa(dp3535
g301
g302
(g306
S'\x03)\x16\xf4\xf7\xc6\xe7?'
p3536
tp3537
Rp3538
sg312
g302
(g306
S'3$!\xb5i\x1c#@'
p3539
tp3540
Rp3541
sg316
g302
(g306
S'\x03\x85a0G\xfd\xce?'
p3542
tp3543
Rp3544
sg320
g302
(g306
S'\x00\x00\x00\x00\x00\x00/9'
p3545
tp3546
Rp3547
sa(dp3548
g301
g302
(g306
S'v\xbc`\x96;\xbb\xe8?'
p3549
tp3550
Rp3551
sg312
g302
(g306
S'(\xa3\xa5:\x80\xff!@'
p3552
tp3553
Rp3554
sg316
g302
(g306
S'61=\x96\xe7\xc8\xd0?'
p3555
tp3556
Rp3557
sg320
g302
(g306
S'\x00\x00\x00\x00\x00\x00/9'
p3558
tp3559
Rp3560
sa(dp3561
g301
g302
(g306
S'\x06\xb4\xe0\x01\xb6\n\xe5?'
p3562
tp3563
Rp3564
sg312
g302
(g306
S'\x08P\x86\xdf\xdf/\x1f@'
p3565
tp3566
Rp3567
sg316
g302
(g306
S'\xf6\xc9\x00\x11ga\xce?'
p3568
tp3569
Rp3570
sg320
g302
(g306
S'\x00\x00\x00\x00\x00\x00/9'
p3571
tp3572
Rp3573
sa(dp3574
g301
g302
(g306
S'\x17\x1d\xcc\x96\xc3+\xe9?'
p3575
tp3576
Rp3577
sg312
g302
(g306
S'\xfb8\x13\x94|\x9c$@'
p3578
tp3579
Rp3580
sg316
g302
(g306
S'tf\x06\x91L\x9b\xd0?'
p3581
tp3582
Rp3583
sg320
g302
(g306
S'\x00\x00\x00\x00\x00\x00/9'
p3584
tp3585
Rp3586
sa(dp3587
g301
g302
(g306
S'\x9a2P\xa88\x9a\xe6?'
p3588
tp3589
Rp3590
sg312
g302
(g306
S'V$\xbe\xbd\xedD\x1e@'
p3591
tp3592
Rp3593
sg316
g302
(g306
S'\x18\x80\xb8\xb9Xr\xd0?'
p3594
tp3595
Rp3596
sg320
g302
(g306
S'\x00\x00\x00\x00\x00\x00/9'
p3597
tp3598
Rp3599
sa(dp3600
g301
g302
(g306
S'\xf4\xb9\x14\xa1\x96\x93\xe8?'
p3601
tp3602
Rp3603
sg312
g302
(g306
S'/\xcaD\x84e\x03#@'
p3604
tp3605
Rp3606
sg316
g302
(g306
S'}Q\xe9\xc1\xa1\xbe\xcf?'
p3607
tp3608
Rp3609
sg320
g302
(g306
S'\x00\x00\x00\x00\x00\x00/9'
p3610
tp3611
Rp3612
sa(dp3613
g301
g302
(g306
S'\xba\xf1\x8a\xac\x90\xcf\xe7?'
p3614
tp3615
Rp3616
sg312
g302
(g306
S'\'\x913\x96\x0f\xf7"@'
p3617
tp3618
Rp3619
sg316
g302
(g306
S'~\xd2\x91\xca\xc1\xa0\xd0?'
p3620
tp3621
Rp3622
sg320
g302
(g306
S'\x00\x00\x00\x00\x00\x00/9'
p3623
tp3624
Rp3625
sa(dp3626
g301
g302
(g306
S'"\xbb\x95\x0c\x9c\xbb\xf1?'
p3627
tp3628
Rp3629
sg312
g302
(g306
S'\xd2V\xb5?\xab\x081@'
p3630
tp3631
Rp3632
sg316
g302
(g306
S'P\x9a\xe3\x91\x11\x07\xd2?'
p3633
tp3634
Rp3635
sg320
g302
(g306
S'\x00\x00\x00\x00\x00\x00/9'
p3636
tp3637
Rp3638
sa(dp3639
g301
g302
(g306
S'v\t2\x8fR\x8a\xea?'
p3640
tp3641
Rp3642
sg312
g302
(g306
S'\x9d\x8bi\xd6\xde\xb8#@'
p3643
tp3644
Rp3645
sg316
g302
(g306
S'6\xdb\x1b\xe6\x99\xeb\xd1?'
p3646
tp3647
Rp3648
sg320
g302
(g306
S'\x00\x00\x00\x00\x00\x00/9'
p3649
tp3650
Rp3651
sa(dp3652
g301
g302
(g306
S'\xf9\x88\xb2\xc6\xd7\x8a\xe7?'
p3653
tp3654
Rp3655
sg312
g302
(g306
S'\x98Z\xff\xca\xd2\x0e\x1f@'
p3656
tp3657
Rp3658
sg316
g302
(g306
S'\xfc\xe6\x06\x9d\xab\xea\xd0?'
p3659
tp3660
Rp3661
sg320
g302
(g306
S'\x00\x00\x00\x00\x00\x00/9'
p3662
tp3663
Rp3664
sa(dp3665
g301
g302
(g306
S'`H"\x12Z\x93\xe7?'
p3666
tp3667
Rp3668
sg312
g302
(g306
S'\xf6\xa5\x93"\xaf\xa5!@'
p3669
tp3670
Rp3671
sg316
g302
(g306
S'\xd5\x12\xbfX\x88\xdd\xce?'
p3672
tp3673
Rp3674
sg320
g302
(g306
S'\x00\x00\x00\x00\x00\x00/9'
p3675
tp3676
Rp3677
sa(dp3678
g301
g302
(g306
S'\x81\x16%*\x13V\xe6?'
p3679
tp3680
Rp3681
sg312
g302
(g306
S'S\xa4\x90GU\x9d\x1e@'
p3682
tp3683
Rp3684
sg316
g302
(g306
S'\x1c\x0b\xe4\x82\x8e\xa7\xd0?'
p3685
tp3686
Rp3687
sg320
g302
(g306
S'\x00\x00\x00\x00\x00\x00/9'
p3688
tp3689
Rp3690
sa(dp3691
g301
g302
(g306
S"m\xc1'\x83\xfcX\xec?"
p3692
tp3693
Rp3694
sg312
g302
(g306
S'8^\x81\xd6\xbd\x00)@'
p3695
tp3696
Rp3697
sg316
g302
(g306
S'\xa8\xb3\x92\xb4\xfe\xf8\xd0?'
p3698
tp3699
Rp3700
sg320
g302
(g306
S'\x00\x00\x00\x00\x00\x00/9'
p3701
tp3702
Rp3703
sa(dp3704
g301
g302
(g306
S'\x89\x10\xa3B\x1f\x05\xe7?'
p3705
tp3706
Rp3707
sg312
g302
(g306
S'\x8b\x14u\x82]\x07\x1e@'
p3708
tp3709
Rp3710
sg316
g302
(g306
S'\xd2=\x87\xc3r>\xd1?'
p3711
tp3712
Rp3713
sg320
g302
(g306
S'\x00\x00\x00\x00\x00\x00/9'
p3714
tp3715
Rp3716
sa(dp3717
g301
g302
(g306
S'\xef\xe8\x1fqsl\xe8?'
p3718
tp3719
Rp3720
sg312
g302
(g306
S'\xd0\xfc\x04\x18\x13\x03\x1f@'
p3721
tp3722
Rp3723
sg316
g302
(g306
S'\x07\x7f\xaa\xcfk\x10\xd1?'
p3724
tp3725
Rp3726
sg320
g302
(g306
S'\x00\x00\x00\x00\x00\x00/9'
p3727
tp3728
Rp3729
sa(dp3730
g301
g302
(g306
S'\x07T\xec}\xc8q\xe8?'
p3731
tp3732
Rp3733
sg312
g302
(g306
S'\x05s/\xadUU$@'
p3734
tp3735
Rp3736
sg316
g302
(g306
S'\x9d\xf1\x81\xea\x15\xc2\xd0?'
p3737
tp3738
Rp3739
sg320
g302
(g306
S'\x00\x00\x00\x00\x00\x00/9'
p3740
tp3741
Rp3742
sa(dp3743
g301
g302
(g306
S'\x82\x8c\xae\x90~\xeb\xeb?'
p3744
tp3745
Rp3746
sg312
g302
(g306
S"\x9c\x7fU\x1b/\xf3'@"
p3747
tp3748
Rp3749
sg316
g302
(g306
S'\xb4\x157[\x19A\xd1?'
p3750
tp3751
Rp3752
sg320
g302
(g306
S'\x00\x00\x00\x00\x00\x00/9'
p3753
tp3754
Rp3755
sa(dp3756
g301
g302
(g306
S'\x91m\xd7\x97Rx\xe6?'
p3757
tp3758
Rp3759
sg312
g302
(g306
S'\xb6\xd424\xc2\x9d\x1c@'
p3760
tp3761
Rp3762
sg316
g302
(g306
S'\xb0\xb7\x070rO\xd0?'
p3763
tp3764
Rp3765
sg320
g302
(g306
S'\x00\x00\x00\x00\x00\x00/9'
p3766
tp3767
Rp3768
sa(dp3769
g301
g302
(g306
S'\xc6W\xb0\xfbR\xaf\xe8?'
p3770
tp3771
Rp3772
sg312
g302
(g306
S'P\xa0\xe1\xca\xcc\xf1\x1f@'
p3773
tp3774
Rp3775
sg316
g302
(g306
S'\x01v\xa3/+\xc2\xd0?'
p3776
tp3777
Rp3778
sg320
g302
(g306
S'\x00\x00\x00\x00\x00\x00/9'
p3779
tp3780
Rp3781
sa(dp3782
g301
g302
(g306
S'\xb2w&\xe7G[\xe4?'
p3783
tp3784
Rp3785
sg312
g302
(g306
S'U\x8fH\xa8\xc5\x11\x1a@'
p3786
tp3787
Rp3788
sg316
g302
(g306
S'\xd2\xee26Bg\xce?'
p3789
tp3790
Rp3791
sg320
g302
(g306
S'\x00\x00\x00\x00\x00\x00/9'
p3792
tp3793
Rp3794
sa(dp3795
g301
g302
(g306
S'\x04\xb39\xb5\x83\xc0\xe8?'
p3796
tp3797
Rp3798
sg312
g302
(g306
S'3\xd9R{\xdf"!@'
p3799
tp3800
Rp3801
sg316
g302
(g306
S'\xeeS\xc4\xa8\x1c\xdf\xd0?'
p3802
tp3803
Rp3804
sg320
g302
(g306
S'\x00\x00\x00\x00\x00\x00/9'
p3805
tp3806
Rp3807
sa(dp3808
g301
g302
(g306
S'\x13\x0b\x99zG\x9c\xe9?'
p3809
tp3810
Rp3811
sg312
g302
(g306
S'X\x1e\x0c\x1f\xa4"#@'
p3812
tp3813
Rp3814
sg316
g302
(g306
S'\xae\xebe\xd1e4\xd0?'
p3815
tp3816
Rp3817
sg320
g302
(g306
S'\x00\x00\x00\x00\x00\x00/9'
p3818
tp3819
Rp3820
sa(dp3821
g301
g302
(g306
S'\xd7\x99\x10\xbb\x93\x7f\xf1?'
p3822
tp3823
Rp3824
sg312
g302
(g306
S'&\xa0U\x0cw\xe80@'
p3825
tp3826
Rp3827
sg316
g302
(g306
S'{\xa9\xc97\xe0k\xd1?'
p3828
tp3829
Rp3830
sg320
g302
(g306
S'\x00\x00\x00\x00\x00\x00/9'
p3831
tp3832
Rp3833
sa(dp3834
g301
g302
(g306
S'Y\xf4\xd2\xe7\x0f\x9e\xe5?'
p3835
tp3836
Rp3837
sg312
g302
(g306
S'\xeb2j\xa9\xfb\x0b\x1d@'
p3838
tp3839
Rp3840
sg316
g302
(g306
S'\xe5\x0b@2\xd3\x83\xcf?'
p3841
tp3842
Rp3843
sg320
g302
(g306
S'\x00\x00\x00\x00\x00\x00/9'
p3844
tp3845
Rp3846
sa(dp3847
g301
g302
(g306
S'\x10\x99\xaay<W\xe5?'
p3848
tp3849
Rp3850
sg312
g302
(g306
S'|\x9da9\x1b\x12\x19@'
p3851
tp3852
Rp3853
sg316
g302
(g306
S'j-\xf9\xceV\\\xd0?'
p3854
tp3855
Rp3856
sg320
g302
(g306
S'\x00\x00\x00\x00\x00\x00/9'
p3857
tp3858
Rp3859
sa(dp3860
g301
g302
(g306
S'I+`a\xd0\xbb\xe4?'
p3861
tp3862
Rp3863
sg312
g302
(g306
S'#\xa9~A\x0e\x04 @'
p3864
tp3865
Rp3866
sg316
g302
(g306
S'\xb1\xdbWQ\xa8\xa4\xcb?'
p3867
tp3868
Rp3869
sg320
g302
(g306
S'\xab\xaa\xaa\xaa\xaa\xaa\x069'
p3870
tp3871
Rp3872
sa(dp3873
g301
g302
(g306
S'k\x05\x02\xf9-\xe8\xe2?'
p3874
tp3875
Rp3876
sg312
g302
(g306
S'\x99\xfc\xa5\xd1\xd6\xb2\x1a@'
p3877
tp3878
Rp3879
sg316
g302
(g306
S'\x8e\xd1\xe9\xcb\x1b)\xca?'
p3880
tp3881
Rp3882
sg320
g302
(g306
S"b'vb'v\x029"
p3883
tp3884
Rp3885
sa(dp3886
g301
g302
(g306
S'\x91\xd3\xea\xb9\xff:\xe3?'
p3887
tp3888
Rp3889
sg312
g302
(g306
S'7:\xa7\xb7]\xda\x1a@'
p3890
tp3891
Rp3892
sg316
g302
(g306
S'\x9fE\xb5\xd6 4\xca?'
p3893
tp3894
Rp3895
sg320
g302
(g306
S'\x00\x00\x00\x00\x00\x80\x069'
p3896
tp3897
Rp3898
sa(dp3899
g301
g302
(g306
S'[\xc7O\x02YL\xd7?'
p3900
tp3901
Rp3902
sg312
g302
(g306
S'\x89\x83G\x92\xa4\x10\t@'
p3903
tp3904
Rp3905
sg316
g302
(g306
S'\xdb\x97\x8a\xb0\x04\xb3\xc1?'
p3906
tp3907
Rp3908
sg320
g302
(g306
S'\xab\xaa\xaa\xaa\xaa\xaa\xf08'
p3909
tp3910
Rp3911
sa(dp3912
g301
g302
(g306
S'n\x14\x0b\xd9\xbd\xbd\xd6?'
p3913
tp3914
Rp3915
sg312
g302
(g306
S'$\xd9\xc0\xa9Q@\x0e@'
p3916
tp3917
Rp3918
sg316
g302
(g306
S'\xc7\xd0p\xeb\xddl\xc1?'
p3919
tp3920
Rp3921
sg320
g302
(g306
S'\x00\x00\x00\x00\x00\x00\xe48'
p3922
tp3923
Rp3924
sa(dp3925
g301
g302
(g306
S'\xb6QAQ\x9e\xc3\xb9?'
p3926
tp3927
Rp3928
sg312
g302
(g306
S'\x9a\x19\xaa \x0e+\xf3?'
p3929
tp3930
Rp3931
sg316
g302
(g306
S's\xaa\x0e\x9c\xd2?\x9d?'
p3932
tp3933
Rp3934
sg320
g302
(g306
S'\x00\x00\x00\x00\x00\x00\xf08'
p3935
tp3936
Rp3937
sa(dp3938
g301
g302
(g306
S'\xcd\x81f\xa3n\x05\xbe?'
p3939
tp3940
Rp3941
sg312
g302
(g306
S'\x90\xc2\xf5(\\\x8f\xf6?'
p3942
tp3943
Rp3944
sg316
g302
(g306
S'N#\x8a]\xf3\xe8\xa0?'
p3945
tp3946
Rp3947
sg320
g302
(g306
S'\x00\x00\x00\x00\x00\x00\xf08'
p3948
tp3949
Rp3950
sa(dp3951
g301
g302
(g306
S'\xd8\xb7J\xf7$\xa0\xbd?'
p3952
tp3953
Rp3954
sg312
g302
(g306
S'\x9a\x19\xaa \x0e+\xf3?'
p3955
tp3956
Rp3957
sg316
g302
(g306
S'\xb5X%\xea\x7f\x1a\xa0?'
p3958
tp3959
Rp3960
sg320
g302
(g306
S'\x00\x00\x00\x00\x00\x00\xf08'
p3961
tp3962
Rp3963
satp3964
Rp3965
(dp3966
g290
I01
sg291
Nsg292
Nsg293
I0
sg294
g295
(g1
tp3967
Rp3968
sbsS'size'
p3969
g0
(g1
g2
(lp3970
(dp3971
g301
g302
(g306
S'\xf7\xcf\xc7Sr\xa9\x14@'
p3972
tp3973
Rp3974
sg312
F27.75
sg316
g302
(g306
S'>\xc6\xdc\xb5\x84|\x1b@'
p3975
tp3976
Rp3977
sg320
F2.0
sa(dp3978
g301
g302
(g306
S'M&PR\x18A\x13@'
p3979
tp3980
Rp3981
sg312
F27.75
sg316
g302
(g306
S'~\xd9=yXh\x19@'
p3982
tp3983
Rp3984
sg320
F1.05
sa(dp3985
g301
g302
(g306
S'\xcc\xa8h\xd2\xf6\xd2\x12@'
p3986
tp3987
Rp3988
sg312
F27.5
sg316
g302
(g306
S'6\xcd;N\xd1\x91\x19@'
p3989
tp3990
Rp3991
sg320
F1.0
sa(dp3992
g301
g302
(g306
S'K\x88_\xe8@\x0c\x13@'
p3993
tp3994
Rp3995
sg312
F27.2
sg316
g302
(g306
S'\xb2\xe1\xe9\x95\xb2\xcc\x1b@'
p3996
tp3997
Rp3998
sg320
F1.0
sa(dp3999
g301
g302
(g306
S',\x11\xaf1\x8c\xe3\x13@'
p4000
tp4001
Rp4002
sg312
F27.95
sg316
g302
(g306
S'*\xcb\x10\xc7\xbax\x1f@'
p4003
tp4004
Rp4005
sg320
F1.1
sa(dp4006
g301
g302
(g306
S'U\xc5gW\x13J\x14@'
p4007
tp4008
Rp4009
sg312
F30.0
sg316
g302
(g306
S'\xc5\xd3+e\x19\xa2!@'
p4010
tp4011
Rp4012
sg320
F1.1
sa(dp4013
g301
g302
(g306
S'V\xb5n\x1a%\xd1\x13@'
p4014
tp4015
Rp4016
sg312
F29.8
sg316
g302
(g306
S'\xeas\xb5\x15\xfb\xcb"@'
p4017
tp4018
Rp4019
sg320
F1.1
sa(dp4020
g301
g302
(g306
S'>{\x14_\xe5\xf0\x13@'
p4021
tp4022
Rp4023
sg312
F31.5
sg316
g302
(g306
S'E\x8bl\xe7\xfb\xe9#@'
p4024
tp4025
Rp4026
sg320
F1.3
sa(dp4027
g301
g302
(g306
S'\x8e\x0c-B\xf4\x9b\x13@'
p4028
tp4029
Rp4030
sg312
F31.55
sg316
g302
(g306
S'\xb9\x8d\x06\xf0\x16\xa8$@'
p4031
tp4032
Rp4033
sg320
F1.2
sa(dp4034
g301
g302
(g306
S'.\xb2\xdc\x147C\x14@'
p4035
tp4036
Rp4037
sg312
F33.3
sg316
g302
(g306
S'\xd9\x81sF\x94\xb6%@'
p4038
tp4039
Rp4040
sg320
F1.15
sa(dp4041
g301
g302
(g306
S's\xed\xa6\xe0\xb3\x90\x15@'
p4042
tp4043
Rp4044
sg312
F36.0
sg316
g302
(g306
S"\x00\x91~\xfb:P'@"
p4045
tp4046
Rp4047
sg320
F1.45
sa(dp4048
g301
g302
(g306
S'u\x82\x1b^\xfeb\x16@'
p4049
tp4050
Rp4051
sg312
F38.6
sg316
g302
(g306
S'\xb1Pk\x9aw\xbc(@'
p4052
tp4053
Rp4054
sg320
F1.65
sa(dp4055
g301
g302
(g306
S"\xb7\xc5'.\x99E\x17@"
p4056
tp4057
Rp4058
sg312
F39.8
sg316
g302
(g306
S'\xd0\xd5V\xec/\x1b*@'
p4059
tp4060
Rp4061
sg320
F1.4
sa(dp4062
g301
g302
(g306
S'\x80\t\xd7\x13\xaa\x0e\x18@'
p4063
tp4064
Rp4065
sg312
F41.35
sg316
g302
(g306
S'\xd0\xb3Y\xf5\xb9z+@'
p4066
tp4067
Rp4068
sg320
F1.4
sa(dp4069
g301
g302
(g306
S'F\x1f\x911\\W\x18@'
p4070
tp4071
Rp4072
sg312
F43.25
sg316
g302
(g306
S'\x13\xd0D\xd8\xf0\x94,@'
p4073
tp4074
Rp4075
sg320
F1.65
sa(dp4076
g301
g302
(g306
S'\x92\x07\xe7\xe5Yw\x19@'
p4077
tp4078
Rp4079
sg312
F44.1
sg316
g302
(g306
S'\x00M\x84\rO/-@'
p4080
tp4081
Rp4082
sg320
F1.45
sa(dp4083
g301
g302
(g306
S'\xdax\x9e9X\x0b\x1a@'
p4084
tp4085
Rp4086
sg312
F45.75
sg316
g302
(g306
S'\xa6\xe8H.\xff\xe1-@'
p4087
tp4088
Rp4089
sg320
F1.85
sa(dp4090
g301
g302
(g306
S'\x8a\xe37W\x87\xad\x1a@'
p4091
tp4092
Rp4093
sg312
F46.7
sg316
g302
(g306
S'\xe6\xd9\xac\xfa\\m.@'
p4094
tp4095
Rp4096
sg320
F1.8
sa(dp4097
g301
g302
(g306
S'\xf8\xb39\x1e*\x19\x1b@'
p4098
tp4099
Rp4100
sg312
F47.55
sg316
g302
(g306
S'\xa6W\xca2\xc4\xd1.@'
p4101
tp4102
Rp4103
sg320
F1.4
sa(dp4104
g301
g302
(g306
S'\x12\x90\xee\xc7L\xed\x1a@'
p4105
tp4106
Rp4107
sg312
F46.8
sg316
g302
(g306
S'uq\x1b\r\xe0-/@'
p4108
tp4109
Rp4110
sg320
F1.65
sa(dp4111
g301
g302
(g306
S'\x06u\xa8\x13U\xba\x1a@'
p4112
tp4113
Rp4114
sg312
F48.15
sg316
g302
(g306
S'\xfa\xa0g\xb3\xeas/@'
p4115
tp4116
Rp4117
sg320
F1.95
sa(dp4118
g301
g302
(g306
S'V\xde\xfd\x92\t\xc2\x1a@'
p4119
tp4120
Rp4121
sg312
F48.25
sg316
g302
(g306
S'\xe6\xf2\x1f\xd2o\xbf/@'
p4122
tp4123
Rp4124
sg320
F2.0
sa(dp4125
g301
g302
(g306
S'\xf8\x98 \xd6*p\x1a@'
p4126
tp4127
Rp4128
sg312
F49.5
sg316
g302
(g306
S'\x86\x16\xd9\xce\xf7\xb3/@'
p4129
tp4130
Rp4131
sg320
F1.65
sa(dp4132
g301
g302
(g306
S'\x9e\xee\xb5\x11T\xbb\x19@'
p4133
tp4134
Rp4135
sg312
F45.5
sg316
g302
(g306
S'\x00"\xfd\xf6u\xc0/@'
p4136
tp4137
Rp4138
sg320
F2.05
sa(dp4139
g301
g302
(g306
S'f\x01\xbf\xce1\xb8\x1a@'
p4140
tp4141
Rp4142
sg312
F47.95
sg316
g302
(g306
S'\r$(~\x8c\xf9/@'
p4143
tp4144
Rp4145
sg320
F2.65
sa(dp4146
g301
g302
(g306
S'Jsf\x91\x05m\x1a@'
p4147
tp4148
Rp4149
sg312
F48.25
sg316
g302
(g306
S'\xe8\xd9\xac\xfa\\\x1d0@'
p4150
tp4151
Rp4152
sg320
F1.9
sa(dp4153
g301
g302
(g306
S'\x10\x9f\x06\xfe\x17\xbe\x1a@'
p4154
tp4155
Rp4156
sg312
F48.2
sg316
g302
(g306
S'\xc3\xf5(\\\x8fB0@'
p4157
tp4158
Rp4159
sg320
F1.95
sa(dp4160
g301
g302
(g306
S'P;\xe6\x14\xc1\x04\x1c@'
p4161
tp4162
Rp4163
sg312
F49.75
sg316
g302
(g306
S'@5^\xbaI|0@'
p4164
tp4165
Rp4166
sg320
F2.3
sa(dp4167
g301
g302
(g306
S'\x9dIe\xa7\x8e\xe5\x1c@'
p4168
tp4169
Rp4170
sg312
F50.45
sg316
g302
(g306
S'\x9d3\xa2\xb47\xb80@'
p4171
tp4172
Rp4173
sg320
F1.95
sa(dp4174
g301
g302
(g306
S'bA\x93Q.\xe0\x1d@'
p4175
tp4176
Rp4177
sg312
F50.5
sg316
g302
(g306
S'r\x1b\r\xe0-\x001@'
p4178
tp4179
Rp4180
sg320
F1.6
sa(dp4181
g301
g302
(g306
S'\xe8\xe5\xd8\r\xe5N\x1e@'
p4182
tp4183
Rp4184
sg312
F51.35
sg316
g302
(g306
S':\x92\xcb\x7fH\x1f1@'
p4185
tp4186
Rp4187
sg320
F1.6
sa(dp4188
g301
g302
(g306
S'-\xfc.\xbe\x8b\x94\x1e@'
p4189
tp4190
Rp4191
sg312
F51.3
sg316
g302
(g306
S'\xf4\xfd\xd4x\xe9V1@'
p4192
tp4193
Rp4194
sg320
F2.4
sa(dp4195
g301
g302
(g306
S'\xbd\xb2\xa4\xd2\t\x17\x1f@'
p4196
tp4197
Rp4198
sg312
F52.95
sg316
g302
(g306
S'\x7f\xd9=yXX1@'
p4199
tp4200
Rp4201
sg320
F1.7
sa(dp4202
g301
g302
(g306
S'\x1a}\xd7\x07?\x97\x1f@'
p4203
tp4204
Rp4205
sg312
F54.15
sg316
g302
(g306
S"\xbb'\x0f\x0b\xb5V1@"
p4206
tp4207
Rp4208
sg320
F1.9
sa(dp4209
g301
g302
(g306
S'~\xc9s\xbb\xf7\xce\x1f@'
p4210
tp4211
Rp4212
sg312
F55.1
sg316
g302
(g306
S'\xa2\xb47\xf8\xc2d1@'
p4213
tp4214
Rp4215
sg320
F1.75
sa(dp4216
g301
g302
(g306
S"\xda'\xb1\xa6_\x15 @"
p4217
tp4218
Rp4219
sg312
F57.0
sg316
g302
(g306
S'\x10X9\xb4\xc8\x961@'
p4220
tp4221
Rp4222
sg320
F1.75
sa(dp4223
g301
g302
(g306
S'\x13=zbZ\xe1\x1f@'
p4224
tp4225
Rp4226
sg312
F53.6
sg316
g302
(g306
S'\x98L\x15\x8cJ\x9a1@'
p4227
tp4228
Rp4229
sg320
F2.2
sa(dp4230
g301
g302
(g306
S'\xfd\x08}n\r] @'
p4231
tp4232
Rp4233
sg312
F55.9
sg316
g302
(g306
S'\n$(~\x8c\xb91@'
p4234
tp4235
Rp4236
sg320
F1.5
sa(dp4237
g301
g302
(g306
S'y\x19=\x0fG\xe9 @'
p4238
tp4239
Rp4240
sg312
F54.45
sg316
g302
(g306
S'\xaaW\xca2\xc4\xf11@'
p4241
tp4242
Rp4243
sg320
F2.4
sa(dp4244
g301
g302
(g306
S'\x12>|\xaf\x1f\xce @'
p4245
tp4246
Rp4247
sg312
F55.4
sg316
g302
(g306
S'E\xfa\xed\xeb\xc0\xe91@'
p4248
tp4249
Rp4250
sg320
F2.2
sa(dp4251
g301
g302
(g306
S'\xea-\x1f\xa4\xe9\xd7 @'
p4252
tp4253
Rp4254
sg312
F56.8
sg316
g302
(g306
S'\xbf\x0e\x9c3\xa2\xe41@'
p4255
tp4256
Rp4257
sg320
F1.65
sa(dp4258
g301
g302
(g306
S'\x88\x96$\xb5\xe7/!@'
p4259
tp4260
Rp4261
sg312
F57.0
sg316
g302
(g306
S'\x8a\xfde\xf7\xe4\x012@'
p4262
tp4263
Rp4264
sg320
F1.7
sa(dp4265
g301
g302
(g306
S'\xc1\xd5x\x8d\xa0\x8d!@'
p4266
tp4267
Rp4268
sg312
F57.25
sg316
g302
(g306
S'\xc7\x98\xbb\x96\x90/2@'
p4269
tp4270
Rp4271
sg320
F1.7
sa(dp4272
g301
g302
(g306
S'\x8e\x80\x19\x14Y\xf4!@'
p4273
tp4274
Rp4275
sg312
F59.65
sg316
g302
(g306
S'\xc8v\xbe\x9f\x1aO2@'
p4276
tp4277
Rp4278
sg320
F1.75
sa(dp4279
g301
g302
(g306
S'\xf1\xeb\x18/\xc1\xed!@'
p4280
tp4281
Rp4282
sg312
F60.95
sg316
g302
(g306
S'\x82\x95C\x8blg2@'
p4283
tp4284
Rp4285
sg320
F1.85
sa(dp4286
g301
g302
(g306
S'#\xb3\xdc&\x95\x98"@'
p4287
tp4288
Rp4289
sg312
F61.15
sg316
g302
(g306
S'#\xb9\xfc\x87\xf4\xab2@'
p4290
tp4291
Rp4292
sg320
F2.5
sa(dp4293
g301
g302
(g306
S'\x93\xa4\xd8$18"@'
p4294
tp4295
Rp4296
sg312
F60.95
sg316
g302
(g306
S"X\xec/\xbb'\x8f2@"
p4297
tp4298
Rp4299
sg320
F2.05
sa(dp4300
g301
g302
(g306
S'\xee\xb7zg\x0b\xb1"@'
p4301
tp4302
Rp4303
sg312
F59.8
sg316
g302
(g306
S"V\xec/\xbb'\xaf2@"
p4304
tp4305
Rp4306
sg320
F2.0
sa(dp4307
g301
g302
(g306
S'\x93XJ\xdb\xa3+"@'
p4308
tp4309
Rp4310
sg312
F62.7
sg316
g302
(g306
S'jM\xf3\x8eSt2@'
p4311
tp4312
Rp4313
sg320
F1.65
sa(dp4314
g301
g302
(g306
S'>\x91\xab\xa5\x00K"@'
p4315
tp4316
Rp4317
sg312
F61.15
sg316
g302
(g306
S'\xdf\x93\x87\x85Z\x832@'
p4318
tp4319
Rp4320
sg320
F1.9
sa(dp4321
g301
g302
(g306
S'\x02\x82\x98\x81\x9c\x82"@'
p4322
tp4323
Rp4324
sg312
F63.45
sg316
g302
(g306
S'g"lxzu2@'
p4325
tp4326
Rp4327
sg320
F2.25
sa(dp4328
g301
g302
(g306
S'\xca\xed\x11i\xb4h"@'
p4329
tp4330
Rp4331
sg312
F64.35
sg316
g302
(g306
S'\xf9S\xe3\xa5\x9bT2@'
p4332
tp4333
Rp4334
sg320
F1.65
sa(dp4335
g301
g302
(g306
S'\xe4\x15y\xf0\xb9\xd6!@'
p4336
tp4337
Rp4338
sg312
F61.1
sg316
g302
(g306
S'\x9aw\x9c\xa2#92@'
p4339
tp4340
Rp4341
sg320
F1.8
sa(dp4342
g301
g302
(g306
S'\x12)\xb3\x87\xae\x16!@'
p4343
tp4344
Rp4345
sg312
F61.15
sg316
g302
(g306
S'Zd;\xdfO\r2@'
p4346
tp4347
Rp4348
sg320
F1.95
sa(dp4349
g301
g302
(g306
S'\x7f\xf9y\xd4\x97\x0e!@'
p4350
tp4351
Rp4352
sg312
F57.5
sg316
g302
(g306
S'\x1e\x16jM\xf3\x0e2@'
p4353
tp4354
Rp4355
sg320
F2.2
sa(dp4356
g301
g302
(g306
S'\xd2W+2P\xc2 @'
p4357
tp4358
Rp4359
sg312
F57.65
sg316
g302
(g306
S'e\xaa`TR\x072@'
p4360
tp4361
Rp4362
sg320
F1.95
sa(dp4363
g301
g302
(g306
S'\x17\x9bu\x19\xb8k @'
p4364
tp4365
Rp4366
sg312
F55.95
sg316
g302
(g306
S'\x15\x1d\xc9\xe5?\xd41@'
p4367
tp4368
Rp4369
sg320
F2.05
sa(dp4370
g301
g302
(g306
S'\xb9\xa5\xa5\xba\x98\x01!@'
p4371
tp4372
Rp4373
sg312
F56.75
sg316
g302
(g306
S'\xe8\xb7\xaf\x03\xe7\xdc1@'
p4374
tp4375
Rp4376
sg320
F2.15
sa(dp4377
g301
g302
(g306
S'\xfar\xb6W\xeb\xd0 @'
p4378
tp4379
Rp4380
sg312
F56.35
sg316
g302
(g306
S'\x96n\x12\x83\xc0\xfa1@'
p4381
tp4382
Rp4383
sg320
F2.15
sa(dp4384
g301
g302
(g306
S'\xa7\xd62\x84\xd2\n!@'
p4385
tp4386
Rp4387
sg312
F58.05
sg316
g302
(g306
S'F\x94\xf6\x06_\xe81@'
p4388
tp4389
Rp4390
sg320
F2.5
sa(dp4391
g301
g302
(g306
S'nb\xe6\xd1x\xc7 @'
p4392
tp4393
Rp4394
sg312
F58.5
sg316
g302
(g306
S'q\xce\x88\xd2\xde\xe01@'
p4395
tp4396
Rp4397
sg320
F1.65
sa(dp4398
g301
g302
(g306
S'e\xa2\x1ao\x04\xc5 @'
p4399
tp4400
Rp4401
sg312
F59.05
sg316
g302
(g306
S'\x14\xd0D\xd8\xf0\xf41@'
p4402
tp4403
Rp4404
sg320
F1.5
sa(dp4405
g301
g302
(g306
S'F\x04;\xe5\xaf!!@'
p4406
tp4407
Rp4408
sg312
F56.95
sg316
g302
(g306
S'\xb9k\t\xf9\xa0\x172@'
p4409
tp4410
Rp4411
sg320
F1.85
sa(dp4412
g301
g302
(g306
S'\x9a\x95b_\xbf\xa4 @'
p4413
tp4414
Rp4415
sg312
F55.0
sg316
g302
(g306
S')\xed\r\xbe0\xc91@'
p4416
tp4417
Rp4418
sg320
F1.45
sa(dp4419
g301
g302
(g306
S' R\xd8\x19\xb7\xd6 @'
p4420
tp4421
Rp4422
sg312
F57.45
sg316
g302
(g306
S'\xd4\xbc\xe3\x14\x1d\xd91@'
p4423
tp4424
Rp4425
sg320
F1.95
sa(dp4426
g301
g302
(g306
S'tyS.:1 @'
p4427
tp4428
Rp4429
sg312
F56.55
sg316
g302
(g306
S'\xa6\nF%u\xc21@'
p4430
tp4431
Rp4432
sg320
F2.1
sa(dp4433
g301
g302
(g306
S'9.[\x17`\x83 @'
p4434
tp4435
Rp4436
sg312
F59.7
sg316
g302
(g306
S'\xaei\xdeq\x8a\xce1@'
p4437
tp4438
Rp4439
sg320
F1.35
sa(dp4440
g301
g302
(g306
S"'\x1d\xb4\nz\xfd @"
p4441
tp4442
Rp4443
sg312
F57.8
sg316
g302
(g306
S'\x16\xfb\xcb\xee\xc9\xf31@'
p4444
tp4445
Rp4446
sg320
F2.75
sa(dp4447
g301
g302
(g306
S'\x81\xa8\xff\x0b\xc5\xd5 @'
p4448
tp4449
Rp4450
sg312
F58.6
sg316
g302
(g306
S'\xc5 \xb0rh\xe11@'
p4451
tp4452
Rp4453
sg320
F1.6
sa(dp4454
g301
g302
(g306
S'w{,0%\x04!@'
p4455
tp4456
Rp4457
sg312
F57.9
sg316
g302
(g306
S'V0*\xa9\x13\xf01@'
p4458
tp4459
Rp4460
sg320
F1.85
sa(dp4461
g301
g302
(g306
S'd\x1d\xb3g\xa7f!@'
p4462
tp4463
Rp4464
sg312
F57.6
sg316
g302
(g306
S'2\x99*\x18\x95\x042@'
p4465
tp4466
Rp4467
sg320
F2.0
sa(dp4468
g301
g302
(g306
S'\x8c\\\xe8\xcc\x16Z!@'
p4469
tp4470
Rp4471
sg312
F58.15
sg316
g302
(g306
S'\n\xd7\xa3p=\n2@'
p4472
tp4473
Rp4474
sg320
F2.05
sa(dp4475
g301
g302
(g306
S'\xed\xb1\xa5\x05\xc6%!@'
p4476
tp4477
Rp4478
sg312
F59.15
sg316
g302
(g306
S'n\x12\x83\xc0\xca\xf11@'
p4479
tp4480
Rp4481
sg320
F2.1
sa(dp4482
g301
g302
(g306
S'\xa1\xdc[\x9f\xcfA!@'
p4483
tp4484
Rp4485
sg312
F60.85
sg316
g302
(g306
S'\xaa\xcf\xd5V\xec\x0f2@'
p4486
tp4487
Rp4488
sg320
F2.1
sa(dp4489
g301
g302
(g306
S'\xceC\xca\xa7\xc6\xf5 @'
p4490
tp4491
Rp4492
sg312
F59.05
sg316
g302
(g306
S'\xbf[ A\xf1\xe31@'
p4493
tp4494
Rp4495
sg320
F2.35
sa(dp4496
g301
g302
(g306
S'\xcanWY\xb8\xec @'
p4497
tp4498
Rp4499
sg312
F59.4
sg316
g302
(g306
S'\xbdt\x93\x18\x04\xf61@'
p4500
tp4501
Rp4502
sg320
F2.55
sa(dp4503
g301
g302
(g306
S'\xf6\xd2\x0c\x17\xca\x13!@'
p4504
tp4505
Rp4506
sg312
F59.45
sg316
g302
(g306
S'k\xbct\x93\x18\x042@'
p4507
tp4508
Rp4509
sg320
F1.95
sa(dp4510
g301
g302
(g306
S'j\x83\x8d:\x8b/!@'
p4511
tp4512
Rp4513
sg312
F59.8
sg316
g302
(g306
S'Ob\x10X9\xf41@'
p4514
tp4515
Rp4516
sg320
F1.6
sa(dp4517
g301
g302
(g306
S'\xe7\xb8"\xa1\xb5(!@'
p4518
tp4519
Rp4520
sg312
F59.7
sg316
g302
(g306
S'\xc2\xf5(\\\x8f\xe21@'
p4521
tp4522
Rp4523
sg320
F2.05
sa(dp4524
g301
g302
(g306
S'\xad\xa9u\xaeA\x86!@'
p4525
tp4526
Rp4527
sg312
F60.3
sg316
g302
(g306
S'\x18&S\x05\xa3\x122@'
p4528
tp4529
Rp4530
sg320
F1.75
sa(dp4531
g301
g302
(g306
S'8\r\x84`\x8d!!@'
p4532
tp4533
Rp4534
sg312
F57.3
sg316
g302
(g306
S'\xe26\x1a\xc0[ 2@'
p4535
tp4536
Rp4537
sg320
F1.95
sa(dp4538
g301
g302
(g306
S'\x1c5I\x91\x83$!@'
p4539
tp4540
Rp4541
sg312
F57.9
sg316
g302
(g306
S'\xeaQ\xb8\x1e\x85+2@'
p4542
tp4543
Rp4544
sg320
F2.05
sa(dp4545
g301
g302
(g306
S'\x11\xec$_\xf4\xc2!@'
p4546
tp4547
Rp4548
sg312
F61.35
sg316
g302
(g306
S'S\x05\xa3\x92:12@'
p4549
tp4550
Rp4551
sg320
F1.9
sa(dp4552
g301
g302
(g306
S'C\xf7\xfeu\xd7\xec!@'
p4553
tp4554
Rp4555
sg312
F60.3
sg316
g302
(g306
S'q=\n\xd7\xa3@2@'
p4556
tp4557
Rp4558
sg320
F2.5
sa(dp4559
g301
g302
(g306
S'\xb9\xd0\xd4\x18\xca\x1e"@'
p4560
tp4561
Rp4562
sg312
F61.5
sg316
g302
(g306
S'\x02+\x87\x16\xd9N2@'
p4563
tp4564
Rp4565
sg320
F2.0
sa(dp4566
g301
g302
(g306
S'N\x86\xb5C\x8d\xe1!@'
p4567
tp4568
Rp4569
sg312
F60.4
sg316
g302
(g306
S'B\x82\xe2\xc7\x98;2@'
p4570
tp4571
Rp4572
sg320
F2.1
sa(dp4573
g301
g302
(g306
S'W\xab\xe6d\x8a\xdc!@'
p4574
tp4575
Rp4576
sg312
F63.9
sg316
g302
(g306
S'\xf81\xe6\xae%$2@'
p4577
tp4578
Rp4579
sg320
F1.95
sa(dp4580
g301
g302
(g306
S'J&\x04Q~\xb2!@'
p4581
tp4582
Rp4583
sg312
F60.7
sg316
g302
(g306
S'\xd6\th"l\x182@'
p4584
tp4585
Rp4586
sg320
F1.75
sa(dp4587
g301
g302
(g306
S'\xc7\x1e\xbbMl,"@'
p4588
tp4589
Rp4590
sg312
F60.35
sg316
g302
(g306
S'b\xeeZB>H2@'
p4591
tp4592
Rp4593
sg320
F2.35
sa(dp4594
g301
g302
(g306
S'\xcd`\xb1A\t~!@'
p4595
tp4596
Rp4597
sg312
F61.25
sg316
g302
(g306
S'\xc5\xb1.n\xa3\x112@'
p4598
tp4599
Rp4600
sg320
F1.65
sa(dp4601
g301
g302
(g306
S'\x9b\xe2\x94\xf7\x990"@'
p4602
tp4603
Rp4604
sg312
F63.1
sg316
g302
(g306
S'\x9e\x80&\xc2\x86W2@'
p4605
tp4606
Rp4607
sg320
F1.8
sa(dp4608
g301
g302
(g306
S'#\xb6"\x8cDr"@'
p4609
tp4610
Rp4611
sg312
F63.6
sg316
g302
(g306
S'Y\xa85\xcd;n2@'
p4612
tp4613
Rp4614
sg320
F2.6
sa(dp4615
g301
g302
(g306
S'RR9\xdf9\x0e"@'
p4616
tp4617
Rp4618
sg312
F61.85
sg316
g302
(g306
S'\xa4p=\n\xd732@'
p4619
tp4620
Rp4621
sg320
F1.85
sa(dp4622
g301
g302
(g306
S'\x11O\xf6\xa1\rp"@'
p4623
tp4624
Rp4625
sg312
F61.7
sg316
g302
(g306
S'\x0bF%u\x02j2@'
p4626
tp4627
Rp4628
sg320
F2.0
sa(dp4629
g301
g302
(g306
S'\xb2\xbf\xfd\xf3\xb8,#@'
p4630
tp4631
Rp4632
sg312
F64.5
sg316
g302
(g306
S'\x80H\xbf}\x1d\x982@'
p4633
tp4634
Rp4635
sg320
F2.05
sa(dp4636
g301
g302
(g306
S'\xa3+\xa9\x91+\x9f#@'
p4637
tp4638
Rp4639
sg312
F67.45
sg316
g302
(g306
S'\x92\x87\x85Z\xd3\xbc2@'
p4640
tp4641
Rp4642
sg320
F1.85
sa(dp4643
g301
g302
(g306
S'\x7fgk\x93\x0f\xcc#@'
p4644
tp4645
Rp4646
sg312
F66.7
sg316
g302
(g306
S'\xcav\xbe\x9f\x1a\xdf2@'
p4647
tp4648
Rp4649
sg320
F2.25
sa(dp4650
g301
g302
(g306
S' \xcc\x03\x88Q\x12$@'
p4651
tp4652
Rp4653
sg312
F71.45
sg316
g302
(g306
S'\x9d\x11\xa5\xbd\xc1\xc72@'
p4654
tp4655
Rp4656
sg320
F1.8
sa(dp4657
g301
g302
(g306
S'\x14\x15x\xaf\xeb\xed#@'
p4658
tp4659
Rp4660
sg312
F69.25
sg316
g302
(g306
S'\xa5\nF%u\xd22@'
p4661
tp4662
Rp4663
sg320
F1.8
sa(dp4664
g301
g302
(g306
S'N\xc8\x8b\xe2\x13\x0e$@'
p4665
tp4666
Rp4667
sg312
F69.25
sg316
g302
(g306
S'\xd9\xce\xf7S\xe3\xc52@'
p4668
tp4669
Rp4670
sg320
F1.8
sa(dp4671
g301
g302
(g306
S'LV\x80\xf4eZ$@'
p4672
tp4673
Rp4674
sg312
F71.5
sg316
g302
(g306
S'\xed\x9e<,\xd4\xda2@'
p4675
tp4676
Rp4677
sg320
F1.85
sa(dp4678
g301
g302
(g306
S't\x82*\xb3\x8b\xfd#@'
p4679
tp4680
Rp4681
sg312
F69.35
sg316
g302
(g306
S'\x9f\x89\xb0\xe1\xe9\xe52@'
p4682
tp4683
Rp4684
sg320
F2.75
sa(dp4685
g301
g302
(g306
S'\xfe\xcd%f\xe8\x03$@'
p4686
tp4687
Rp4688
sg312
F68.7
sg316
g302
(g306
S'\x126<\xbdR\xd62@'
p4689
tp4690
Rp4691
sg320
F1.9
sa(dp4692
g301
g302
(g306
S'NG&\xdc\xf1\x0c%@'
p4693
tp4694
Rp4695
sg312
F69.45
sg316
g302
(g306
S"\xd6\xa3p=\n'3@"
p4696
tp4697
Rp4698
sg320
F2.05
sa(dp4699
g301
g302
(g306
S'\xf7n.Ri\xaa$@'
p4700
tp4701
Rp4702
sg312
F70.95
sg316
g302
(g306
S'\x1d\xc9\xe5?\xa4\xef2@'
p4703
tp4704
Rp4705
sg320
F1.9
sa(dp4706
g301
g302
(g306
S'\xf6m/>\xcfS$@'
p4707
tp4708
Rp4709
sg312
F71.5
sg316
g302
(g306
S'K7\x89A`\xf52@'
p4710
tp4711
Rp4712
sg320
F2.1
sa(dp4713
g301
g302
(g306
S'$\x86\xf3-\xb1P%@'
p4714
tp4715
Rp4716
sg312
F73.7
sg316
g302
(g306
S'\th"lx:3@'
p4717
tp4718
Rp4719
sg320
F2.45
sa(dp4720
g301
g302
(g306
S'l\xc1*\xa2\xba\x89$@'
p4721
tp4722
Rp4723
sg312
F71.65
sg316
g302
(g306
S'\xde\x02\t\x8a\x1f\xf32@'
p4724
tp4725
Rp4726
sg320
F2.05
sa(dp4727
g301
g302
(g306
S'\xb6\xb4\xa2\x08\xd7\xc4$@'
p4728
tp4729
Rp4730
sg312
F69.6
sg316
g302
(g306
S'\xdb\xf9~j\xbc\x043@'
p4731
tp4732
Rp4733
sg320
F1.8
sa(dp4734
g301
g302
(g306
S'\x1a\xdf\xb1\xf8\xa0\xe2$@'
p4735
tp4736
Rp4737
sg312
F70.85
sg316
g302
(g306
S'\x03x\x0b$(\x0e3@'
p4738
tp4739
Rp4740
sg320
F1.8
sa(dp4741
g301
g302
(g306
S'\xdb@8\x11\x15\n$@'
p4742
tp4743
Rp4744
sg312
F67.0
sg316
g302
(g306
S'\x1aQ\xda\x1b|\xd12@'
p4745
tp4746
Rp4747
sg320
F2.0
sa(dp4748
g301
g302
(g306
S'\xa4\xc2\xef\xfcuA$@'
p4749
tp4750
Rp4751
sg312
F68.6
sg316
g302
(g306
S'\x10\xc7\xba\xb8\x8d\xe62@'
p4752
tp4753
Rp4754
sg320
F1.7
sa(dp4755
g301
g302
(g306
S'\xd7\t\x18\xeb\\\x94$@'
p4756
tp4757
Rp4758
sg312
F69.5
sg316
g302
(g306
S'M\xf3\x8eSt\xe42@'
p4759
tp4760
Rp4761
sg320
F2.1
sa(dp4762
g301
g302
(g306
S'\x84$\xfe\xde\xae#%@'
p4763
tp4764
Rp4765
sg312
F70.6
sg316
g302
(g306
S'7\x89A`\xe5\x003@'
p4766
tp4767
Rp4768
sg320
F2.15
sa(dp4769
g301
g302
(g306
S'\xe5\xb7\x99|\xdf\xd8$@'
p4770
tp4771
Rp4772
sg312
F68.75
sg316
g302
(g306
S'>\xe8\xd9\xac\xfa\xec2@'
p4773
tp4774
Rp4775
sg320
F2.1
sa(dp4776
g301
g302
(g306
S'\xf0\x1c_^\xaeO$@'
p4777
tp4778
Rp4779
sg312
F70.2
sg316
g302
(g306
S'23333\xd32@'
p4780
tp4781
Rp4782
sg320
F2.1
sa(dp4783
g301
g302
(g306
S'JHa\x0e\xe6\x96$@'
p4784
tp4785
Rp4786
sg312
F69.65
sg316
g302
(g306
S'\x98n\x12\x83\xc0\xea2@'
p4787
tp4788
Rp4789
sg320
F1.8
sa(dp4790
g301
g302
(g306
S'*\xd2*\x1d%+$@'
p4791
tp4792
Rp4793
sg312
F68.8
sg316
g302
(g306
S'\x15\x1d\xc9\xe5?\xb42@'
p4794
tp4795
Rp4796
sg320
F2.4
sa(dp4797
g301
g302
(g306
S'\x8a\x14Z\x8dRH$@'
p4798
tp4799
Rp4800
sg312
F72.35
sg316
g302
(g306
S'\xd6x\xe9&1\xb82@'
p4801
tp4802
Rp4803
sg320
F1.7
sa(dp4804
g301
g302
(g306
S'\x98\x0e\x99?\x8bp$@'
p4805
tp4806
Rp4807
sg312
F69.65
sg316
g302
(g306
S'\xc2\x86\xa7W\xca\xc22@'
p4808
tp4809
Rp4810
sg320
F2.25
sa(dp4811
g301
g302
(g306
S'\x15\xf5Z\x1b$\x1e$@'
p4812
tp4813
Rp4814
sg312
F71.0
sg316
g302
(g306
S'f\xd5\xe7j+v2@'
p4815
tp4816
Rp4817
sg320
F2.05
sa(dp4818
g301
g302
(g306
S'\x13\xed@S\xd53$@'
p4819
tp4820
Rp4821
sg312
F68.05
sg316
g302
(g306
S'~\xae\xb6b\x7f\x992@'
p4822
tp4823
Rp4824
sg320
F1.95
sa(dp4825
g301
g302
(g306
S'\xb40\xd0\x8bf\xbb$@'
p4826
tp4827
Rp4828
sg312
F70.6
sg316
g302
(g306
S'@\x82\xe2\xc7\x98\xcb2@'
p4829
tp4830
Rp4831
sg320
F2.15
sa(dp4832
g301
g302
(g306
S'\xf4\x19V\x1e\x95\x1d%@'
p4833
tp4834
Rp4835
sg312
F73.1
sg316
g302
(g306
S'\xc9v\xbe\x9f\x1a\xef2@'
p4836
tp4837
Rp4838
sg320
F2.2
sa(dp4839
g301
g302
(g306
S'U\xea\xf8\x98\xe6\x00%@'
p4840
tp4841
Rp4842
sg312
F70.7
sg316
g302
(g306
S'\xca\x10\xc7\xba\xb8\xdd2@'
p4843
tp4844
Rp4845
sg320
F1.95
sa(dp4846
g301
g302
(g306
S'\xab\x06\xd0#\x84f%@'
p4847
tp4848
Rp4849
sg312
F74.1
sg316
g302
(g306
S':\x01M\x84\r\xff2@'
p4850
tp4851
Rp4852
sg320
F1.9
sa(dp4853
g301
g302
(g306
S'\x9f\xac\njHY%@'
p4854
tp4855
Rp4856
sg312
F73.9
sg316
g302
(g306
S'\xc5m4\x80\xb7\x103@'
p4857
tp4858
Rp4859
sg320
F2.0
sa(dp4860
g301
g302
(g306
S'\xa2V\xee\x1d\x05\x04%@'
p4861
tp4862
Rp4863
sg312
F71.15
sg316
g302
(g306
S'Z\xca2\xc4\xb1\xfe2@'
p4864
tp4865
Rp4866
sg320
F1.5
sa(dp4867
g301
g302
(g306
S'\xae\x97\x16l\xe0\x01%@'
p4868
tp4869
Rp4870
sg312
F73.55
sg316
g302
(g306
S'\xaa\xf1\xd2Mb 3@'
p4871
tp4872
Rp4873
sg320
F1.65
sa(dp4874
g301
g302
(g306
S'\x06\x14\x17\xb1\x8c\xab%@'
p4875
tp4876
Rp4877
sg312
F75.25
sg316
g302
(g306
S'\xd7\x81sF\x9463@'
p4878
tp4879
Rp4880
sg320
F2.05
sa(dp4881
g301
g302
(g306
S'\xab\x93(61\x83%@'
p4882
tp4883
Rp4884
sg312
F71.75
sg316
g302
(g306
S'\n\xb5\xa6y\xc7)3@'
p4885
tp4886
Rp4887
sg320
F2.2
sa(dp4888
g301
g302
(g306
S'\xf3-<\xc5\xb6P%@'
p4889
tp4890
Rp4891
sg312
F73.05
sg316
g302
(g306
S'e\x88c]\xdc&3@'
p4892
tp4893
Rp4894
sg320
F2.0
sa(dp4895
g301
g302
(g306
S'J\x0f\xacf\xf5D&@'
p4896
tp4897
Rp4898
sg312
F74.85
sg316
g302
(g306
S'\x1a\xe2X\x17\xb7a3@'
p4899
tp4900
Rp4901
sg320
F1.85
sa(dp4902
g301
g302
(g306
S'\xf2?\xe7\xd9qw&@'
p4903
tp4904
Rp4905
sg312
F75.0
sg316
g302
(g306
S'\xecQ\xb8\x1e\x85{3@'
p4906
tp4907
Rp4908
sg320
F1.9
sa(dp4909
g301
g302
(g306
S'KAN4\xed\x1f&@'
p4910
tp4911
Rp4912
sg312
F72.2
sg316
g302
(g306
S"\xbb'\x0f\x0b\xb5v3@"
p4913
tp4914
Rp4915
sg320
F1.95
sa(dp4916
g301
g302
(g306
S'\x1b\n\xfc7V\x18&@'
p4917
tp4918
Rp4919
sg312
F73.5
sg316
g302
(g306
S'\x7f\xd9=yXH3@'
p4920
tp4921
Rp4922
sg320
F2.0
sa(dp4923
g301
g302
(g306
S'\xdd\xac\xd8\r\xab\x0e&@'
p4924
tp4925
Rp4926
sg312
F73.15
sg316
g302
(g306
S'\x98\xdd\x93\x87\x85:3@'
p4927
tp4928
Rp4929
sg320
F2.45
sa(dp4930
g301
g302
(g306
S'j\xe7\xfc\xabm\xbe%@'
p4931
tp4932
Rp4933
sg312
F73.9
sg316
g302
(g306
S'&\x06\x81\x95C;3@'
p4934
tp4935
Rp4936
sg320
F2.25
sa(dp4937
g301
g302
(g306
S'\xa4\xcb\xd5\x06\x10~%@'
p4938
tp4939
Rp4940
sg312
F74.45
sg316
g302
(g306
S'*:\x92\xcb\x7f\x083@'
p4941
tp4942
Rp4943
sg320
F2.4
sa(dp4944
g301
g302
(g306
S"\x83\x88\xaf'o\xc5%@"
p4945
tp4946
Rp4947
sg312
F72.85
sg316
g302
(g306
S'\x97n\x12\x83\xc0*3@'
p4948
tp4949
Rp4950
sg320
F1.75
sa(dp4951
g301
g302
(g306
S'\xb28\x0flO8&@'
p4952
tp4953
Rp4954
sg312
F74.5
sg316
g302
(g306
S'\n\x8a\x1fc\xee:3@'
p4955
tp4956
Rp4957
sg320
F2.0
sa(dp4958
g301
g302
(g306
S'\x92\xc1\x8a\x1d\xaey&@'
p4959
tp4960
Rp4961
sg312
F75.05
sg316
g302
(g306
S'\xe2\x14\x1d\xc9\xe5O3@'
p4962
tp4963
Rp4964
sg320
F2.15
sa(dp4965
g301
g302
(g306
S'\x9dF\xacR\x07s&@'
p4966
tp4967
Rp4968
sg312
F77.85
sg316
g302
(g306
S'"lxz\xa5|3@'
p4969
tp4970
Rp4971
sg320
F2.45
sa(dp4972
g301
g302
(g306
S'b8\xd5\xee.n&@'
p4973
tp4974
Rp4975
sg312
F74.8
sg316
g302
(g306
S'\xaa\xf1\xd2Mb\x803@'
p4976
tp4977
Rp4978
sg320
F2.75
sa(dp4979
g301
g302
(g306
S'K\x8e\xceX\xc6\x1f&@'
p4980
tp4981
Rp4982
sg312
F76.85
sg316
g302
(g306
S'i\xdeq\x8a\x8eT3@'
p4983
tp4984
Rp4985
sg320
F1.6
sa(dp4986
g301
g302
(g306
S'\x90\xb4_\xbc\xc9\xa1&@'
p4987
tp4988
Rp4989
sg312
F77.15
sg316
g302
(g306
S'\x95\xd4\th"|3@'
p4990
tp4991
Rp4992
sg320
F1.5
sa(dp4993
g301
g302
(g306
S'\xe2\x0e\x0f\t\x82\x80&@'
p4994
tp4995
Rp4996
sg312
F76.25
sg316
g302
(g306
S'z\xc7):\x92\x8b3@'
p4997
tp4998
Rp4999
sg320
F1.75
sa(dp5000
g301
g302
(g306
S'\xd6\xb6\xb9\xcbt!&@'
p5001
tp5002
Rp5003
sg312
F76.65
sg316
g302
(g306
S':\x92\xcb\x7fH_3@'
p5004
tp5005
Rp5006
sg320
F1.7
sa(dp5007
g301
g302
(g306
S'n\xa3#{\xb8@&@'
p5008
tp5009
Rp5010
sg312
F76.4
sg316
g302
(g306
S'\xd5\th"lh3@'
p5011
tp5012
Rp5013
sg320
F1.55
sa(dp5014
g301
g302
(g306
S':F\xbc\x04\x95-&@'
p5015
tp5016
Rp5017
sg312
F76.1
sg316
g302
(g306
S'\xf2\xb0Pk\x9ag3@'
p5018
tp5019
Rp5020
sg320
F2.1
sa(dp5021
g301
g302
(g306
S't%dS\xc3)&@'
p5022
tp5023
Rp5024
sg312
F76.4
sg316
g302
(g306
S'\x8c(\xed\r\xbe`3@'
p5025
tp5026
Rp5027
sg320
F1.45
sa(dp5028
g301
g302
(g306
S"\xdd\xe6\xde\xa7\xac['@"
p5029
tp5030
Rp5031
sg312
F78.45
sg316
g302
(g306
S'\x80\x95C\x8bl\xa73@'
p5032
tp5033
Rp5034
sg320
F1.75
sa(dp5035
g301
g302
(g306
S"\x004P(\xe2\x15'@"
p5036
tp5037
Rp5038
sg312
F80.4
sg316
g302
(g306
S'#\x8euq\x1b\xbd3@'
p5039
tp5040
Rp5041
sg320
F2.15
sa(dp5042
g301
g302
(g306
S'MW\x01\xa7\x12\xca&@'
p5043
tp5044
Rp5045
sg312
F80.7
sg316
g302
(g306
S'\xb7\xd1\x00\xde\x02\x993@'
p5046
tp5047
Rp5048
sg320
F2.15
sa(dp5049
g301
g302
(g306
S'<c\xe1\xb1\x83\x9b&@'
p5050
tp5051
Rp5052
sg312
F77.7
sg316
g302
(g306
S';\xdfO\x8d\x97\x8e3@'
p5053
tp5054
Rp5055
sg320
F2.05
sa(dp5056
g301
g302
(g306
S'g\xed\x05.\xf0\xf9%@'
p5057
tp5058
Rp5059
sg312
F74.65
sg316
g302
(g306
S'\xee8EGri3@'
p5060
tp5061
Rp5062
sg320
F2.25
sa(dp5063
g301
g302
(g306
S'\x0f\xc0\x06\xda\xcfK&@'
p5064
tp5065
Rp5066
sg312
F77.55
sg316
g302
(g306
S'~\x1d8gD\x893@'
p5067
tp5068
Rp5069
sg320
F2.15
sa(dp5070
g301
g302
(g306
S'\xbe\xe66\x842\x08&@'
p5071
tp5072
Rp5073
sg312
F74.0
sg316
g302
(g306
S'?5^\xbaI\x8c3@'
p5074
tp5075
Rp5076
sg320
F1.9
sa(dp5077
g301
g302
(g306
S'.`qB\xf5E&@'
p5078
tp5079
Rp5080
sg312
F74.85
sg316
g302
(g306
S'\xca\xe5?\xa4\xdfn3@'
p5081
tp5082
Rp5083
sg320
F1.7
sa(dp5084
g301
g302
(g306
S'\xc65\xf7z\xfb\xea%@'
p5085
tp5086
Rp5087
sg312
F74.9
sg316
g302
(g306
S'\xa7y\xc7):r3@'
p5088
tp5089
Rp5090
sg320
F1.8
sa(dp5091
g301
g302
(g306
S'\xf4i\x98\x99!!&@'
p5092
tp5093
Rp5094
sg312
F74.85
sg316
g302
(g306
S'\x87\x85Z\xd3\xbcs3@'
p5095
tp5096
Rp5097
sg320
F2.5
sa(dp5098
g301
g302
(g306
S'\xa9\xcb\x0f*\xd7\xcf%@'
p5099
tp5100
Rp5101
sg312
F71.6
sg316
g302
(g306
S'\x8d\xb9k\t\xf9P3@'
p5102
tp5103
Rp5104
sg320
F1.4
sa(dp5105
g301
g302
(g306
S'E\x1fv\xe0\x0fF%@'
p5106
tp5107
Rp5108
sg312
F71.85
sg316
g302
(g306
S'6\xab>W[A3@'
p5109
tp5110
Rp5111
sg320
F1.95
sa(dp5112
g301
g302
(g306
S'>\xa2\x05_\xa4m%@'
p5113
tp5114
Rp5115
sg312
F72.25
sg316
g302
(g306
S'1\x99*\x18\x95D3@'
p5116
tp5117
Rp5118
sg320
F1.85
sa(dp5119
g301
g302
(g306
S'\x98!*\xdea\xe6%@'
p5120
tp5121
Rp5122
sg312
F73.6
sg316
g302
(g306
S'\xf2\xd2Mb\x10X3@'
p5123
tp5124
Rp5125
sg320
F1.95
sa(dp5126
g301
g302
(g306
S'\xd7j\xec\xa5\x1e\x17&@'
p5127
tp5128
Rp5129
sg312
F78.1
sg316
g302
(g306
S'\x1b\x9e^)\xcb\x803@'
p5130
tp5131
Rp5132
sg320
F1.85
sa(dp5133
g301
g302
(g306
S'\xfew}!\xe18&@'
p5134
tp5135
Rp5136
sg312
F72.7
sg316
g302
(g306
S'`\xdcF\x03xk3@'
p5137
tp5138
Rp5139
sg320
F1.95
sa(dp5140
g301
g302
(g306
S'rc\xe3Y\xe8\x00&@'
p5141
tp5142
Rp5143
sg312
F74.4
sg316
g302
(g306
S'\x0c\x02+\x87\x16I3@'
p5144
tp5145
Rp5146
sg320
F2.15
sa(dp5147
g301
g302
(g306
S'\xe8*\x91{\xe1\xd4%@'
p5148
tp5149
Rp5150
sg312
F73.4
sg316
g302
(g306
S'\t\x1b\x9e^)[3@'
p5151
tp5152
Rp5153
sg320
F2.2
sa(dp5154
g301
g302
(g306
S'V\x8b\xbc}\x03\xb6%@'
p5155
tp5156
Rp5157
sg312
F74.15
sg316
g302
(g306
S'\x0e\xbe0\x99*H3@'
p5158
tp5159
Rp5160
sg320
F1.95
sa(dp5161
g301
g302
(g306
S'|~o\x180\xac%@'
p5162
tp5163
Rp5164
sg312
F73.25
sg316
g302
(g306
S'\t\x8a\x1fc\xeeJ3@'
p5165
tp5166
Rp5167
sg320
F1.75
sa(dp5168
g301
g302
(g306
S'C\xff\x19C\x87\xd6%@'
p5169
tp5170
Rp5171
sg312
F75.0
sg316
g302
(g306
S'JY\x868\xd6E3@'
p5172
tp5173
Rp5174
sg320
F2.55
sa(dp5175
g301
g302
(g306
S'*\x7f\xf8\xe1\xab\x00&@'
p5176
tp5177
Rp5178
sg312
F75.7
sg316
g302
(g306
S'L7\x89A`u3@'
p5179
tp5180
Rp5181
sg320
F2.25
sa(dp5182
g301
g302
(g306
S'\xa1?\xd8\xb1T\xc4%@'
p5183
tp5184
Rp5185
sg312
F74.1
sg316
g302
(g306
S'\xea\x044\x116\\3@'
p5186
tp5187
Rp5188
sg320
F2.15
sa(dp5189
g301
g302
(g306
S'1n\xba\x08\xc9\xdb%@'
p5190
tp5191
Rp5192
sg312
F76.25
sg316
g302
(g306
S'z\xe9&1\x08\\3@'
p5193
tp5194
Rp5195
sg320
F1.65
sa(dp5196
g301
g302
(g306
S'\x9d\xceN\xe3\xa26&@'
p5197
tp5198
Rp5199
sg312
F77.65
sg316
g302
(g306
S'c\xcc]K\xc8g3@'
p5200
tp5201
Rp5202
sg320
F1.6
sa(dp5203
g301
g302
(g306
S'\x10\xb4WL20&@'
p5204
tp5205
Rp5206
sg312
F79.0
sg316
g302
(g306
S'\x1f\xf4lV}~3@'
p5207
tp5208
Rp5209
sg320
F2.2
sa(dp5210
g301
g302
(g306
S'\xc9\x9e\x99N\xfe\xaa&@'
p5211
tp5212
Rp5213
sg312
F79.15
sg316
g302
(g306
S'\x9e\xab\xad\xd8_\xb63@'
p5214
tp5215
Rp5216
sg320
F2.45
sa(dp5217
g301
g302
(g306
S'\xbcW\x82\xa4\xea\xaa&@'
p5218
tp5219
Rp5220
sg312
F79.3
sg316
g302
(g306
S'\x84\xebQ\xb8\x1e\xb53@'
p5221
tp5222
Rp5223
sg320
F2.05
sa(dp5224
g301
g302
(g306
S'\xd9\xffCf\xa1\xb4&@'
p5225
tp5226
Rp5227
sg312
F78.35
sg316
g302
(g306
S'yX\xa85\xcd\xbb3@'
p5228
tp5229
Rp5230
sg320
F1.55
sa(dp5231
g301
g302
(g306
S'e\\\xe7\xb9\xcf\x96&@'
p5232
tp5233
Rp5234
sg312
F79.55
sg316
g302
(g306
S'\xe4a\xa1\xd64\xdf3@'
p5235
tp5236
Rp5237
sg320
F1.8
sa(dp5238
g301
g302
(g306
S'\xde \xc8?\xb1E&@'
p5239
tp5240
Rp5241
sg312
F77.6
sg316
g302
(g306
S'\x0c\x93\xa9\x82Q\xa93@'
p5242
tp5243
Rp5244
sg320
F1.7
sa(dp5245
g301
g302
(g306
S'\xf5\xf3\xc2\xf4"\x91&@'
p5246
tp5247
Rp5248
sg312
F77.6
sg316
g302
(g306
S'\n\xd7\xa3p=\xba3@'
p5249
tp5250
Rp5251
sg320
F1.6
sa(dp5252
g301
g302
(g306
S'sz\x82\xe6\x82\x8d&@'
p5253
tp5254
Rp5255
sg312
F77.3
sg316
g302
(g306
S'm\t\xf9\xa0g\xc33@'
p5256
tp5257
Rp5258
sg320
F1.95
sa(dp5259
g301
g302
(g306
S'\xa2\xc1-Y\xab\x1f&@'
p5260
tp5261
Rp5262
sg312
F79.0
sg316
g302
(g306
S'\xdb\xf9~j\xbc\xa43@'
p5263
tp5264
Rp5265
sg320
F1.8
sa(dp5266
g301
g302
(g306
S's\x99\x0c%\xf7+&@'
p5267
tp5268
Rp5269
sg312
F77.55
sg316
g302
(g306
S'\xdch\x00o\x81\xc43@'
p5270
tp5271
Rp5272
sg320
F1.65
sa(dp5273
g301
g302
(g306
S'\n4u\xbd\xc3E&@'
p5274
tp5275
Rp5276
sg312
F78.15
sg316
g302
(g306
S'\xc9v\xbe\x9f\x1a\xaf3@'
p5277
tp5278
Rp5279
sg320
F2.2
sa(dp5280
g301
g302
(g306
S'\xdf3\xbb\xff\xc9\xa9&@'
p5281
tp5282
Rp5283
sg312
F75.85
sg316
g302
(g306
S'\n\xd7\xa3p=\xca3@'
p5284
tp5285
Rp5286
sg320
F1.9
sa(dp5287
g301
g302
(g306
S't\xd0\xc0g\x12H&@'
p5288
tp5289
Rp5290
sg312
F75.5
sg316
g302
(g306
S'\xb5\x84|\xd0\xb3\xa93@'
p5291
tp5292
Rp5293
sg320
F2.05
sa(dp5294
g301
g302
(g306
S'p"\x00\x94\xe4\x84&@'
p5295
tp5296
Rp5297
sg312
F76.2
sg316
g302
(g306
S'!\x1f\xf4lV\x9d3@'
p5298
tp5299
Rp5300
sg320
F2.15
sa(dp5301
g301
g302
(g306
S'\x92\xac\xccw\xb8\x89&@'
p5302
tp5303
Rp5304
sg312
F76.75
sg316
g302
(g306
S'\x81&\xc2\x86\xa7\xa73@'
p5305
tp5306
Rp5307
sg320
F1.85
sa(dp5308
g301
g302
(g306
S'\xb7\xca\xfa\xf5\xeca&@'
p5309
tp5310
Rp5311
sg312
F76.2
sg316
g302
(g306
S'\x82\xc0\xca\xa1E\x963@'
p5312
tp5313
Rp5314
sg320
F2.35
sa(dp5315
g301
g302
(g306
S'f\xde#{\x95\xd7%@'
p5316
tp5317
Rp5318
sg312
F76.7
sg316
g302
(g306
S'\xa1g\xb3\xeasu3@'
p5319
tp5320
Rp5321
sg320
F1.65
sa(dp5322
g301
g302
(g306
S'\xa8\r\x0f\xfb\xbf\xf7%@'
p5323
tp5324
Rp5325
sg312
F77.4
sg316
g302
(g306
S'i\xdeq\x8a\x8e\x843@'
p5326
tp5327
Rp5328
sg320
F2.4
sa(dp5329
g301
g302
(g306
S'r\x94^>\x9aN&@'
p5330
tp5331
Rp5332
sg312
F77.6
sg316
g302
(g306
S'\xda_vO\x1e\xb63@'
p5333
tp5334
Rp5335
sg320
F1.65
sa(dp5336
g301
g302
(g306
S'\xe9uWg\xd4\x86&@'
p5337
tp5338
Rp5339
sg312
F79.05
sg316
g302
(g306
S'\xbe\xec\x9e<,\xa43@'
p5340
tp5341
Rp5342
sg320
F1.8
sa(dp5343
g301
g302
(g306
S'\x05\xb5U\xb1L\xe9%@'
p5344
tp5345
Rp5346
sg312
F76.2
sg316
g302
(g306
S'@\xa4\xdf\xbe\x0e\x9c3@'
p5347
tp5348
Rp5349
sg320
F1.45
sa(dp5350
g301
g302
(g306
S'\xe87eW\xbd\xf8%@'
p5351
tp5352
Rp5353
sg312
F75.1
sg316
g302
(g306
S'\xf7\x06_\x98L\x853@'
p5354
tp5355
Rp5356
sg320
F2.3
sa(dp5357
g301
g302
(g306
S'|\xe3\x1bsd\xf7%@'
p5358
tp5359
Rp5360
sg312
F74.55
sg316
g302
(g306
S';#J{\x83\x8f3@'
p5361
tp5362
Rp5363
sg320
F2.05
sa(dp5364
g301
g302
(g306
S'.\xf4\x85\x9d:i%@'
p5365
tp5366
Rp5367
sg312
F73.4
sg316
g302
(g306
S'\x0b\x93\xa9\x82Qi3@'
p5368
tp5369
Rp5370
sg320
F2.55
sa(dp5371
g301
g302
(g306
S'\xae\x92\x17\xb5\xf2\xc7%@'
p5372
tp5373
Rp5374
sg312
F74.75
sg316
g302
(g306
S'\x92\\\xfeC\xfa}3@'
p5375
tp5376
Rp5377
sg320
F1.85
sa(dp5378
g301
g302
(g306
S'\xf9\xc1\xb9\xc5Mq%@'
p5379
tp5380
Rp5381
sg312
F73.8
sg316
g302
(g306
S'\x1b/\xdd$\x06a3@'
p5382
tp5383
Rp5384
sg320
F1.9
sa(dp5385
g301
g302
(g306
S'\xe6\xbeqW U&@'
p5386
tp5387
Rp5388
sg312
F73.05
sg316
g302
(g306
S'\x00\x00\x00\x00\x00\xc03@'
p5389
tp5390
Rp5391
sg320
F1.9
sa(dp5392
g301
g302
(g306
S'\n\xbaML\xff\x07&@'
p5393
tp5394
Rp5395
sg312
F73.3
sg316
g302
(g306
S'q\xce\x88\xd2\xde\x803@'
p5396
tp5397
Rp5398
sg320
F1.9
sa(dp5399
g301
g302
(g306
S'O\x13\x06>A"&@'
p5400
tp5401
Rp5402
sg312
F75.2
sg316
g302
(g306
S'\xfb\xcb\xee\xc9\xc3\xa23@'
p5403
tp5404
Rp5405
sg320
F2.3
sa(dp5406
g301
g302
(g306
S'V\xf1\x06\xf9\xfbh&@'
p5407
tp5408
Rp5409
sg312
F76.0
sg316
g302
(g306
S']\xdcF\x03x\x9b3@'
p5410
tp5411
Rp5412
sg320
F2.15
sa(dp5413
g301
g302
(g306
S'\xb86bNy\xcf&@'
p5414
tp5415
Rp5416
sg312
F81.35
sg316
g302
(g306
S'\xad\x8b\xdbh\x00\xcf3@'
p5417
tp5418
Rp5419
sg320
F2.15
sa(dp5420
g301
g302
(g306
S'\x13\x9f\x9c\xa07\xf9%@'
p5421
tp5422
Rp5423
sg312
F73.6
sg316
g302
(g306
S'\xa5\xbd\xc1\x17&\xa33@'
p5424
tp5425
Rp5426
sg320
F2.35
sa(dp5427
g301
g302
(g306
S'\x8a\x9d\xb2\x08\xe2]&@'
p5428
tp5429
Rp5430
sg312
F75.4
sg316
g302
(g306
S'\xb2\x9d\xef\xa7\xc6\x9b3@'
p5431
tp5432
Rp5433
sg320
F2.2
sa(dp5434
g301
g302
(g306
S'(\xd4\xf4g\xda\xd4%@'
p5435
tp5436
Rp5437
sg312
F75.45
sg316
g302
(g306
S'\xbe\x9f\x1a/\xdd\x943@'
p5438
tp5439
Rp5440
sg320
F2.3
sa(dp5441
g301
g302
(g306
S'\x0c\xa8\x0c\xf5F\xf4%@'
p5442
tp5443
Rp5444
sg312
F76.05
sg316
g302
(g306
S'\x17\xd9\xce\xf7S\xa33@'
p5445
tp5446
Rp5447
sg320
F2.1
sa(dp5448
g301
g302
(g306
S'\xa8\xd3\x89HB\xf2%@'
p5449
tp5450
Rp5451
sg312
F74.35
sg316
g302
(g306
S'N\x84\rO\xaf\x943@'
p5452
tp5453
Rp5454
sg320
F1.85
sa(dp5455
g301
g302
(g306
S'\xa7\x07\xed\xa8S\xcb%@'
p5456
tp5457
Rp5458
sg312
F75.05
sg316
g302
(g306
S'\x9b\xc4 \xb0r\x883@'
p5459
tp5460
Rp5461
sg320
F2.1
sa(dp5462
g301
g302
(g306
S'n\x85\xb5d\xbb\x0b&@'
p5463
tp5464
Rp5465
sg312
F75.4
sg316
g302
(g306
S'\x06\x12\x14?\xc6\x8c3@'
p5466
tp5467
Rp5468
sg320
F2.4
sa(dp5469
g301
g302
(g306
S'y\xcaB~?\xf9%@'
p5470
tp5471
Rp5472
sg312
F75.35
sg316
g302
(g306
S'n\xc5\xfe\xb2{\x823@'
p5473
tp5474
Rp5475
sg320
F2.1
sa(dp5476
g301
g302
(g306
S'Kv\x05k\xcf\xd0%@'
p5477
tp5478
Rp5479
sg312
F76.1
sg316
g302
(g306
S'EGr\xf9\x0f\x993@'
p5480
tp5481
Rp5482
sg320
F1.75
sa(dp5483
g301
g302
(g306
S'\xa2=\xf8\x89cN&@'
p5484
tp5485
Rp5486
sg312
F78.7
sg316
g302
(g306
S"\xec/\xbb'\x0f\x9b3@"
p5487
tp5488
Rp5489
sg320
F2.05
sa(dp5490
g301
g302
(g306
S'U\xe3\xf9jd\x93&@'
p5491
tp5492
Rp5493
sg312
F82.0
sg316
g302
(g306
S'\x16\xb7\xd1\x00\xde\xb23@'
p5494
tp5495
Rp5496
sg320
F2.05
sa(dp5497
g301
g302
(g306
S'\xa1f\xe8\xc8\x00\xd4&@'
p5498
tp5499
Rp5500
sg312
F78.3
sg316
g302
(g306
S'>W[\xb1\xbf\xdc3@'
p5501
tp5502
Rp5503
sg320
F2.1
sa(dp5504
g301
g302
(g306
S"\xaaY\xd3\x00\xfbE'@"
p5505
tp5506
Rp5507
sg312
F80.3
sg316
g302
(g306
S'(~\x8c\xb9k\xf93@'
p5508
tp5509
Rp5510
sg320
F1.85
sa(dp5511
g301
g302
(g306
S"\xb2\xc5\xa5\x90\xb1\x07'@"
p5512
tp5513
Rp5514
sg312
F81.75
sg316
g302
(g306
S'?\xa4\xdf\xbe\x0e\xec3@'
p5515
tp5516
Rp5517
sg320
F1.95
sa(dp5518
g301
g302
(g306
S'\x06\\\xbc\xd5v\x90&@'
p5519
tp5520
Rp5521
sg312
F81.3
sg316
g302
(g306
S'\x0e\x0b\xb5\xa6y\xb73@'
p5522
tp5523
Rp5524
sg320
F2.35
sa(dp5525
g301
g302
(g306
S'\xf9^\xd1-\x15\xf9&@'
p5526
tp5527
Rp5528
sg312
F79.7
sg316
g302
(g306
S'\xaci\xdeq\x8a\xee3@'
p5529
tp5530
Rp5531
sg320
F2.3
sa(dp5532
g301
g302
(g306
S'3\xc3{\x016\xd0&@'
p5533
tp5534
Rp5535
sg312
F79.3
sg316
g302
(g306
S'f\x19\xe2X\x17\xd73@'
p5536
tp5537
Rp5538
sg320
F1.75
sa(dp5539
g301
g302
(g306
S'qp\xbfNl\xb1&@'
p5540
tp5541
Rp5542
sg312
F77.95
sg316
g302
(g306
S'o=\n\xd7\xa3\xe03@'
p5543
tp5544
Rp5545
sg320
F2.0
sa(dp5546
g301
g302
(g306
S'\xe6`lC\x13\xdc&@'
p5547
tp5548
Rp5549
sg312
F78.75
sg316
g302
(g306
S'\xfb\\m\xc5\xfe\x024@'
p5550
tp5551
Rp5552
sg320
F1.95
sa(dp5553
g301
g302
(g306
S'\xc5\x15\x18\x84\xc3\x88&@'
p5554
tp5555
Rp5556
sg312
F77.2
sg316
g302
(g306
S'k\xbct\x93\x18\xf43@'
p5557
tp5558
Rp5559
sg320
F1.75
sa(dp5560
g301
g302
(g306
S'j\xc1\xb8\xec\x7f\xe6%@'
p5561
tp5562
Rp5563
sg312
F76.7
sg316
g302
(g306
S'-\xd4\x9a\xe6\x1d\xb73@'
p5564
tp5565
Rp5566
sg320
F2.35
sa(dp5567
g301
g302
(g306
S'\xe5\xc4\xaeJ\xd4\x93%@'
p5568
tp5569
Rp5570
sg312
F73.25
sg316
g302
(g306
S'M\x84\rO\xaf\xa43@'
p5571
tp5572
Rp5573
sg320
F2.1
sa(dp5574
g301
g302
(g306
S'8\xcc\x1f}8\x1b&@'
p5575
tp5576
Rp5577
sg312
F77.6
sg316
g302
(g306
S'\x94\xa9\x82QI\xad3@'
p5578
tp5579
Rp5580
sg320
F2.15
sa(dp5581
g301
g302
(g306
S'\xf5\x1b\xdbW\xaa\xad&@'
p5582
tp5583
Rp5584
sg312
F77.35
sg316
g302
(g306
S'#\xdb\xf9~j\xec3@'
p5585
tp5586
Rp5587
sg320
F2.35
sa(dp5588
g301
g302
(g306
S'"]\xdee\x9f\xcf&@'
p5589
tp5590
Rp5591
sg312
F78.0
sg316
g302
(g306
S'z\xc7):\x92\xfb3@'
p5592
tp5593
Rp5594
sg320
F1.75
sa(dp5595
g301
g302
(g306
S'\xe8\xe7Q9\x9d\x83&@'
p5596
tp5597
Rp5598
sg312
F79.7
sg316
g302
(g306
S'\xc2\xd3+e\x19\xf23@'
p5599
tp5600
Rp5601
sg320
F2.55
sa(dp5602
g301
g302
(g306
S'G\x9c\x82\x8dT\xd3&@'
p5603
tp5604
Rp5605
sg312
F81.45
sg316
g302
(g306
S'\xd7\x81sF\x94\x064@'
p5606
tp5607
Rp5608
sg320
F2.05
sa(dp5609
g301
g302
(g306
S'\xe9F\xb0\xc9$\xe6&@'
p5610
tp5611
Rp5612
sg312
F80.3
sg316
g302
(g306
S'\x1a\xc0[ A\x014@'
p5613
tp5614
Rp5615
sg320
F2.1
sa(dp5616
g301
g302
(g306
S'\xa5q\r\x8a!\xa2&@'
p5617
tp5618
Rp5619
sg312
F76.15
sg316
g302
(g306
S'\xc8K7\x89A\xf03@'
p5620
tp5621
Rp5622
sg320
F2.0
sa(dp5623
g301
g302
(g306
S'\xfd\xa35\x80St&@'
p5624
tp5625
Rp5626
sg312
F75.95
sg316
g302
(g306
S'\xfc\\m\xc5\xfe\x024@'
p5627
tp5628
Rp5629
sg320
F2.45
sa(dp5630
g301
g302
(g306
S'\xc3E\x16S\x8b[&@'
p5631
tp5632
Rp5633
sg312
F75.85
sg316
g302
(g306
S'\xc2\xf5(\\\x8f\xe23@'
p5634
tp5635
Rp5636
sg320
F1.55
sa(dp5637
g301
g302
(g306
S'V1\xc4w\x1aR&@'
p5638
tp5639
Rp5640
sg312
F75.4
sg316
g302
(g306
S'\xcc\xa1E\xb6\xf3\xed3@'
p5641
tp5642
Rp5643
sg320
F1.9
sa(dp5644
g301
g302
(g306
S'\xee\xcafiZh&@'
p5645
tp5646
Rp5647
sg312
F75.05
sg316
g302
(g306
S'\xf2\xf4JY\x86\xf83@'
p5648
tp5649
Rp5650
sg320
F1.95
sa(dp5651
g301
g302
(g306
S'\x07\xdb\xbfZm\xd1%@'
p5652
tp5653
Rp5654
sg312
F74.05
sg316
g302
(g306
S'z6\xab>W\xcb3@'
p5655
tp5656
Rp5657
sg320
F2.25
sa(dp5658
g301
g302
(g306
S'\xd6A\x9a\xc6\xbc\xe1%@'
p5659
tp5660
Rp5661
sg312
F73.7
sg316
g302
(g306
S'\xaeG\xe1z\x14\xce3@'
p5662
tp5663
Rp5664
sg320
F1.5
sa(dp5665
g301
g302
(g306
S'Q\xc9\xd2Pz\x8b&@'
p5666
tp5667
Rp5668
sg312
F72.75
sg316
g302
(g306
S'\xcb\x7fH\xbf}\r4@'
p5669
tp5670
Rp5671
sg320
F1.9
sa(dp5672
g301
g302
(g306
S'\x02\x86\\\x9a\x89q&@'
p5673
tp5674
Rp5675
sg312
F75.65
sg316
g302
(g306
S'\xa6y\xc7):\xd23@'
p5676
tp5677
Rp5678
sg320
F2.05
sa(dp5679
g301
g302
(g306
S'\x82E?X\xd5 &@'
p5680
tp5681
Rp5682
sg312
F76.85
sg316
g302
(g306
S'\xa6\nF%u\xc23@'
p5683
tp5684
Rp5685
sg320
F1.55
sa(dp5686
g301
g302
(g306
S'F\xc3\xf6\x04\xce\xce%@'
p5687
tp5688
Rp5689
sg312
F75.4
sg316
g302
(g306
S'\x92\xcb\x7fH\xbf\xad3@'
p5690
tp5691
Rp5692
sg320
F2.15
sa(dp5693
g301
g302
(g306
S'3\xa4 \xea6\xe1%@'
p5694
tp5695
Rp5696
sg312
F74.8
sg316
g302
(g306
S'\xa3\x01\xbc\x05\x12\xc43@'
p5697
tp5698
Rp5699
sg320
F1.8
sa(dp5700
g301
g302
(g306
S'\x9e\x91\x17%\x9b0&@'
p5701
tp5702
Rp5703
sg312
F75.0
sg316
g302
(g306
S"R'\xa0\x89\xb0\xd13@"
p5704
tp5705
Rp5706
sg320
F1.7
sa(dp5707
g301
g302
(g306
S'pKd\xbbK\x90&@'
p5708
tp5709
Rp5710
sg312
F76.6
sg316
g302
(g306
S'Y\xa85\xcd;\xce3@'
p5711
tp5712
Rp5713
sg320
F1.95
sa(dp5714
g301
g302
(g306
S"'\x86\x1e\xc0\x9f\xa9&@"
p5715
tp5716
Rp5717
sg312
F80.85
sg316
g302
(g306
S'\x0e\x9c3\xa2\xb4\xf73@'
p5718
tp5719
Rp5720
sg320
F1.8
sa(dp5721
g301
g302
(g306
S'._\x12Ygd&@'
p5722
tp5723
Rp5724
sg312
F75.35
sg316
g302
(g306
S'h"lxz\xe53@'
p5725
tp5726
Rp5727
sg320
F1.6
sa(dp5728
g301
g302
(g306
S"W\x13=\x12\x9a\r'@"
p5729
tp5730
Rp5731
sg312
F78.55
sg316
g302
(g306
S'\xc6\x8f1w-!4@'
p5732
tp5733
Rp5734
sg320
F1.9
sa(dp5735
g301
g302
(g306
S"\x10tb\xa81z'@"
p5736
tp5737
Rp5738
sg312
F80.65
sg316
g302
(g306
S'\xfa\\m\xc5\xfe"4@'
p5739
tp5740
Rp5741
sg320
F1.95
sa(dp5742
g301
g302
(g306
S'L}2\x92)\xdc&@'
p5743
tp5744
Rp5745
sg312
F79.35
sg316
g302
(g306
S'\xdcF\x03x\x0b$4@'
p5746
tp5747
Rp5748
sg320
F1.9
sa(dp5749
g301
g302
(g306
S'\xa6\xd9\xa1.\xcd\x8d&@'
p5750
tp5751
Rp5752
sg312
F79.75
sg316
g302
(g306
S'\x82sF\x94\xf6\xf63@'
p5753
tp5754
Rp5755
sg320
F1.9
sa(dp5756
g301
g302
(g306
S'"\x08Zm\xbc0\'@'
p5757
tp5758
Rp5759
sg312
F82.7
sg316
g302
(g306
S'\x98\xdd\x93\x87\x85*4@'
p5760
tp5761
Rp5762
sg320
F2.0
sa(dp5763
g301
g302
(g306
S"Z\xf3\x95\x054\x82'@"
p5764
tp5765
Rp5766
sg312
F83.75
sg316
g302
(g306
S'R\x96!\x8eu14@'
p5767
tp5768
Rp5769
sg320
F2.2
sa(dp5770
g301
g302
(g306
S"\xd3\xe4\x02\xb2\xe6\xd0'@"
p5771
tp5772
Rp5773
sg312
F83.75
sg316
g302
(g306
S'\x92\x18\x04V\x0e]4@'
p5774
tp5775
Rp5776
sg320
F1.75
sa(dp5777
g301
g302
(g306
S"\xb6z`\x81ES'@"
p5778
tp5779
Rp5780
sg312
F82.6
sg316
g302
(g306
S'R\xb8\x1e\x85\xeb14@'
p5781
tp5782
Rp5783
sg320
F1.75
sa(dp5784
g301
g302
(g306
S'\x81F\xa9\xae\xd8\x88&@'
p5785
tp5786
Rp5787
sg312
F79.0
sg316
g302
(g306
S'\xdeF\x03x\x0b\xf43@'
p5788
tp5789
Rp5790
sg320
F1.75
sa(dp5791
g301
g302
(g306
S'\xb6;\xe2\xc0]\xf8&@'
p5792
tp5793
Rp5794
sg312
F78.2
sg316
g302
(g306
S'0\xdd$\x06\x81\x154@'
p5795
tp5796
Rp5797
sg320
F2.05
sa(dp5798
g301
g302
(g306
S'H\xfcs\xa1]\xae&@'
p5799
tp5800
Rp5801
sg312
F77.15
sg316
g302
(g306
S'X\xca2\xc4\xb1\xee3@'
p5802
tp5803
Rp5804
sg320
F2.2
sa(dp5805
g301
g302
(g306
S'\x8d\xb2\xca=k\xe4&@'
p5806
tp5807
Rp5808
sg312
F76.6
sg316
g302
(g306
S'\x16\x95\xd4\th\x024@'
p5809
tp5810
Rp5811
sg320
F1.8
sa(dp5812
g301
g302
(g306
S'\x88D \xbf\x11~&@'
p5813
tp5814
Rp5815
sg312
F76.6
sg316
g302
(g306
S'\xae\xb6b\x7f\xd9\xbd3@'
p5816
tp5817
Rp5818
sg320
F1.75
sa(dp5819
g301
g302
(g306
S'K/\xaa#\xb5\xd0&@'
p5820
tp5821
Rp5822
sg312
F78.3
sg316
g302
(g306
S'&\xc2\x86\xa7W\xea3@'
p5823
tp5824
Rp5825
sg320
F2.15
sa(dp5826
g301
g302
(g306
S"\xd2z\xaf\xa5v\x1f'@"
p5827
tp5828
Rp5829
sg312
F79.3
sg316
g302
(g306
S'\r\xe0-\x90\xa0\x084@'
p5830
tp5831
Rp5832
sg320
F2.4
sa(dp5833
g301
g302
(g306
S'R\x9dh\xcb*\xc6&@'
p5834
tp5835
Rp5836
sg312
F77.4
sg316
g302
(g306
S'\xc7):\x92\xcb\x0f4@'
p5837
tp5838
Rp5839
sg320
F2.0
sa(dp5840
g301
g302
(g306
S'f\xc6\r#;R&@'
p5841
tp5842
Rp5843
sg312
F78.1
sg316
g302
(g306
S'\xad\xfa\\m\xc5\xfe3@'
p5844
tp5845
Rp5846
sg320
F2.4
sa(dp5847
g301
g302
(g306
S'\xac*\x87\x88\x8a\x8f&@'
p5848
tp5849
Rp5850
sg312
F77.75
sg316
g302
(g306
S'\x83\xc0\xca\xa1E\x064@'
p5851
tp5852
Rp5853
sg320
F2.55
sa(dp5854
g301
g302
(g306
S'\xe1\xd7\x86\x800\xcc&@'
p5855
tp5856
Rp5857
sg312
F78.2
sg316
g302
(g306
S'n\xc5\xfe\xb2{\xf23@'
p5858
tp5859
Rp5860
sg320
F1.6
sa(dp5861
g301
g302
(g306
S'\x8dG0\xba\xc4\xcc&@'
p5862
tp5863
Rp5864
sg312
F76.2
sg316
g302
(g306
S'\xf2\xfd\xd4x\xe9\xd63@'
p5865
tp5866
Rp5867
sg320
F1.7
sa(dp5868
g301
g302
(g306
S'q\xdf\xe2bZ\x86&@'
p5869
tp5870
Rp5871
sg312
F75.95
sg316
g302
(g306
S't\xb5\x15\xfb\xcb\xfe3@'
p5872
tp5873
Rp5874
sg320
F2.45
sa(dp5875
g301
g302
(g306
S'\x85\xe3*\x1dpW&@'
p5876
tp5877
Rp5878
sg312
F78.8
sg316
g302
(g306
S'<N\xd1\x91\\\xde3@'
p5879
tp5880
Rp5881
sg320
F2.55
sa(dp5882
g301
g302
(g306
S'\xc99\x13\xfc\x18\x95&@'
p5883
tp5884
Rp5885
sg312
F75.22222222222223
sg316
g302
(g306
S'+@\xee5\x17\xd23@'
p5886
tp5887
Rp5888
sg320
F2.4444444444444446
sa(dp5889
g301
g302
(g306
S'\x0e\xc4\x7f\xce\x95\xfc&@'
p5890
tp5891
Rp5892
sg312
F80.07692307692308
sg316
g302
(g306
S'\xc1&\x1a\xea\x82)4@'
p5893
tp5894
Rp5895
sg320
F1.3846153846153846
sa(dp5896
g301
g302
(g306
S'\xff\xf5\xe4\xd29s%@'
p5897
tp5898
Rp5899
sg312
F73.75
sg316
g302
(g306
S't\x93\x18\x04V.4@'
p5900
tp5901
Rp5902
sg320
F2.125
sa(dp5903
g301
g302
(g306
S"\x00\xa0\xa0\xbd\xf6\x01'@"
p5904
tp5905
Rp5906
sg312
F78.83333333333333
sg316
g302
(g306
S'\x99\x99\x99\x99\x99\xb94@'
p5907
tp5908
Rp5909
sg320
F2.0
sa(dp5910
g301
g302
(g306
S"9\x92\xd355P'@"
p5911
tp5912
Rp5913
sg312
F84.5
sg316
g302
(g306
S'\xf8S\xe3\xa5\x9b\xe44@'
p5914
tp5915
Rp5916
sg320
F2.5
sa(dp5917
g301
g302
(g306
S']h\x96 \xe7\xe7(@'
p5918
tp5919
Rp5920
sg312
F91.0
sg316
g302
(g306
S"'1\x08\xac\x1c\x9a5@"
p5921
tp5922
Rp5923
sg320
F1.0
sa(dp5924
g301
g302
(g306
S'\nx\xc5]\x84\x9a)@'
p5925
tp5926
Rp5927
sg312
F91.0
sg316
g302
(g306
S'\xb0rh\x91\xed|5@'
p5928
tp5929
Rp5930
sg320
F3.0
sa(dp5931
g301
g302
(g306
S'\xb1QB\xad\x17\xaf*@'
p5932
tp5933
Rp5934
sg312
F101.0
sg316
g302
(g306
S'u\x93\x18\x04VN5@'
p5935
tp5936
Rp5937
sg320
F1.0
satp5938
Rp5939
(dp5940
g290
I01
sg291
Nsg292
Nsg293
I0
sg294
g295
(g1
tp5941
Rp5942
sbssb.