ccopy_reg
_reconstructor
p0
(cdeap.tools.support
Logbook
p1
c__builtin__
list
p2
(lp3
(dp4
S'nevals'
p5
F500.0
sS'gen'
p6
I0
sa(dp7
g5
F780.45
sg6
I1
sa(dp8
g5
F1050.35
sg6
I2
sa(dp9
g5
F1326.55
sg6
I3
sa(dp10
g5
F1606.2
sg6
I4
sa(dp11
g5
F1889.55
sg6
I5
sa(dp12
g5
F2158.2
sg6
I6
sa(dp13
g5
F2437.4
sg6
I7
sa(dp14
g5
F2709.95
sg6
I8
sa(dp15
g5
F2985.4
sg6
I9
sa(dp16
g5
F3260.1
sg6
I10
sa(dp17
g5
F3532.45
sg6
I11
sa(dp18
g5
F3809.35
sg6
I12
sa(dp19
g5
F4089.35
sg6
I13
sa(dp20
g5
F4366.1
sg6
I14
sa(dp21
g5
F4634.95
sg6
I15
sa(dp22
g5
F4915.95
sg6
I16
sa(dp23
g5
F5192.25
sg6
I17
sa(dp24
g5
F5471.6
sg6
I18
sa(dp25
g5
F5742.1
sg6
I19
sa(dp26
g5
F6018.95
sg6
I20
sa(dp27
g5
F6296.7
sg6
I21
sa(dp28
g5
F6567.75
sg6
I22
sa(dp29
g5
F6842.65
sg6
I23
sa(dp30
g5
F7115.35
sg6
I24
sa(dp31
g5
F7385.45
sg6
I25
sa(dp32
g5
F7657.65
sg6
I26
sa(dp33
g5
F7928.45
sg6
I27
sa(dp34
g5
F8203.45
sg6
I28
sa(dp35
g5
F8479.4
sg6
I29
sa(dp36
g5
F8750.15
sg6
I30
sa(dp37
g5
F9023.9
sg6
I31
sa(dp38
g5
F9301.65
sg6
I32
sa(dp39
g5
F9581.4
sg6
I33
sa(dp40
g5
F9857.45
sg6
I34
sa(dp41
g5
F10133.9
sg6
I35
satp42
Rp43
(dp44
S'log_header'
p45
I01
sS'header'
p46
NsS'columns_len'
p47
NsS'buffindex'
p48
I0
sS'chapters'
p49
ccollections
defaultdict
p50
(g1
tp51
Rp52
S'fitness'
p53
g0
(g1
g2
(lp54
(dp55
S'std'
p56
cnumpy.core.multiarray
scalar
p57
(cnumpy
dtype
p58
(S'f8'
p59
I0
I1
tp60
Rp61
(I3
S'<'
p62
NNNI-1
I-1
I0
tp63
bS'\x87Y5\xc2~\\\x15E'
p64
tp65
Rp66
sS'max'
p67
g57
(g61
S'\x8b\x9e\xf2\xb9\x1b\xe2]E'
p68
tp69
Rp70
sS'avg'
p71
g57
(g61
S'\xfd\x02(Z\xbe\x99\xceD'
p72
tp73
Rp74
sS'min'
p75
g57
(g61
S'\xcb\xbau(\xcfR @'
p76
tp77
Rp78
sa(dp79
g56
g57
(g61
S'\xeev\x8d"6\xbc\xf8C'
p80
tp81
Rp82
sg67
g57
(g61
S'*\xdf\xf0\xdc2MAD'
p83
tp84
Rp85
sg71
g57
(g61
S'J\xcd\xca\xde\x7f\xb7\xb1C'
p86
tp87
Rp88
sg75
g57
(g61
S'=\xdf\x9e\xc1\x1f\xe5\x1b@'
p89
tp90
Rp91
sa(dp92
g56
g57
(g61
S'\xbec\xeb\x98\xc7d\x11D'
p93
tp94
Rp95
sg67
g57
(g61
S'\x1bk\xf2Z.UXD'
p96
tp97
Rp98
sg71
g57
(g61
S'\xeb\x99Or\xae\xea\xc8C'
p99
tp100
Rp101
sg75
g57
(g61
S'e$\x1d\xef\x95w\x12@'
p102
tp103
Rp104
sa(dp105
g56
g57
(g61
S'\x1a\xe3H\xc7g\xfa\x11D'
p106
tp107
Rp108
sg67
g57
(g61
S'\xa5\x9fJ\xb0\x7f&YD'
p109
tp110
Rp111
sg71
g57
(g61
S'\x95\x12\xaa\xd3\x05\xc1\xc9C'
p112
tp113
Rp114
sg75
g57
(g61
S'\xe6\\j\x1e\xf6~\x03@'
p115
tp116
Rp117
sa(dp118
g56
g57
(g61
S'\xb2\x86X\x9eH\x11"C'
p119
tp120
Rp121
sg67
g57
(g61
S'%\x97|?\xf2\x81hC'
p122
tp123
Rp124
sg71
g57
(g61
S'\x8d\xe5\xee\x97:z\xdfB'
p125
tp126
Rp127
sg75
g57
(g61
S'\xc6$\xd0\xd4\xadJ\xf9?'
p128
tp129
Rp130
sa(dp131
g56
g57
(g61
S'`!)\x7f\x9a\xe5\x14C'
p132
tp133
Rp134
sg67
g57
(g61
S'\xb2\xe2\xf0\xef\xc4WXC'
p135
tp136
Rp137
sg71
g57
(g61
S'\xe9A\x9f\x92X\xa2\xd2B'
p138
tp139
Rp140
sg75
g57
(g61
S'\xb0\xa9A\xc3\xc0\xc8\xee?'
p141
tp142
Rp143
sa(dp144
g56
g57
(g61
S'\xd8\x1f\xa3\xed\x12\x1b\x11D'
p145
tp146
Rp147
sg67
g57
(g61
S'bwFA\x12\xeeWD'
p148
tp149
Rp150
sg71
g57
(g61
S'\x9a\x1b\xa6D?\x81\xc8C'
p151
tp152
Rp153
sg75
g57
(g61
S'\xad`\xc4\xc4\x9fq\xeb?'
p154
tp155
Rp156
sa(dp157
g56
g57
(g61
S'\xd8\xb9\x88T_7\x1aC'
p158
tp159
Rp160
sg67
g57
(g61
S'<\x18\xba3\xbb~XC'
p161
tp162
Rp163
sg71
g57
(g61
S'{[\xe8l\xdb\x8b\xdfB'
p164
tp165
Rp166
sg75
g57
(g61
S'\x15\\f\xa8T\xf3\xea?'
p167
tp168
Rp169
sa(dp170
g56
g57
(g61
S'\xdfXg7\xbc\x14\xf2C'
p171
tp172
Rp173
sg67
g57
(g61
S'j\xe9\x90\x0eVK9D'
p174
tp175
Rp176
sg71
g57
(g61
S'J;5 \x8b\xe8\xa9C'
p177
tp178
Rp179
sg75
g57
(g61
S'\x15\\f\xa8T\xf3\xea?'
p180
tp181
Rp182
sa(dp183
g56
g57
(g61
S'\xeaIgI\x10\x92\xd3E'
p184
tp185
Rp186
sg67
g57
(g61
S'\xcb\x0f\x0e\x00\xca`\x1bF'
p187
tp188
Rp189
sg71
g57
(g61
S'\xddk\x94\x03\x00\t\x8cE'
p190
tp191
Rp192
sg75
g57
(g61
S'\x15\\f\xa8T\xf3\xea?'
p193
tp194
Rp195
sa(dp196
g56
g57
(g61
S'o\x19\xa1\xb6z\x9e\x01C'
p197
tp198
Rp199
sg67
g57
(g61
S'\xcd\xd8o(\xd8\xa5HC'
p200
tp201
Rp202
sg71
g57
(g61
S'\xcf>\xe1\xf0<J\xb9B'
p203
tp204
Rp205
sg75
g57
(g61
S'>M1\xe8\x987\xea?'
p206
tp207
Rp208
sa(dp209
g56
g57
(g61
S'\xf6\xf2\x02E\x07|\x0eC'
p210
tp211
Rp212
sg67
g57
(g61
S']Mk\xb1\xd6\x7fIC'
p213
tp214
Rp215
sg71
g57
(g61
S'F\x8b1h*\xf2\xd2B'
p216
tp217
Rp218
sg75
g57
(g61
S'\x16\xf1\xa1%\xa3\x0e\xea?'
p219
tp220
Rp221
sa(dp222
g56
g57
(g61
S'3\xa5\xc5x\xb9\xe4\x08C'
p223
tp224
Rp225
sg67
g57
(g61
S'\xc32\xde\x16\xd2\xedHC'
p226
tp227
Rp228
sg71
g57
(g61
S'\xef\xa3\xca\xb3Q=\xc9B'
p229
tp230
Rp231
sg75
g57
(g61
S'6\xc7\xdatX2\xe9?'
p232
tp233
Rp234
sa(dp235
g56
g57
(g61
S'\xc6\x0e\xa2ix\xe5\x08C'
p236
tp237
Rp238
sg67
g57
(g61
S'\xa9\xc5\x80\xd3\xf2\xeeHC'
p239
tp240
Rp241
sg71
g57
(g61
S'\x1e\xdc*RK?\xc9B'
p242
tp243
Rp244
sg75
g57
(g61
S'x\xa7\xab\xc1\xb4X\xe9?'
p245
tp246
Rp247
sa(dp248
g56
g57
(g61
S'\x98&\xfd\x90\xdaL\x11C'
p249
tp250
Rp251
sg67
g57
(g61
S'g\x98\x04o\xb93XC'
p252
tp253
Rp254
sg71
g57
(g61
S'~\xcf\x9f\x89\x83\xd5\xc8B'
p255
tp256
Rp257
sg75
g57
(g61
S'x\xa7\xab\xc1\xb4X\xe9?'
p258
tp259
Rp260
sa(dp261
g56
g57
(g61
S'\x83\x1c=@{\xaf1D'
p262
tp263
Rp264
sg67
g57
(g61
S'G\xba\x9a=\xaf\xbdxD'
p265
tp266
Rp267
sg71
g57
(g61
S'+\xbe f\xb1U\xe9C'
p268
tp269
Rp270
sg75
g57
(g61
S'c\xf9c\xe09D\xe9?'
p271
tp272
Rp273
sa(dp274
g56
g57
(g61
S'\x1a\xf6YC\xd0d\x11D'
p275
tp276
Rp277
sg67
g57
(g61
S'?\x15\x05\x81:UXD'
p278
tp279
Rp280
sg71
g57
(g61
S'\x0f74\xdd\xc7\xea\xc8C'
p281
tp282
Rp283
sg75
g57
(g61
S'c\xf9c\xe09D\xe9?'
p284
tp285
Rp286
sa(dp287
g56
g57
(g61
S'\x07\xe4\x19\xb3kFRB'
p288
tp289
Rp290
sg67
g57
(g61
S'\xcc\x8a7\x85J\x06\x98B'
p291
tp292
Rp293
sg71
g57
(g61
S'\xf9<3\xd2\xffm\x11B'
p294
tp295
Rp296
sg75
g57
(g61
S'\x83\x13\x8b\xaf@\xfe\xe8?'
p297
tp298
Rp299
sa(dp300
g56
g57
(g61
S'Bl?o\xd0\x8biB'
p301
tp302
Rp303
sg67
g57
(g61
S'\xd2[\xf6\x86AJ\xb0B'
p304
tp305
Rp306
sg71
g57
(g61
S'\x88\xa30t\xbf\xd3+B'
p307
tp308
Rp309
sg75
g57
(g61
S'\x96,\x97\x13m\xf7\xe8?'
p310
tp311
Rp312
sa(dp313
g56
g57
(g61
S'\xf5\xdd\xde\x97\xa0\xae\xf1C'
p314
tp315
Rp316
sg67
g57
(g61
S'\xfa\xceg\xbe}\xbc8D'
p317
tp318
Rp319
sg71
g57
(g61
S'\xa8(u\x94GU\xa9C'
p320
tp321
Rp322
sg75
g57
(g61
S'F\t\xb4\x0b\xd0\xc0\xe8?'
p323
tp324
Rp325
sa(dp326
g56
g57
(g61
S'\xb4\xeb}\x7f\x84[)C'
p327
tp328
Rp329
sg67
g57
(g61
S'\x9a_o]\xe3ZqC'
p330
tp331
Rp332
sg71
g57
(g61
S'\\\xa0\x89|\xfa\x01\xe5B'
p333
tp334
Rp335
sg75
g57
(g61
S'\xcd\xf4\x05\xc4\xeeE\xe8?'
p336
tp337
Rp338
sa(dp339
g56
g57
(g61
S'c\xf0\x805T}\xf1C'
p340
tp341
Rp342
sg67
g57
(g61
S'\xf9{-\\\x86w8D'
p343
tp344
Rp345
sg71
g57
(g61
S'\x01\x8c[k>\x0e\xa9C'
p346
tp347
Rp348
sg75
g57
(g61
S'\xec\xec\x87\xe3\xe6\xc7\xe7?'
p349
tp350
Rp351
sa(dp352
g56
g57
(g61
S'\x17\xb7J\x13\xa6\xc8\x11D'
p353
tp354
Rp355
sg67
g57
(g61
S'\xf9\xa7A\xfe\xe4\xe0XD'
p356
tp357
Rp358
sg71
g57
(g61
S'\xac\x8e\xb3\x83\t{\xc9C'
p359
tp360
Rp361
sg75
g57
(g61
S"\x8aqk'\x81\x9a\xe7?"
p362
tp363
Rp364
sa(dp365
g56
g57
(g61
S'x\n\xc0q\x849\xe2D'
p366
tp367
Rp368
sg67
g57
(g61
S'\nA\xdf\xed\xc9~)E'
p369
tp370
Rp371
sg71
g57
(g61
S'*0\xfd\x84n\x1b\x9aD'
p372
tp373
Rp374
sg75
g57
(g61
S'}[\xae\xaaw6\xe7?'
p375
tp376
Rp377
sa(dp378
g56
g57
(g61
S'\xd4\xf7\x94\x1f\x9f^"C'
p379
tp380
Rp381
sg67
g57
(g61
S'jJ\x89\xa2\x05\xedhC'
p382
tp383
Rp384
sg71
g57
(g61
S'\xc8.Ew\x18\xfc\xdfB'
p385
tp386
Rp387
sg75
g57
(g61
S'\x90t\xba\x0e\xa4/\xe7?'
p388
tp389
Rp390
sa(dp391
g56
g57
(g61
S'\xebr\xab\x9cm\xe3\xf0C'
p392
tp393
Rp394
sg67
g57
(g61
S'\x99M\xf7I:\xa07D'
p395
tp396
Rp397
sg71
g57
(g61
S'\x83\x8e\x9dIa2\xa8C'
p398
tp399
Rp400
sg75
g57
(g61
S'\xdd\xa9#\x18\x8c\xe4\xe6?'
p401
tp402
Rp403
sa(dp404
g56
g57
(g61
S'\x1ai\xef<\x06\x1a\x11D'
p405
tp406
Rp407
sg67
g57
(g61
S'9\x15\xcf_\x9a\xecWD'
p408
tp409
Rp410
sg71
g57
(g61
S' \xa2\xabj\xbf\x7f\xc8C'
p411
tp412
Rp413
sg75
g57
(g61
S'm\xcf\xc4]\xfc\xb5\xe6?'
p414
tp415
Rp416
sa(dp417
g56
g57
(g61
S'\x12/K%\x88$SC'
p418
tp419
Rp420
sg67
g57
(g61
S'\x06:\xc3\xb0\x8b\xc7\x9aC'
p421
tp422
Rp423
sg71
g57
(g61
S'\xed\xff\xef\x0f*l\x0bC'
p424
tp425
Rp426
sg75
g57
(g61
S'\xda\x1c7\x9d[\x98\xe6?'
p427
tp428
Rp429
sa(dp430
g56
g57
(g61
S'acN\xa1\xcc.\xd1E'
p431
tp432
Rp433
sg67
g57
(g61
S'#<\xc9\x84\xaa\t\x18F'
p434
tp435
Rp436
sg71
g57
(g61
S'e\xaa\x8e0\x8d\x9d\x88E'
p437
tp438
Rp439
sg75
g57
(g61
S'\xda\x1c7\x9d[\x98\xe6?'
p440
tp441
Rp442
sa(dp443
g56
g57
(g61
S'\x0c\x88\xdf7~\x11\xf2C'
p444
tp445
Rp446
sg67
g57
(g61
S'\x1e\x84\xd3\xc2\xceF9D'
p447
tp448
Rp449
sg71
g57
(g61
S'\xe8\xf1\xf3\x8bk\xe9\xa9C'
p450
tp451
Rp452
sg75
g57
(g61
S'\xbd\x9eIM\xc3q\xe6?'
p453
tp454
Rp455
sa(dp456
g56
g57
(g61
S'\xf8\xef\xd9\x80\x8f\xd4\x11D'
p457
tp458
Rp459
sg67
g57
(g61
S'\x1d\xdc\xe7\xd0\x9f1XD'
p460
tp461
Rp462
sg71
g57
(g61
S'\x8a_\xd8\xda/\n\xcfC'
p463
tp464
Rp465
sg75
g57
(g61
S'\xa8\x95\xbe\x00\xaaT\xe6?'
p466
tp467
Rp468
sa(dp469
g56
g57
(g61
S'\xf2\xa3kb\xc76\x02C'
p470
tp471
Rp472
sg67
g57
(g61
S'\x9c\x85\xfe\xfc\xe2zIC'
p473
tp474
Rp475
sg71
g57
(g61
S'\xe3b]7\xf1 \xbaB'
p476
tp477
Rp478
sg75
g57
(g61
S'\xd6d\xf1\xd1\x9c\x10\xe6?'
p479
tp480
Rp481
sa(dp482
g56
g57
(g61
S'\x0b7),`\xf3\xd2E'
p483
tp484
Rp485
sg67
g57
(g61
S'\xd0\x90"7\xcb\x82\x1aF'
p486
tp487
Rp488
sg71
g57
(g61
S'\xf2c\xcbF\xad%\x8bE'
p489
tp490
Rp491
sg75
g57
(g61
S'\xe4F\x9c\x9f\xda\xdb\xe5?'
p492
tp493
Rp494
sa(dp495
g56
g57
(g61
S'^%7"\xf6\xf3DC'
p496
tp497
Rp498
sg67
g57
(g61
S'\x16e\xe9\xec\xac-\x8dC'
p499
tp500
Rp501
sg71
g57
(g61
S'\x83\xe4\\\xfe\xa4l\x01C'
p502
tp503
Rp504
sg75
g57
(g61
S'\xe4F\x9c\x9f\xda\xdb\xe5?'
p505
tp506
Rp507
sa(dp508
g56
g57
(g61
S'\xb2\x84\x1dX\xbe\x1f\xd4G'
p509
tp510
Rp511
sg67
g57
(g61
S'\x8d\xab)\xb6\xfd&\x1cH'
p512
tp513
Rp514
sg71
g57
(g61
S'\xcb_\xf3v\xf5\xd3\x8cG'
p515
tp516
Rp517
sg75
g57
(g61
S'\xe4F\x9c\x9f\xda\xdb\xe5?'
p518
tp519
Rp520
sa(dp521
g56
g57
(g61
S'\xab\x0f\x04\xb8\xb3ECC'
p522
tp523
Rp524
sg67
g57
(g61
S'\x98\x7f\xe4$\xf5\xf5\x8aC'
p525
tp526
Rp527
sg71
g57
(g61
S"\xf6'\x0e\x1bV\x9c\xfbB"
p528
tp529
Rp530
sg75
g57
(g61
S'\xf7\xef~0l\xc1\xe5?'
p531
tp532
Rp533
satp534
Rp535
(dp536
g45
I01
sg46
Nsg47
Nsg48
I0
sg49
g50
(g1
tp537
Rp538
sbsS'size'
p539
g0
(g1
g2
(lp540
(dp541
g56
g57
(g61
S'r?\xba\xd7MY!@'
p542
tp543
Rp544
sg67
F49.5
sg71
g57
(g61
S'p_\x07\xce\x19\xb1"@'
p545
tp546
Rp547
sg75
F2.0
sa(dp548
g56
g57
(g61
S'\x10X\xc6\xca\xcaP\x1f@'
p549
tp550
Rp551
sg67
F45.05
sg71
g57
(g61
S'\xec\xc09#J;!@'
p552
tp553
Rp554
sg75
F1.0
sa(dp555
g56
g57
(g61
S'nw\x0c\xec\xbe\x85\x1e@'
p556
tp557
Rp558
sg67
F43.4
sg71
g57
(g61
S'{\xa5,C\x1c\xeb @'
p559
tp560
Rp561
sg75
F1.0
sa(dp562
g56
g57
(g61
S'j\x9c7\xb6`b\x1e@'
p563
tp564
Rp565
sg67
F38.5
sg71
g57
(g61
S'\xd2\x00\xde\x02\t\xca#@'
p566
tp567
Rp568
sg75
F1.1
sa(dp569
g56
g57
(g61
S'\xc8\x8b\xa0d\xf4a\x1a@'
p570
tp571
Rp572
sg67
F36.0
sg71
g57
(g61
S'\xd9_vO\x1ev&@'
p573
tp574
Rp575
sg75
F1.15
sa(dp576
g56
g57
(g61
S'\x8be\xe6Z\xd1\x80\x18@'
p577
tp578
Rp579
sg67
F35.1
sg71
g57
(g61
S'7<\xbdR\x96\x81(@'
p580
tp581
Rp582
sg75
F1.05
sa(dp583
g56
g57
(g61
S'\xb75M\xd0\xe2\xd1\x17@'
p584
tp585
Rp586
sg67
F34.9
sg71
g57
(g61
S'B`\xe5\xd0"\x9b+@'
p587
tp588
Rp589
sg75
F1.2
sa(dp590
g56
g57
(g61
S'\x15\xd9}\xa2\xb4\xee\x17@'
p591
tp592
Rp593
sg67
F36.2
sg71
g57
(g61
S'P\xaf\x94e\x88\x83.@'
p594
tp595
Rp596
sg75
F1.3
sa(dp597
g56
g57
(g61
S'[a=\x83[\x94\x18@'
p598
tp599
Rp600
sg67
F39.65
sg71
g57
(g61
S'z6\xab>W\xbb0@'
p601
tp602
Rp603
sg75
F1.7
sa(dp604
g56
g57
(g61
S'\x12\x16\xb8n\xeb&\x19@'
p605
tp606
Rp607
sg67
F39.05
sg71
g57
(g61
S'\x16\x8cJ\xea\x04\xb41@'
p608
tp609
Rp610
sg75
F1.3
sa(dp611
g56
g57
(g61
S'\x86\xbf\xbb(S\x01\x1a@'
p612
tp613
Rp614
sg67
F42.1
sg71
g57
(g61
S'rh\x91\xed|\x7f2@'
p615
tp616
Rp617
sg75
F1.4
sa(dp618
g56
g57
(g61
S'\xb4zo\x96\xce\xd5\x18@'
p619
tp620
Rp621
sg67
F42.2
sg71
g57
(g61
S'\xa2#\xb9\xfc\x87T3@'
p622
tp623
Rp624
sg75
F1.85
sa(dp625
g56
g57
(g61
S'\xfbZ\x1aT\x87\xb6\x19@'
p626
tp627
Rp628
sg67
F45.3
sg71
g57
(g61
S"\x82&\xc2\x86\xa7'4@"
p629
tp630
Rp631
sg75
F1.45
sa(dp632
g56
g57
(g61
S'\xfd\xecd\xaa\x9d;\x1a@'
p633
tp634
Rp635
sg67
F47.8
sg71
g57
(g61
S'\xc3\xf5(\\\x8f\xc24@'
p636
tp637
Rp638
sg75
F1.3
sa(dp639
g56
g57
(g61
S'm0\x95\xb6?\x84\x1b@'
p640
tp641
Rp642
sg67
F49.25
sg71
g57
(g61
S'\xb6@\x82\xe2\xc7\xd85@'
p643
tp644
Rp645
sg75
F2.65
sa(dp646
g56
g57
(g61
S'5\x16\xba\x8e\xfe}\x1b@'
p647
tp648
Rp649
sg67
F51.4
sg71
g57
(g61
S'\xd7\x12\xf2A\xcf\xd66@'
p650
tp651
Rp652
sg75
F1.3
sa(dp653
g56
g57
(g61
S'\x03\x13\xe0\xad;\x99\x1d@'
p654
tp655
Rp656
sg67
F54.5
sg71
g57
(g61
S'\x9f\x1a/\xdd$\xa67@'
p657
tp658
Rp659
sg75
F2.3
sa(dp660
g56
g57
(g61
S'\x16\xd1Rx\xf0\xd2\x1d@'
p661
tp662
Rp663
sg67
F56.35
sg71
g57
(g61
S'\xdc\x8a\xfde\xf7\x148@'
p664
tp665
Rp666
sg75
F2.4
sa(dp667
g56
g57
(g61
S'0\x01_k\xc8\xc5\x1e@'
p668
tp669
Rp670
sg67
F56.7
sg71
g57
(g61
S'\x90\xa0\xf81\xe6\x9e8@'
p671
tp672
Rp673
sg75
F2.25
sa(dp674
g56
g57
(g61
S'i\x93[\r\x00k @'
p675
tp676
Rp677
sg67
F60.25
sg71
g57
(g61
S'Nb\x10X9T9@'
p678
tp679
Rp680
sg75
F2.1
sa(dp681
g56
g57
(g61
S'v~\xab\x84Bf!@'
p682
tp683
Rp684
sg67
F61.05
sg71
g57
(g61
S'\xb0\x94e\x88c=:@'
p685
tp686
Rp687
sg75
F2.35
sa(dp688
g56
g57
(g61
S'9\xe1\xf7\x96!\x7f"@'
p689
tp690
Rp691
sg67
F61.15
sg71
g57
(g61
S'\xee\xeb\xc09#z;@'
p692
tp693
Rp694
sg75
F2.75
sa(dp695
g56
g57
(g61
S'o\x86\xe7\xb0\xc4\x02$@'
p696
tp697
Rp698
sg67
F64.9
sg71
g57
(g61
S'+\xcb\x10\xc7\xba8=@'
p699
tp700
Rp701
sg75
F3.0
sa(dp702
g56
g57
(g61
S"'dNI\xe3\x12$@"
p703
tp704
Rp705
sg67
F68.75
sg71
g57
(g61
S"\x0ez6\xab>'?@"
p706
tp707
Rp708
sg75
F1.95
sa(dp709
g56
g57
(g61
S'\xde\xdao\xbdT\x08$@'
p710
tp711
Rp712
sg67
F70.7
sg71
g57
(g61
S'\xc0[ A\xf1c@@'
p713
tp714
Rp715
sg75
F3.8
sa(dp716
g56
g57
(g61
S'/\xb1\x03M/\xe5$@'
p717
tp718
Rp719
sg67
F75.75
sg71
g57
(g61
S'\x97L\x15\x8cJ*A@'
p720
tp721
Rp722
sg75
F3.7
sa(dp723
g56
g57
(g61
S'~\x1f8\xa2y\xf0%@'
p724
tp725
Rp726
sg67
F77.7
sg71
g57
(g61
S'\x08\xac\x1cZd\xdbA@'
p727
tp728
Rp729
sg75
F3.55
sa(dp730
g56
g57
(g61
S'\xefT\xfd4\x93m&@'
p731
tp732
Rp733
sg67
F77.15
sg71
g57
(g61
S'S\x05\xa3\x92:\x91B@'
p734
tp735
Rp736
sg75
F3.75
sa(dp737
g56
g57
(g61
S"\x82\x81\xd5\xa8\x0bv'@"
p738
tp739
Rp740
sg67
F79.6
sg71
g57
(g61
S'\xea\xe26\x1a\xc0\xdbB@'
p741
tp742
Rp743
sg75
F5.45
sa(dp744
g56
g57
(g61
S'\x96B\x06%\x19\xa2(@'
p745
tp746
Rp747
sg67
F86.2
sg71
g57
(g61
S'G\xe1z\x14\xae?C@'
p748
tp749
Rp750
sg75
F3.75
sa(dp751
g56
g57
(g61
S'M/\x99*$\xf8(@'
p752
tp753
Rp754
sg67
F86.4
sg71
g57
(g61
S'*\x87\x16\xd9\xce\xb7C@'
p755
tp756
Rp757
sg75
F2.85
sa(dp758
g56
g57
(g61
S'\xd0\xeea\x8d\xef\xab)@'
p759
tp760
Rp761
sg67
F89.15
sg71
g57
(g61
S'\x0f\xbe0\x99*\x18D@'
p762
tp763
Rp764
sg75
F4.05
sa(dp765
g56
g57
(g61
S']\xe5\xb7\x8d\x0cF*@'
p766
tp767
Rp768
sg67
F87.7
sg71
g57
(g61
S'?\xe8\xd9\xac\xfa\x94D@'
p769
tp770
Rp771
sg75
F3.2
sa(dp772
g56
g57
(g61
S'\x12\xdc\x1b\xdf\xb8\x9d*@'
p773
tp774
Rp775
sg67
F90.9
sg71
g57
(g61
S'\x06_\x98L\x15\x0cE@'
p776
tp777
Rp778
sg75
F4.15
sa(dp779
g56
g57
(g61
S'\x16i\x951\xa4\xd8+@'
p780
tp781
Rp782
sg67
F97.25
sg71
g57
(g61
S'.\x90\xa0\xf81\xc6E@'
p783
tp784
Rp785
sg75
F3.95
sa(dp786
g56
g57
(g61
S'\x82\x12\x81nf\x95-@'
p787
tp788
Rp789
sg67
F98.1
sg71
g57
(g61
S'2w-!\x1f|F@'
p790
tp791
Rp792
sg75
F2.8
satp793
Rp794
(dp795
g45
I01
sg46
Nsg47
Nsg48
I0
sg49
g50
(g1
tp796
Rp797
sbssb.