(dp1
S'C'
cnumpy.core.multiarray
scalar
p2
(cnumpy
dtype
p3
(S'f8'
I0
I1
tRp4
(I3
S'<'
NNNI-1
I-1
I0
tbS'\xc9\\\x84&.\x02\xf9@'
tRp5
sS'mse'
p6
g2
(g4
S'\xca\x19 \xb9\x0c\xb9O?'
tRp7
sS'gamma'
p8
g2
(g4
S'\x9eU-\xf8\xe0\xb2\x90>'
tRp9
s.