(dp1
S'C'
cnumpy.core.multiarray
scalar
p2
(cnumpy
dtype
p3
(S'f8'
I0
I1
tRp4
(I3
S'<'
NNNI-1
I-1
I0
tbS'\xf3\xaa[?I\xe8b@'
tRp5
sS'mse'
p6
g2
(g4
S"\xc4\x93>*'\xb5\x88@"
tRp7
sS'gamma'
p8
g2
(g4
S'\xdf\xca\xef@\xf9f\x8e>'
tRp9
s.