(dp1
S'C'
cnumpy.core.multiarray
scalar
p2
(cnumpy
dtype
p3
(S'f8'
I0
I1
tRp4
(I3
S'<'
NNNI-1
I-1
I0
tbS'9\xa83\xcd\xc5\xd2Y@'
tRp5
sS'mse'
p6
g2
(g4
S'\xe1\\:\x11d\xa9h?'
tRp7
sS'gamma'
p8
g2
(g4
S'Fa]\xf4\x8f6\xca?'
tRp9
s.