(dp1
S'C'
cnumpy.core.multiarray
scalar
p2
(cnumpy
dtype
p3
(S'f8'
I0
I1
tRp4
(I3
S'<'
NNNI-1
I-1
I0
tbS'(\xfe\xe7\xec\xce\x05\xca@'
tRp5
sS'mse'
p6
g2
(g4
S'\r3\xb0\xc1\x03\xfcp?'
tRp7
sS'gamma'
p8
g2
(g4
S'\xd4\x03\x97!s\xe5\xcc?'
tRp9
s.