(dp1
S'C'
cnumpy.core.multiarray
scalar
p2
(cnumpy
dtype
p3
(S'f8'
I0
I1
tRp4
(I3
S'<'
NNNI-1
I-1
I0
tbS't\x8dy\xbe`Oq@'
tRp5
sS'mse'
p6
g2
(g4
S'\xe6\xdf\xc6\x15\x15\xe2O@'
tRp7
sS'gamma'
p8
g2
(g4
S'\x9eS\xd4lS\x01\x02>'
tRp9
s.