(dp1
S'C'
cnumpy.core.multiarray
scalar
p2
(cnumpy
dtype
p3
(S'f8'
I0
I1
tRp4
(I3
S'<'
NNNI-1
I-1
I0
tbS'\x0e\xb8)`\x969\xd2@'
tRp5
sS'mse'
p6
g2
(g4
S'\xa3(\xa5P\xb2nm?'
tRp7
sS'gamma'
p8
g2
(g4
S'\x82\xe4\xd8\x1eZC\xcf?'
tRp9
s.