(dp1
S'C'
cnumpy.core.multiarray
scalar
p2
(cnumpy
dtype
p3
(S'f8'
I0
I1
tRp4
(I3
S'<'
NNNI-1
I-1
I0
tbS'\xdf>>qUK\x02A'
tRp5
sS'mse'
p6
g2
(g4
S'\x10\xde@\x9a\x81\x9br?'
tRp7
sS'gamma'
p8
g2
(g4
S'T\xa2\x7f\xdeh\xc5??'
tRp9
s.