(dp1
S'C'
cnumpy.core.multiarray
scalar
p2
(cnumpy
dtype
p3
(S'f8'
I0
I1
tRp4
(I3
S'<'
NNNI-1
I-1
I0
tbS'\x8c\x18\x015,D#A'
tRp5
sS'mse'
p6
g2
(g4
S'\xcdi\x7f?\xa6\x0e+@'
tRp7
sS'gamma'
p8
g2
(g4
S'\x0c\xd1\xca\x1fV\x17\xc8>'
tRp9
s.