(dp1
S'C'
cnumpy.core.multiarray
scalar
p2
(cnumpy
dtype
p3
(S'f8'
I0
I1
tRp4
(I3
S'<'
NNNI-1
I-1
I0
tbS'\xa2b\xcb\xbaq\xbd\x17A'
tRp5
sS'mse'
p6
g2
(g4
S'\xa1\x8e\x9cd\x01\xd4h?'
tRp7
sS'gamma'
p8
g2
(g4
S'r\xf9*d\x7f\n\xea>'
tRp9
s.