(dp1
S'C'
cnumpy.core.multiarray
scalar
p2
(cnumpy
dtype
p3
(S'f8'
I0
I1
tRp4
(I3
S'<'
NNNI-1
I-1
I0
tbS'\xf2\xc9\xfeJM\xe5\x12A'
tRp5
sS'mse'
p6
g2
(g4
S'N=\xdb\xb9?\x82+@'
tRp7
sS'gamma'
p8
g2
(g4
S'\x94M\xe1\xac\xcbZ\xd0>'
tRp9
s.