(dp1
S'C'
cnumpy.core.multiarray
scalar
p2
(cnumpy
dtype
p3
(S'f8'
I0
I1
tRp4
(I3
S'<'
NNNI-1
I-1
I0
tbS'4|\xa5c\x818\xfe@'
tRp5
sS'mse'
p6
g2
(g4
S'\x9b\xc69|\x14\x18\xa5?'
tRp7
sS'gamma'
p8
g2
(g4
S'L\xf8\xf6*R\xdc\xfe='
tRp9
s.