(dp1
S'C'
cnumpy.core.multiarray
scalar
p2
(cnumpy
dtype
p3
(S'f8'
I0
I1
tRp4
(I3
S'<'
NNNI-1
I-1
I0
tbS'LJ\xa2\xf6\x1f1\x1aA'
tRp5
sS'mse'
p6
g2
(g4
S'^\xdb\xf2\x857\xce0@'
tRp7
sS'gamma'
p8
g2
(g4
S'\xc4;x\xa1\xa6\x80$?'
tRp9
s.