(dp1
S'C'
cnumpy.core.multiarray
scalar
p2
(cnumpy
dtype
p3
(S'f8'
I0
I1
tRp4
(I3
S'<'
NNNI-1
I-1
I0
tbS'\xd4\x0f\xcbj\xbf\xf6!A'
tRp5
sS'mse'
p6
g2
(g4
S'm<X768\x80?'
tRp7
sS'gamma'
p8
g2
(g4
S'\x8e\xf8\xc90\xfe\xa2\x95?'
tRp9
s.