(dp0
S'mse_test'
p1
(lp2
cnumpy.core.multiarray
scalar
p3
(cnumpy
dtype
p4
(S'f8'
p5
I0
I1
tp6
Rp7
(I3
S'<'
p8
NNNI-1
I-1
I0
tp9
bS'\xa0\xab\xef1\xbaM\x80@'
p10
tp11
Rp12
ag3
(g7
S'\xef\xbb\x7f;\x8b\xa7\xae@'
p13
tp14
Rp15
ag3
(g7
S'J\xa1\x14J\xa1\xf4r@'
p16
tp17
Rp18
ag3
(g7
S'\xb4\x1e7\xa9\xc4\xbe\xb1@'
p19
tp20
Rp21
ag3
(g7
S'\x9a\xbd\xe1\xc7\x1a\rw@'
p22
tp23
Rp24
ag3
(g7
S'\x03\x92\xd9\x88\x90>S@'
p25
tp26
Rp27
ag3
(g7
S'\x8b\xe9qH.<\xb2@'
p28
tp29
Rp30
ag3
(g7
S'e\x8b}$\x7f-\x8a@'
p31
tp32
Rp33
ag3
(g7
S'gr&gr\x9eq@'
p34
tp35
Rp36
ag3
(g7
S'\x88\xa4\xbf\xb8\x1b\xd4\xb1@'
p37
tp38
Rp39
ag3
(g7
S'\xf6h\xa0\xfb\x83\xe5q@'
p40
tp41
Rp42
ag3
(g7
S'\xc3w\x8bc\r#w@'
p43
tp44
Rp45
ag3
(g7
S'\xd92H\xb2q\xe5\xa0@'
p46
tp47
Rp48
ag3
(g7
S"s\xe1\x912'\xeb\xa0@"
p49
tp50
Rp51
ag3
(g7
S'\r\xd7p\r\xd7(s@'
p52
tp53
Rp54
ag3
(g7
S'\xa5\xffGD\xc1+t@'
p55
tp56
Rp57
ag3
(g7
S'%\xccCj\x87\r\x9e@'
p58
tp59
Rp60
ag3
(g7
S'&\xcf\xa22S\x1c\x99@'
p61
tp62
Rp63
ag3
(g7
S'Wn\xe5VnMw@'
p64
tp65
Rp66
ag3
(g7
S'\x85\xd6\xf7?\xfd\xf2\xb0@'
p67
tp68
Rp69
asS'mse_train'
p70
(lp71
cnumpy.core.multiarray
_reconstruct
p72
(cnumpy
ndarray
p73
(I0
tp74
S'b'
p75
tp76
Rp77
(I1
(I1
tp78
g7
I00
S'\x10uC\xecR\xab\x82@'
p79
tp80
bag72
(g73
(I0
tp81
g75
tp82
Rp83
(I1
(I1
tp84
g7
I00
S'\xce_\xear\xb0\x0e\xaf@'
p85
tp86
bag72
(g73
(I0
tp87
g75
tp88
Rp89
(I1
(I1
tp90
g7
I00
S'\x80\xe9\x9f\x05\x98\xb6u@'
p91
tp92
bag72
(g73
(I0
tp93
g75
tp94
Rp95
(I1
(I1
tp96
g7
I00
S'\xb3\xb4y.\xb6\xbd\xb1@'
p97
tp98
bag72
(g73
(I0
tp99
g75
tp100
Rp101
(I1
(I1
tp102
g7
I00
S' K\xa2\x7f\x9a\x88r@'
p103
tp104
bag72
(g73
(I0
tp105
g75
tp106
Rp107
(I1
(I1
tp108
g7
I00
S',2:\xe6<4S@'
p109
tp110
bag72
(g73
(I0
tp111
g75
tp112
Rp113
(I1
(I1
tp114
g7
I00
S'\xb5\x0f\x1fC\xa5\xb1\xb2@'
p115
tp116
bag72
(g73
(I0
tp117
g75
tp118
Rp119
(I1
(I1
tp120
g7
I00
S'\xc9\x89\x82\xda\x9e\xf1\x87@'
p121
tp122
bag72
(g73
(I0
tp123
g75
tp124
Rp125
(I1
(I1
tp126
g7
I00
S'\xb8\x15\x92z[!v@'
p127
tp128
bag72
(g73
(I0
tp129
g75
tp130
Rp131
(I1
(I1
tp132
g7
I00
S'\xacV{0\xda\xf9\xb1@'
p133
tp134
bag72
(g73
(I0
tp135
g75
tp136
Rp137
(I1
(I1
tp138
g7
I00
S'\xa0\xfb\xef\xa9R\xfcr@'
p139
tp140
bag72
(g73
(I0
tp141
g75
tp142
Rp143
(I1
(I1
tp144
g7
I00
S'\xf0\xf5\xd3L\xe9*u@'
p145
tp146
bag72
(g73
(I0
tp147
g75
tp148
Rp149
(I1
(I1
tp150
g7
I00
S'\xe1\xe7\xccg\xb2)\xa2@'
p151
tp152
bag72
(g73
(I0
tp153
g75
tp154
Rp155
(I1
(I1
tp156
g7
I00
S'm3\xdb\xa7\xecY\xa2@'
p157
tp158
bag72
(g73
(I0
tp159
g75
tp160
Rp161
(I1
(I1
tp162
g7
I00
S'\xba\x98\xd1\x99\x8b\xa9u@'
p163
tp164
bag72
(g73
(I0
tp165
g75
tp166
Rp167
(I1
(I1
tp168
g7
I00
S'+?\xa2\xf2\xcf)t@'
p169
tp170
bag72
(g73
(I0
tp171
g75
tp172
Rp173
(I1
(I1
tp174
g7
I00
S'\xc9\xbe\xe6\xeb$U\x9d@'
p175
tp176
bag72
(g73
(I0
tp177
g75
tp178
Rp179
(I1
(I1
tp180
g7
I00
S'\xcaJ\x05\xda1\xf8\x99@'
p181
tp182
bag72
(g73
(I0
tp183
g75
tp184
Rp185
(I1
(I1
tp186
g7
I00
S'\xb73\x12s;\xb3t@'
p187
tp188
bag72
(g73
(I0
tp189
g75
tp190
Rp191
(I1
(I1
tp192
g7
I00
S'\x87\xb3\x17\xbd\xab!\xb2@'
p193
tp194
basS'size'
p195
(lp196
I17
aI17
aI17
aI17
aI17
aI17
aI6
aI17
aI16
aI12
aI17
aI16
aI16
aI17
aI16
aI17
aI16
aI15
aI17
aI15
as.