(dp0
S'mse_test'
p1
(lp2
cnumpy.core.multiarray
scalar
p3
(cnumpy
dtype
p4
(S'f8'
p5
I0
I1
tp6
Rp7
(I3
S'<'
p8
NNNI-1
I-1
I0
tp9
bS'_z\x1f\x9eAJ\x87@'
p10
tp11
Rp12
ag3
(g7
S'Sf\xc7\x19\xb2O\x8c@'
p13
tp14
Rp15
ag3
(g7
S'\xaf\t\xfa\x96\x15\xe2\x87@'
p16
tp17
Rp18
ag3
(g7
S'\xe6\x96\xfa\xe0\xfe\xf8\x8a@'
p19
tp20
Rp21
ag3
(g7
S'M\x13+\xaaU]\x86@'
p22
tp23
Rp24
ag3
(g7
S'\x8d\xaf^\x91\xbe^\x87@'
p25
tp26
Rp27
ag3
(g7
S'\xe1\xc6\xb8\x17\x99\xe2\x86@'
p28
tp29
Rp30
ag3
(g7
S'\xa4:\x07&C\xad\x87@'
p31
tp32
Rp33
ag3
(g7
S'P\xcb\x859#R\x82@'
p34
tp35
Rp36
ag3
(g7
S'M\x91\xb0\xf6\x9a\xfb\x89@'
p37
tp38
Rp39
ag3
(g7
S'\x8dN\xa2EEyj@'
p40
tp41
Rp42
ag3
(g7
S'\x1e\x98{\x96\x07\xbbp@'
p43
tp44
Rp45
ag3
(g7
S'y0e\xa7\xd0]\x84@'
p46
tp47
Rp48
ag3
(g7
S'\xc4\x07\xd4\xf2\xa7\xe9\x88@'
p49
tp50
Rp51
ag3
(g7
S'\xd1?\x8e\xb6\x80f\x88@'
p52
tp53
Rp54
ag3
(g7
S'\xecV\xe9\xe5\xde}\x83@'
p55
tp56
Rp57
ag3
(g7
S'\x9fE\xf3h\x93\x0ep@'
p58
tp59
Rp60
ag3
(g7
S'\xe8\xf9\xbdx\x18\x99\x85@'
p61
tp62
Rp63
ag3
(g7
S'\x88\x94\x7f\xa8\x9cV\x88@'
p64
tp65
Rp66
ag3
(g7
S"\xe8K\xc7y\x9e'\x88@"
p67
tp68
Rp69
asS'mse_train'
p70
(lp71
cnumpy.core.multiarray
_reconstruct
p72
(cnumpy
ndarray
p73
(I0
tp74
S'b'
p75
tp76
Rp77
(I1
(I1
tp78
g7
I00
S'\x99\xcb\xb7\x97O\xef\x86@'
p79
tp80
bag72
(g73
(I0
tp81
g75
tp82
Rp83
(I1
(I1
tp84
g7
I00
S'\xae\xba*\xccq\x0f\x8a@'
p85
tp86
bag72
(g73
(I0
tp87
g75
tp88
Rp89
(I1
(I1
tp90
g7
I00
S'%\\\xb3X\xa76\x89@'
p91
tp92
bag72
(g73
(I0
tp93
g75
tp94
Rp95
(I1
(I1
tp96
g7
I00
S'\xff\x01\x19\x11\xb2\xad\x8d@'
p97
tp98
bag72
(g73
(I0
tp99
g75
tp100
Rp101
(I1
(I1
tp102
g7
I00
S'\x0c\xe1"\xd77\xb0\x86@'
p103
tp104
bag72
(g73
(I0
tp105
g75
tp106
Rp107
(I1
(I1
tp108
g7
I00
S's\xdc(\x0e=\xc1\x88@'
p109
tp110
bag72
(g73
(I0
tp111
g75
tp112
Rp113
(I1
(I1
tp114
g7
I00
S'\xd1\r\x97\xac.z\x88@'
p115
tp116
bag72
(g73
(I0
tp117
g75
tp118
Rp119
(I1
(I1
tp120
g7
I00
S' \xa4\xcf$\xc9\x06\x89@'
p121
tp122
bag72
(g73
(I0
tp123
g75
tp124
Rp125
(I1
(I1
tp126
g7
I00
S'%j\xddr\x84\xcd\x81@'
p127
tp128
bag72
(g73
(I0
tp129
g75
tp130
Rp131
(I1
(I1
tp132
g7
I00
S'\x86\xe1\xfc\xf9.*\x8d@'
p133
tp134
bag72
(g73
(I0
tp135
g75
tp136
Rp137
(I1
(I1
tp138
g7
I00
S'%\x8b^\xb9{\xe0k@'
p139
tp140
bag72
(g73
(I0
tp141
g75
tp142
Rp143
(I1
(I1
tp144
g7
I00
S'\xebi\xc2\xc9\xc8wp@'
p145
tp146
bag72
(g73
(I0
tp147
g75
tp148
Rp149
(I1
(I1
tp150
g7
I00
S'\x88l\x1f\xcc_2\x86@'
p151
tp152
bag72
(g73
(I0
tp153
g75
tp154
Rp155
(I1
(I1
tp156
g7
I00
S' z&\x04\x84\x0b\x89@'
p157
tp158
bag72
(g73
(I0
tp159
g75
tp160
Rp161
(I1
(I1
tp162
g7
I00
S"\xe5\xe3#'\x13b\x87@"
p163
tp164
bag72
(g73
(I0
tp165
g75
tp166
Rp167
(I1
(I1
tp168
g7
I00
S'4W\x10.\x8d\xa8\x86@'
p169
tp170
bag72
(g73
(I0
tp171
g75
tp172
Rp173
(I1
(I1
tp174
g7
I00
S'm\xca\xf2\x01-kq@'
p175
tp176
bag72
(g73
(I0
tp177
g75
tp178
Rp179
(I1
(I1
tp180
g7
I00
S'6\xa5\x84\x14s\xb1\x85@'
p181
tp182
bag72
(g73
(I0
tp183
g75
tp184
Rp185
(I1
(I1
tp186
g7
I00
S'\xd8$j\xd0\x14\x8f\x86@'
p187
tp188
bag72
(g73
(I0
tp189
g75
tp190
Rp191
(I1
(I1
tp192
g7
I00
S'\xb1"%;;\xd6\x88@'
p193
tp194
basS'size'
p195
(lp196
I16
aI17
aI17
aI17
aI17
aI14
aI17
aI17
aI16
aI16
aI16
aI17
aI17
aI17
aI17
aI15
aI17
aI16
aI16
aI17
as.