(dp0
S'mse_test'
p1
(lp2
cnumpy.core.multiarray
scalar
p3
(cnumpy
dtype
p4
(S'f8'
p5
I0
I1
tp6
Rp7
(I3
S'<'
p8
NNNI-1
I-1
I0
tp9
bS'C\xa9H\xc6\x9f\xad2@'
p10
tp11
Rp12
ag3
(g7
S'Q\xe5_\x0b\x1c\xa3!@'
p13
tp14
Rp15
ag3
(g7
S'\xb6#g<\xea\x95-@'
p16
tp17
Rp18
ag3
(g7
S'\xc6\xb3\xff"l\t#@'
p19
tp20
Rp21
ag3
(g7
S"\x18\xd2\xee\x90?\x9f'@"
p22
tp23
Rp24
ag3
(g7
S'\x19X\x87K\xdd\xda&@'
p25
tp26
Rp27
ag3
(g7
S'5\x04{D]\xc2&@'
p28
tp29
Rp30
ag3
(g7
S'\xcby?\xa42\xc9&@'
p31
tp32
Rp33
ag3
(g7
S'\xd1\xb6\xb8F\xbd\xc9$@'
p34
tp35
Rp36
ag3
(g7
S'\\\t\xce\x8c\xbaw#@'
p37
tp38
Rp39
ag3
(g7
S'\x0f\x02x\xef\x18}4@'
p40
tp41
Rp42
ag3
(g7
S'\x00\xcd\x0b\xfc\x19\xbe!@'
p43
tp44
Rp45
ag3
(g7
S'\xdf48\xca\xe8|0@'
p46
tp47
Rp48
ag3
(g7
S'\xe4\xca\xe4\xa2\xc8^)@'
p49
tp50
Rp51
ag3
(g7
S'\xf7\xf0\xe8}\xb8\xcb$@'
p52
tp53
Rp54
ag3
(g7
S's\xbe\x06H.\x80#@'
p55
tp56
Rp57
ag3
(g7
S'nb\xce\xe1\xc5=0@'
p58
tp59
Rp60
ag3
(g7
S'\rAs#.b3@'
p61
tp62
Rp63
ag3
(g7
S'\xa1\x19b\xf51\xe4%@'
p64
tp65
Rp66
ag3
(g7
S'\xb8\xccO \x1e\xe7&@'
p67
tp68
Rp69
asS'mse_train'
p70
(lp71
cnumpy.core.multiarray
_reconstruct
p72
(cnumpy
ndarray
p73
(I0
tp74
S'b'
p75
tp76
Rp77
(I1
(I1
tp78
g7
I00
S'\x04QMr8\xdf|@'
p79
tp80
bag72
(g73
(I0
tp81
g75
tp82
Rp83
(I1
(I1
tp84
g7
I00
S'\xadP\xcaI\xa5\xb6b@'
p85
tp86
bag72
(g73
(I0
tp87
g75
tp88
Rp89
(I1
(I1
tp90
g7
I00
S'9\xe0Q\xd2_\x12\xbb@'
p91
tp92
bag72
(g73
(I0
tp93
g75
tp94
Rp95
(I1
(I1
tp96
g7
I00
S'\x87\xfa\xcb\x0c+\x87M@'
p97
tp98
bag72
(g73
(I0
tp99
g75
tp100
Rp101
(I1
(I1
tp102
g7
I00
S'\xc9\xb42\x11%\x89X@'
p103
tp104
bag72
(g73
(I0
tp105
g75
tp106
Rp107
(I1
(I1
tp108
g7
I00
S'`<S\x85\t\xe3\xa0@'
p109
tp110
bag72
(g73
(I0
tp111
g75
tp112
Rp113
(I1
(I1
tp114
g7
I00
S'4b\x9c\x0eYE<@'
p115
tp116
bag72
(g73
(I0
tp117
g75
tp118
Rp119
(I1
(I1
tp120
g7
I00
S'8\xa4jQ}\xf8u@'
p121
tp122
bag72
(g73
(I0
tp123
g75
tp124
Rp125
(I1
(I1
tp126
g7
I00
S'-%\xe2\xdb\x1c\xc8\x8a@'
p127
tp128
bag72
(g73
(I0
tp129
g75
tp130
Rp131
(I1
(I1
tp132
g7
I00
S'\xd8a\xc3 \xf4\xc95@'
p133
tp134
bag72
(g73
(I0
tp135
g75
tp136
Rp137
(I1
(I1
tp138
g7
I00
S'4\xa9\xa8\xeddX\\@'
p139
tp140
bag72
(g73
(I0
tp141
g75
tp142
Rp143
(I1
(I1
tp144
g7
I00
S'\xbc\x90r\x7f\xf9\xe5:@'
p145
tp146
bag72
(g73
(I0
tp147
g75
tp148
Rp149
(I1
(I1
tp150
g7
I00
S'\x99\xde\x7fkZ,U@'
p151
tp152
bag72
(g73
(I0
tp153
g75
tp154
Rp155
(I1
(I1
tp156
g7
I00
S'\x99\xe8$\x1aT\xab8@'
p157
tp158
bag72
(g73
(I0
tp159
g75
tp160
Rp161
(I1
(I1
tp162
g7
I00
S'\x04\xff\x81D\x14\xba3@'
p163
tp164
bag72
(g73
(I0
tp165
g75
tp166
Rp167
(I1
(I1
tp168
g7
I00
S'\xff\xf8\xf5\x9e\x81K\xdf@'
p169
tp170
bag72
(g73
(I0
tp171
g75
tp172
Rp173
(I1
(I1
tp174
g7
I00
S'q\xc5l`\x93QG@'
p175
tp176
bag72
(g73
(I0
tp177
g75
tp178
Rp179
(I1
(I1
tp180
g7
I00
S')i\xca\xfdTOH@'
p181
tp182
bag72
(g73
(I0
tp183
g75
tp184
Rp185
(I1
(I1
tp186
g7
I00
S'\xeb\x82%?\x16\xc9A@'
p187
tp188
bag72
(g73
(I0
tp189
g75
tp190
Rp191
(I1
(I1
tp192
g7
I00
S'\xe2^\xee\x06\x1d=b@'
p193
tp194
basS'size'
p195
(lp196
I135
aI170
aI169
aI134
aI262
aI167
aI211
aI311
aI207
aI142
aI214
aI234
aI204
aI260
aI198
aI244
aI109
aI182
aI144
aI205
as.