(dp0
S'mse_test'
p1
(lp2
cnumpy.core.multiarray
scalar
p3
(cnumpy
dtype
p4
(S'f8'
p5
I0
I1
tp6
Rp7
(I3
S'<'
p8
NNNI-1
I-1
I0
tp9
bS'[scP,uC@'
p10
tp11
Rp12
asS'mse_train'
p13
(lp14
cnumpy.core.multiarray
_reconstruct
p15
(cnumpy
ndarray
p16
(I0
tp17
S'b'
p18
tp19
Rp20
(I1
(I1
tp21
g7
I00
S'Ri\x12\x11\x85\x18<@'
p22
tp23
basS'size'
p24
(lp25
I37
as.