(dp0
S'mse_test'
p1
(lp2
cnumpy.core.multiarray
scalar
p3
(cnumpy
dtype
p4
(S'f4'
p5
I0
I1
tp6
Rp7
(I3
S'<'
p8
NNNI-1
I-1
I0
tp9
bS'V\xe7\xa6:'
p10
tp11
Rp12
ag3
(g7
S'}\xff\x0f;'
p13
tp14
Rp15
ag3
(g7
S'`\xd2\xb3:'
p16
tp17
Rp18
ag3
(g7
S'0H;:'
p19
tp20
Rp21
ag3
(g7
S'w\xf3\x03;'
p22
tp23
Rp24
ag3
(g7
S'\xc0D\x0f;'
p25
tp26
Rp27
ag3
(g7
S'\xa1\x9c\t:'
p28
tp29
Rp30
ag3
(g7
S'[\x9e\x92:'
p31
tp32
Rp33
ag3
(g7
S'\xaf\xf9y:'
p34
tp35
Rp36
ag3
(g7
S'\xf3A::'
p37
tp38
Rp39
ag3
(g7
S'&\xf1\xad:'
p40
tp41
Rp42
ag3
(g7
S'3\x14\xf68'
p43
tp44
Rp45
ag3
(g7
S',\x19A:'
p46
tp47
Rp48
ag3
(g7
S'b\xaeI9'
p49
tp50
Rp51
ag3
(g7
S'\x003\x8f:'
p52
tp53
Rp54
ag3
(g7
S'\x92\xbd\n:'
p55
tp56
Rp57
ag3
(g7
S'w#Q:'
p58
tp59
Rp60
ag3
(g7
S'\xdd=\x08:'
p61
tp62
Rp63
ag3
(g7
S'<^\xbb8'
p64
tp65
Rp66
ag3
(g7
S'\xcf\xb1\x88:'
p67
tp68
Rp69
asS'mse_train'
p70
(lp71
g3
(g7
S"'\xf9\xe5:"
p72
tp73
Rp74
ag3
(g7
S'lA\r;'
p75
tp76
Rp77
ag3
(g7
S'\xc38\xc0:'
p78
tp79
Rp80
ag3
(g7
S'\x08\xeb4:'
p81
tp82
Rp83
ag3
(g7
S'\n\xee\xe9:'
p84
tp85
Rp86
ag3
(g7
S'\xf6N\xea:'
p87
tp88
Rp89
ag3
(g7
S'6\xab\x08:'
p90
tp91
Rp92
ag3
(g7
S'\x86F\r:'
p93
tp94
Rp95
ag3
(g7
S'Y0\xdf9'
p96
tp97
Rp98
ag3
(g7
S'\xc6\x13^:'
p99
tp100
Rp101
ag3
(g7
S'5\x8d\xa6:'
p102
tp103
Rp104
ag3
(g7
S'G\xb2I9'
p105
tp106
Rp107
ag3
(g7
S'3\xcc\x879'
p108
tp109
Rp110
ag3
(g7
S'\xe5\xec`9'
p111
tp112
Rp113
ag3
(g7
S'\x0c`\x8a:'
p114
tp115
Rp116
ag3
(g7
S'\xf4\x85\xd29'
p117
tp118
Rp119
ag3
(g7
S"\x96'F:"
p120
tp121
Rp122
ag3
(g7
S'\xfeh\xea9'
p123
tp124
Rp125
ag3
(g7
S'[|\x039'
p126
tp127
Rp128
ag3
(g7
S'\n\x92\x80:'
p129
tp130
Rp131
as.