(dp0
S'mse_test'
p1
(lp2
cnumpy.core.multiarray
scalar
p3
(cnumpy
dtype
p4
(S'f8'
p5
I0
I1
tp6
Rp7
(I3
S'<'
p8
NNNI-1
I-1
I0
tp9
bS'\x8f\xcd\x9fFV\xf3g@'
p10
tp11
Rp12
ag3
(g7
S'\xe3\xc2\xcf\xb8zc`@'
p13
tp14
Rp15
ag3
(g7
S'\xf5\xd7\x11p\xc7kp@'
p16
tp17
Rp18
ag3
(g7
S'\x8d|\x0f\x1c\xab\xd8i@'
p19
tp20
Rp21
ag3
(g7
S'\xb10d\xcdyta@'
p22
tp23
Rp24
ag3
(g7
S'\xf7\x92C\xfa\xbe\xbed@'
p25
tp26
Rp27
ag3
(g7
S'`\xb8z\xc2,\x1dh@'
p28
tp29
Rp30
ag3
(g7
S'\xb1\x12p\x93\x1d\xe7g@'
p31
tp32
Rp33
ag3
(g7
S'd\x9dD\x1a\x03\x8ca@'
p34
tp35
Rp36
ag3
(g7
S'\xcc\xfdQ\xfd,<V@'
p37
tp38
Rp39
ag3
(g7
S'\x07\x89\x97qy\xd0\x83@'
p40
tp41
Rp42
ag3
(g7
S'\xcd\xad\xa4\x01\xb5|r@'
p43
tp44
Rp45
ag3
(g7
S'j\xbd\x9a\xaf\x86wd@'
p46
tp47
Rp48
ag3
(g7
S'E\x1bH\xd8\xbc\xb6]@'
p49
tp50
Rp51
ag3
(g7
S'g\xa7y\x07i\x00g@'
p52
tp53
Rp54
ag3
(g7
S'\xab\xc2f\x93\x1diC@'
p55
tp56
Rp57
ag3
(g7
S'%@},\xd7\x85[@'
p58
tp59
Rp60
ag3
(g7
S'B\x08c\xf62\xfbs@'
p61
tp62
Rp63
ag3
(g7
S'\x04r\x92\\\x9a|k@'
p64
tp65
Rp66
ag3
(g7
S'\x14k3\xca"\ro@'
p67
tp68
Rp69
asS'mse_train'
p70
(lp71
cnumpy.core.multiarray
_reconstruct
p72
(cnumpy
ndarray
p73
(I0
tp74
S'b'
p75
tp76
Rp77
(I1
(I1
tp78
g7
I00
S'\x13\x12\x13\x15\xdc\xc4\xb2@'
p79
tp80
bag72
(g73
(I0
tp81
g75
tp82
Rp83
(I1
(I1
tp84
g7
I00
S'\x8d\x81T\xd9i\x02\xc9@'
p85
tp86
bag72
(g73
(I0
tp87
g75
tp88
Rp89
(I1
(I1
tp90
g7
I00
S'>~\xfb\xfc\x01\x9f\xac@'
p91
tp92
bag72
(g73
(I0
tp93
g75
tp94
Rp95
(I1
(I1
tp96
g7
I00
S'\x15*\xfdy\x1ae\xa3@'
p97
tp98
bag72
(g73
(I0
tp99
g75
tp100
Rp101
(I1
(I1
tp102
g7
I00
S'\xaadk\x1c\xa7P\xa6@'
p103
tp104
bag72
(g73
(I0
tp105
g75
tp106
Rp107
(I1
(I1
tp108
g7
I00
S'\xcb\xb2tz|c\xd5@'
p109
tp110
bag72
(g73
(I0
tp111
g75
tp112
Rp113
(I1
(I1
tp114
g7
I00
S"\x84a'\xf6^\x9d\x06A"
p115
tp116
bag72
(g73
(I0
tp117
g75
tp118
Rp119
(I1
(I1
tp120
g7
I00
S'N\xc9\xeb\x15\x7f3\xa1@'
p121
tp122
bag72
(g73
(I0
tp123
g75
tp124
Rp125
(I1
(I1
tp126
g7
I00
S'\xffj\xa1s\n7\xa3@'
p127
tp128
bag72
(g73
(I0
tp129
g75
tp130
Rp131
(I1
(I1
tp132
g7
I00
S'\x7f\xa7&\x85\x0c\xbe\xa7@'
p133
tp134
bag72
(g73
(I0
tp135
g75
tp136
Rp137
(I1
(I1
tp138
g7
I00
S'\xba\xaa\x94\r\xd4u\xe3@'
p139
tp140
bag72
(g73
(I0
tp141
g75
tp142
Rp143
(I1
(I1
tp144
g7
I00
S'\xe8\x83\xfc\xfb\x82\xe0\x08A'
p145
tp146
bag72
(g73
(I0
tp147
g75
tp148
Rp149
(I1
(I1
tp150
g7
I00
S'\xb8\x96E\x84\x15K\xa3@'
p151
tp152
bag72
(g73
(I0
tp153
g75
tp154
Rp155
(I1
(I1
tp156
g7
I00
S'S\x19\x83Hl6\xd5@'
p157
tp158
bag72
(g73
(I0
tp159
g75
tp160
Rp161
(I1
(I1
tp162
g7
I00
S'\x04E6\xc0]1\xe0@'
p163
tp164
bag72
(g73
(I0
tp165
g75
tp166
Rp167
(I1
(I1
tp168
g7
I00
S'V\xb4D\x821\xa1\xbe@'
p169
tp170
bag72
(g73
(I0
tp171
g75
tp172
Rp173
(I1
(I1
tp174
g7
I00
S'\xbeZLy\xfc*@A'
p175
tp176
bag72
(g73
(I0
tp177
g75
tp178
Rp179
(I1
(I1
tp180
g7
I00
S'\x92\x16\x89+\x08\xc0\x99@'
p181
tp182
bag72
(g73
(I0
tp183
g75
tp184
Rp185
(I1
(I1
tp186
g7
I00
S'\x90g\x06W\x8do\xe4@'
p187
tp188
bag72
(g73
(I0
tp189
g75
tp190
Rp191
(I1
(I1
tp192
g7
I00
S'\x8e\xdf cw?\xe1@'
p193
tp194
basS'size'
p195
(lp196
I842
aI926
aI627
aI594
aI1027
aI698
aI800
aI874
aI688
aI1553
aI301
aI310
aI728
aI679
aI497
aI1267
aI814
aI590
aI1180
aI396
as.