(dp0
S'mse_test'
p1
(lp2
cnumpy.core.multiarray
scalar
p3
(cnumpy
dtype
p4
(S'f8'
p5
I0
I1
tp6
Rp7
(I3
S'<'
p8
NNNI-1
I-1
I0
tp9
bS'\xaeo\xd9\x1b\x97\x83\x87@'
p10
tp11
Rp12
ag3
(g7
S'x\x83/\xb0e\x9e\x8f@'
p13
tp14
Rp15
ag3
(g7
S'Yl\x8f2\xca\x05\x83@'
p16
tp17
Rp18
ag3
(g7
S'\xd4Q`\x03\x07\x1a\x88@'
p19
tp20
Rp21
ag3
(g7
S'\xc4L\x85L_b\x88@'
p22
tp23
Rp24
ag3
(g7
S'uX\xaf\xb7\x05;\x8f@'
p25
tp26
Rp27
ag3
(g7
S'\xaa\n\x80l\xe5\xc2\x8b@'
p28
tp29
Rp30
ag3
(g7
S'l\xd7\xfddP\xae\x84@'
p31
tp32
Rp33
ag3
(g7
S'2\xff\x9b\xe6-\x9f\x88@'
p34
tp35
Rp36
ag3
(g7
S'\t=\xa4m\x98\xd7\x84@'
p37
tp38
Rp39
ag3
(g7
S'\xb6\x9a\xf7\x1a\x91F\x8d@'
p40
tp41
Rp42
ag3
(g7
S'\x98#Yr\x83*\x88@'
p43
tp44
Rp45
ag3
(g7
S'\x03$a\xfbM<\x87@'
p46
tp47
Rp48
ag3
(g7
S'\xef\x8a\x89Z\xd5\xb7\x89@'
p49
tp50
Rp51
ag3
(g7
S'c\x14\x02c\t\x1d\x82@'
p52
tp53
Rp54
ag3
(g7
S'\xfaMCu\xf9\x9f\x82@'
p55
tp56
Rp57
ag3
(g7
S'\x9e\x16g\x16\xe1\xe0\x8c@'
p58
tp59
Rp60
ag3
(g7
S'\x8c&B\xc2\x11\x93\x87@'
p61
tp62
Rp63
ag3
(g7
S'\x02"\xe6\xba0\x80\x8e@'
p64
tp65
Rp66
ag3
(g7
S']:,\xa5\xeaR\x8a@'
p67
tp68
Rp69
asS'mse_train'
p70
(lp71
cnumpy.core.multiarray
_reconstruct
p72
(cnumpy
ndarray
p73
(I0
tp74
S'b'
p75
tp76
Rp77
(I1
(I1
tp78
g7
I00
S'\xbb\xba\x02\xe0e\x16\x87@'
p79
tp80
bag72
(g73
(I0
tp81
g75
tp82
Rp83
(I1
(I1
tp84
g7
I00
S'\xd8\xa2e\x84\x08\x99\x8d@'
p85
tp86
bag72
(g73
(I0
tp87
g75
tp88
Rp89
(I1
(I1
tp90
g7
I00
S'\xad\x92`\xd5!\xff\x84@'
p91
tp92
bag72
(g73
(I0
tp93
g75
tp94
Rp95
(I1
(I1
tp96
g7
I00
S'X\x9f\x82\x9fO?\x8a@'
p97
tp98
bag72
(g73
(I0
tp99
g75
tp100
Rp101
(I1
(I1
tp102
g7
I00
S'Y.ch\x88\xa4\x89@'
p103
tp104
bag72
(g73
(I0
tp105
g75
tp106
Rp107
(I1
(I1
tp108
g7
I00
S'\x8dy\xfaL\x02\x1c\x8e@'
p109
tp110
bag72
(g73
(I0
tp111
g75
tp112
Rp113
(I1
(I1
tp114
g7
I00
S'\x8e0\xde\xad\xb5\xe5\x8d@'
p115
tp116
bag72
(g73
(I0
tp117
g75
tp118
Rp119
(I1
(I1
tp120
g7
I00
S'\xc9y\xf0<e\xd5\x85@'
p121
tp122
bag72
(g73
(I0
tp123
g75
tp124
Rp125
(I1
(I1
tp126
g7
I00
S'\x9b\x85R\x96\xf5\xf2\x87@'
p127
tp128
bag72
(g73
(I0
tp129
g75
tp130
Rp131
(I1
(I1
tp132
g7
I00
S'\xc7\x7f\xd8\xf7ff\x85@'
p133
tp134
bag72
(g73
(I0
tp135
g75
tp136
Rp137
(I1
(I1
tp138
g7
I00
S'\x02\x95\n{\xc3C\x8e@'
p139
tp140
bag72
(g73
(I0
tp141
g75
tp142
Rp143
(I1
(I1
tp144
g7
I00
S']\x07\x95mk\xc9\x88@'
p145
tp146
bag72
(g73
(I0
tp147
g75
tp148
Rp149
(I1
(I1
tp150
g7
I00
S'\xb5\xf3\xf8Q\xa8\x14\x88@'
p151
tp152
bag72
(g73
(I0
tp153
g75
tp154
Rp155
(I1
(I1
tp156
g7
I00
S'p\xd0\xde\x1a\xa4\xd0\x89@'
p157
tp158
bag72
(g73
(I0
tp159
g75
tp160
Rp161
(I1
(I1
tp162
g7
I00
S'\xadk\xc8\xb7\x1dh\x86@'
p163
tp164
bag72
(g73
(I0
tp165
g75
tp166
Rp167
(I1
(I1
tp168
g7
I00
S"\xb1\xb3\x9fJ'\xf3\x84@"
p169
tp170
bag72
(g73
(I0
tp171
g75
tp172
Rp173
(I1
(I1
tp174
g7
I00
S'\xf8|\x02.\x95I\x8e@'
p175
tp176
bag72
(g73
(I0
tp177
g75
tp178
Rp179
(I1
(I1
tp180
g7
I00
S'\xcez\x17\xce\x0cW\x87@'
p181
tp182
bag72
(g73
(I0
tp183
g75
tp184
Rp185
(I1
(I1
tp186
g7
I00
S'(\xe1)\xf8\xf1\x02\x8e@'
p187
tp188
bag72
(g73
(I0
tp189
g75
tp190
Rp191
(I1
(I1
tp192
g7
I00
S'\xc7O5\xb4\x17}\x8a@'
p193
tp194
basS'size'
p195
(lp196
I17
aI17
aI17
aI17
aI16
aI16
aI14
aI16
aI17
aI16
aI17
aI17
aI17
aI17
aI17
aI17
aI17
aI17
aI16
aI17
as.