(dp0
S'mse_test'
p1
(lp2
cnumpy.core.multiarray
scalar
p3
(cnumpy
dtype
p4
(S'f8'
p5
I0
I1
tp6
Rp7
(I3
S'<'
p8
NNNI-1
I-1
I0
tp9
bS'Q6\xf3\x87\xe9\xe0\x88@'
p10
tp11
Rp12
ag3
(g7
S'&\xdb\xa9\xe3\x14{\x87@'
p13
tp14
Rp15
ag3
(g7
S'\xeb\xf8\x13\xa2\x11\xb1\x89@'
p16
tp17
Rp18
ag3
(g7
S'EZ\xbe\xe1a\x99\x8d@'
p19
tp20
Rp21
ag3
(g7
S' \x1a\x90\x0f/\x90\x8d@'
p22
tp23
Rp24
ag3
(g7
S'=J{\x02h\xca\x88@'
p25
tp26
Rp27
ag3
(g7
S'rz\xda\xba\xeb\xf6\x8c@'
p28
tp29
Rp30
ag3
(g7
S'\xa8\xce\xe6\x13x\xd7\x88@'
p31
tp32
Rp33
ag3
(g7
S'7\x9f\x9b\x14\xc8\x16\x90@'
p34
tp35
Rp36
ag3
(g7
S'\x95(\x939t`\x8a@'
p37
tp38
Rp39
ag3
(g7
S'\x05=\xfc6\x94v\x8f@'
p40
tp41
Rp42
ag3
(g7
S'0\xc0\xb9 )\x05\x8e@'
p43
tp44
Rp45
ag3
(g7
S'\x82\xd6Cp\x8b\xc9\x88@'
p46
tp47
Rp48
ag3
(g7
S'\x0e\x1c;\x86E@\x90@'
p49
tp50
Rp51
ag3
(g7
S'ajk\xad\xb1\xb0\x8d@'
p52
tp53
Rp54
ag3
(g7
S'q/a\x02\xf3\x18\x86@'
p55
tp56
Rp57
ag3
(g7
S'\x8e\rg1!\xfd\x86@'
p58
tp59
Rp60
ag3
(g7
S'\x0b\x01\x1a\xff\r*\x8a@'
p61
tp62
Rp63
ag3
(g7
S'\x8c\x9byE\xb6\xe4\x8f@'
p64
tp65
Rp66
ag3
(g7
S"\xaa'\xdf\xa8B\xc7\x87@"
p67
tp68
Rp69
asS'mse_train'
p70
(lp71
cnumpy.core.multiarray
_reconstruct
p72
(cnumpy
ndarray
p73
(I0
tp74
S'b'
p75
tp76
Rp77
(I1
(I1
tp78
g7
I00
S'\xda\x9aEU~"\x8e@'
p79
tp80
bag72
(g73
(I0
tp81
g75
tp82
Rp83
(I1
(I1
tp84
g7
I00
S'\xff\x02S\xfbQy\xa2@'
p85
tp86
bag72
(g73
(I0
tp87
g75
tp88
Rp89
(I1
(I1
tp90
g7
I00
S'\xadd\xa0\xdb\x92|\x90@'
p91
tp92
bag72
(g73
(I0
tp93
g75
tp94
Rp95
(I1
(I1
tp96
g7
I00
S'>`\x96\xddrb\xa0@'
p97
tp98
bag72
(g73
(I0
tp99
g75
tp100
Rp101
(I1
(I1
tp102
g7
I00
S'R\x87\x9c6R.\x99@'
p103
tp104
bag72
(g73
(I0
tp105
g75
tp106
Rp107
(I1
(I1
tp108
g7
I00
S'9\xa8v\x7f\xf2/\x95@'
p109
tp110
bag72
(g73
(I0
tp111
g75
tp112
Rp113
(I1
(I1
tp114
g7
I00
S']\x1cL`\n\xd9\x92@'
p115
tp116
bag72
(g73
(I0
tp117
g75
tp118
Rp119
(I1
(I1
tp120
g7
I00
S'\xb8^\xe1p\x08i\x8d@'
p121
tp122
bag72
(g73
(I0
tp123
g75
tp124
Rp125
(I1
(I1
tp126
g7
I00
S'\x8d\xb7\\\x9c\x86=\xa1@'
p127
tp128
bag72
(g73
(I0
tp129
g75
tp130
Rp131
(I1
(I1
tp132
g7
I00
S'\xe7\xe8\x86?!\xcc\x8e@'
p133
tp134
bag72
(g73
(I0
tp135
g75
tp136
Rp137
(I1
(I1
tp138
g7
I00
S'\xa5\xc1@\xe1A\x12\x90@'
p139
tp140
bag72
(g73
(I0
tp141
g75
tp142
Rp143
(I1
(I1
tp144
g7
I00
S'\xba\x90\xc0"\x93\xd6\x9f@'
p145
tp146
bag72
(g73
(I0
tp147
g75
tp148
Rp149
(I1
(I1
tp150
g7
I00
S'\xc2\xf2a5(t\x99@'
p151
tp152
bag72
(g73
(I0
tp153
g75
tp154
Rp155
(I1
(I1
tp156
g7
I00
S'M\x82E\xa4\xbc\xbe\x03A'
p157
tp158
bag72
(g73
(I0
tp159
g75
tp160
Rp161
(I1
(I1
tp162
g7
I00
S'\xbd\xdf\xba\xa0\xf6p\xa2@'
p163
tp164
bag72
(g73
(I0
tp165
g75
tp166
Rp167
(I1
(I1
tp168
g7
I00
S'6\xe1\xf7~<\x1d\xb5@'
p169
tp170
bag72
(g73
(I0
tp171
g75
tp172
Rp173
(I1
(I1
tp174
g7
I00
S'\xc48H\xff\xbe~\x8d@'
p175
tp176
bag72
(g73
(I0
tp177
g75
tp178
Rp179
(I1
(I1
tp180
g7
I00
S'Aw"\x9d}\t\x90@'
p181
tp182
bag72
(g73
(I0
tp183
g75
tp184
Rp185
(I1
(I1
tp186
g7
I00
S'\x82\xf9\x91\xf9\xf7\xce\x94@'
p187
tp188
bag72
(g73
(I0
tp189
g75
tp190
Rp191
(I1
(I1
tp192
g7
I00
S'\x1d\xa7\xb6M\xca\xf3\x92@'
p193
tp194
basS'size'
p195
(lp196
I31
aI52
aI49
aI111
aI30
aI46
aI63
aI57
aI53
aI70
aI52
aI37
aI126
aI36
aI45
aI24
aI86
aI21
aI45
aI73
as.