(dp0
S'mse_test'
p1
(lp2
cnumpy.core.multiarray
scalar
p3
(cnumpy
dtype
p4
(S'f8'
p5
I0
I1
tp6
Rp7
(I3
S'<'
p8
NNNI-1
I-1
I0
tp9
bS'R4<\t3\xd3I@'
p10
tp11
Rp12
ag3
(g7
S':\x86p\\\xe6s8@'
p13
tp14
Rp15
ag3
(g7
S'\r\x19\xd1Tq\x16P@'
p16
tp17
Rp18
ag3
(g7
S'I\xa0\x1e\xec6\xa0@@'
p19
tp20
Rp21
ag3
(g7
S'\xbd\xb2Bt\x92NF@'
p22
tp23
Rp24
ag3
(g7
S'\x1c\xfa,\x1d\xdayS@'
p25
tp26
Rp27
ag3
(g7
S'ZV\xc0_]_E@'
p28
tp29
Rp30
ag3
(g7
S'\xfd\xd8\xd9%\xd5\xeeK@'
p31
tp32
Rp33
ag3
(g7
S'\xa0\xb1\x07\xba\xa6\x82J@'
p34
tp35
Rp36
ag3
(g7
S'K\x8d\xc4\x83\xca\xf6F@'
p37
tp38
Rp39
ag3
(g7
S'\x0e\xa3\xd1\x95\xb5\xf5A@'
p40
tp41
Rp42
ag3
(g7
S'z(Z\x86`i3@'
p43
tp44
Rp45
ag3
(g7
S'\x01\x07(P\xeb\x08D@'
p46
tp47
Rp48
ag3
(g7
S'\x96\xb4B\xdb\xd6\xb1I@'
p49
tp50
Rp51
ag3
(g7
S'=\xca\xdex\x87\x80H@'
p52
tp53
Rp54
ag3
(g7
S'm\xdd\x02\xe9M\x01Q@'
p55
tp56
Rp57
ag3
(g7
S'P\x85j\x89F\x0e:@'
p58
tp59
Rp60
ag3
(g7
S'#\x05|\xbe\xc6\xf8K@'
p61
tp62
Rp63
ag3
(g7
S'}\xba\xd7\x7fcnQ@'
p64
tp65
Rp66
ag3
(g7
S':\xbe;\x96\x0c\x1b@@'
p67
tp68
Rp69
asS'mse_train'
p70
(lp71
cnumpy.core.multiarray
_reconstruct
p72
(cnumpy
ndarray
p73
(I0
tp74
S'b'
p75
tp76
Rp77
(I1
(I1
tp78
g7
I00
S'\xff\xdb\x8cOi\x17S@'
p79
tp80
bag72
(g73
(I0
tp81
g75
tp82
Rp83
(I1
(I1
tp84
g7
I00
S'PH\xad\x8e\x89\xa3D@'
p85
tp86
bag72
(g73
(I0
tp87
g75
tp88
Rp89
(I1
(I1
tp90
g7
I00
S'\xd3\xc2y\xeb\xfd\x8bL@'
p91
tp92
bag72
(g73
(I0
tp93
g75
tp94
Rp95
(I1
(I1
tp96
g7
I00
S'\x0eb\xda\xc9]\xdb>@'
p97
tp98
bag72
(g73
(I0
tp99
g75
tp100
Rp101
(I1
(I1
tp102
g7
I00
S'\xc0X<C\xc0\xd6K@'
p103
tp104
bag72
(g73
(I0
tp105
g75
tp106
Rp107
(I1
(I1
tp108
g7
I00
S'\xff)EOY\xd4O@'
p109
tp110
bag72
(g73
(I0
tp111
g75
tp112
Rp113
(I1
(I1
tp114
g7
I00
S'\x1c,\xdc\xff\x05\x1dE@'
p115
tp116
bag72
(g73
(I0
tp117
g75
tp118
Rp119
(I1
(I1
tp120
g7
I00
S'\x83f\xda\x08\xea\xfcJ@'
p121
tp122
bag72
(g73
(I0
tp123
g75
tp124
Rp125
(I1
(I1
tp126
g7
I00
S'K=H6\x802T@'
p127
tp128
bag72
(g73
(I0
tp129
g75
tp130
Rp131
(I1
(I1
tp132
g7
I00
S'\xca\x90o\xa0\x11HO@'
p133
tp134
bag72
(g73
(I0
tp135
g75
tp136
Rp137
(I1
(I1
tp138
g7
I00
S'\xa7n\xe1\xf6v\x03D@'
p139
tp140
bag72
(g73
(I0
tp141
g75
tp142
Rp143
(I1
(I1
tp144
g7
I00
S'n\x8e\xa2c\x0b\xba:@'
p145
tp146
bag72
(g73
(I0
tp147
g75
tp148
Rp149
(I1
(I1
tp150
g7
I00
S'UW;/\xc4mI@'
p151
tp152
bag72
(g73
(I0
tp153
g75
tp154
Rp155
(I1
(I1
tp156
g7
I00
S'3\xbe\xedx\xfb\xa3I@'
p157
tp158
bag72
(g73
(I0
tp159
g75
tp160
Rp161
(I1
(I1
tp162
g7
I00
S'bi\xa5U\xcf\xe0G@'
p163
tp164
bag72
(g73
(I0
tp165
g75
tp166
Rp167
(I1
(I1
tp168
g7
I00
S'\xd0\x14\x7f_\xcf\xdeT@'
p169
tp170
bag72
(g73
(I0
tp171
g75
tp172
Rp173
(I1
(I1
tp174
g7
I00
S'\tP\xa8\xb4 ]F@'
p175
tp176
bag72
(g73
(I0
tp177
g75
tp178
Rp179
(I1
(I1
tp180
g7
I00
S'\xd2\x1a\xc7ZMEV@'
p181
tp182
bag72
(g73
(I0
tp183
g75
tp184
Rp185
(I1
(I1
tp186
g7
I00
S'\xeeE?\xb0\x03\x8bO@'
p187
tp188
bag72
(g73
(I0
tp189
g75
tp190
Rp191
(I1
(I1
tp192
g7
I00
S'\x1d\x9es\x1b>\xa2F@'
p193
tp194
basS'size'
p195
(lp196
I9
aI19
aI9
aI26
aI15
aI5
aI19
aI19
aI13
aI14
aI23
aI20
aI37
aI29
aI23
aI20
aI15
aI20
aI11
aI27
as.