(dp0
S'mse_test'
p1
(lp2
cnumpy.core.multiarray
scalar
p3
(cnumpy
dtype
p4
(S'f4'
p5
I0
I1
tp6
Rp7
(I3
S'<'
p8
NNNI-1
I-1
I0
tp9
bS'\x88\xc5B='
p10
tp11
Rp12
ag3
(g7
S'C\xc5\x1b='
p13
tp14
Rp15
ag3
(g7
S'\xba\xacL='
p16
tp17
Rp18
ag3
(g7
S'{B\x1e='
p19
tp20
Rp21
ag3
(g7
S'\xc9\x1c\x07='
p22
tp23
Rp24
ag3
(g7
S'9Q\x19='
p25
tp26
Rp27
ag3
(g7
S'\xcf&\x16='
p28
tp29
Rp30
ag3
(g7
S'\xfe\xcd@='
p31
tp32
Rp33
ag3
(g7
S'\xca\xce2='
p34
tp35
Rp36
ag3
(g7
S'\xd0\x9b\x16='
p37
tp38
Rp39
ag3
(g7
S'\xc8\xfb=='
p40
tp41
Rp42
ag3
(g7
S'\xc3+$='
p43
tp44
Rp45
ag3
(g7
S'nA%='
p46
tp47
Rp48
ag3
(g7
S'\xf6\xcb\x0f='
p49
tp50
Rp51
ag3
(g7
S'\xe3\xff&='
p52
tp53
Rp54
ag3
(g7
S'XV*='
p55
tp56
Rp57
ag3
(g7
S'X\xb5O='
p58
tp59
Rp60
ag3
(g7
S'c\xcf\x0c='
p61
tp62
Rp63
ag3
(g7
S'\nd\x17='
p64
tp65
Rp66
ag3
(g7
S'\x9eO ='
p67
tp68
Rp69
asS'mse_train'
p70
(lp71
g3
(g7
S'X\xd2,='
p72
tp73
Rp74
ag3
(g7
S'\x14\xbb2='
p75
tp76
Rp77
ag3
(g7
S'\x14\x1d\x1c='
p78
tp79
Rp80
ag3
(g7
S'>\xba!='
p81
tp82
Rp83
ag3
(g7
S'\x83\xa8)='
p84
tp85
Rp86
ag3
(g7
S'\xdd\x11%='
p87
tp88
Rp89
ag3
(g7
S'v\xaf(='
p90
tp91
Rp92
ag3
(g7
S'\th\x1f='
p93
tp94
Rp95
ag3
(g7
S'\xb5\xc2 ='
p96
tp97
Rp98
ag3
(g7
S'q\x07+='
p99
tp100
Rp101
ag3
(g7
S'rB\x1e='
p102
tp103
Rp104
ag3
(g7
S'\xf2\xcb*='
p105
tp106
Rp107
ag3
(g7
S'b\xd4%='
p108
tp109
Rp110
ag3
(g7
S'ig)='
p111
tp112
Rp113
ag3
(g7
S'0\xca$='
p114
tp115
Rp116
ag3
(g7
S'\x14\x9d&='
p117
tp118
Rp119
ag3
(g7
S'\xeao\x1c='
p120
tp121
Rp122
ag3
(g7
S'Wz,='
p123
tp124
Rp125
ag3
(g7
S'\xf6\xd9(='
p126
tp127
Rp128
ag3
(g7
S'{\xec%='
p129
tp130
Rp131
as.