(dp0
S'mse_test'
p1
(lp2
cnumpy.core.multiarray
scalar
p3
(cnumpy
dtype
p4
(S'f8'
p5
I0
I1
tp6
Rp7
(I3
S'<'
p8
NNNI-1
I-1
I0
tp9
bS'l\xd8\xbft\xc6\xab\x99@'
p10
tp11
Rp12
ag3
(g7
S"0\x16w\xc1'L\x90@"
p13
tp14
Rp15
ag3
(g7
S'\x8cZ[s\xae\xd1\x94@'
p16
tp17
Rp18
ag3
(g7
S'\x06\xe4PnFC\x94@'
p19
tp20
Rp21
ag3
(g7
S'm\xf4<\xc46\xe3\x90@'
p22
tp23
Rp24
ag3
(g7
S'2\x8c~U1\xb8\x90@'
p25
tp26
Rp27
ag3
(g7
S'\xdc\xda\x96\xa4^O\x96@'
p28
tp29
Rp30
ag3
(g7
S'\xd5\xe9\xf7q\x82w\x95@'
p31
tp32
Rp33
ag3
(g7
S'\x91bM\x8eH\xff\x93@'
p34
tp35
Rp36
ag3
(g7
S'J:\xbf0\xb1;\x96@'
p37
tp38
Rp39
ag3
(g7
S'\x04\x1f\xb61\xb6\x1c\x98@'
p40
tp41
Rp42
ag3
(g7
S'^\x82W\xe6\xc0\x8d\x92@'
p43
tp44
Rp45
ag3
(g7
S"(\x7f\x16#'\x94\x93@"
p46
tp47
Rp48
ag3
(g7
S'd\xedI\xeb\x97\xda\x94@'
p49
tp50
Rp51
ag3
(g7
S'\x00\xf13\xcf\xb5\x12\x9f@'
p52
tp53
Rp54
ag3
(g7
S'\xf2}\x01\xe4\x8d\xee\x8f@'
p55
tp56
Rp57
ag3
(g7
S'\x83\xca\x98\xcb\xff\xd5\x93@'
p58
tp59
Rp60
ag3
(g7
S'<\xddg\xc0\\\x02\x9b@'
p61
tp62
Rp63
ag3
(g7
S'\xd8\x898Y\x926\x97@'
p64
tp65
Rp66
ag3
(g7
S'\x87\xaf#_\xb3\xb9\x96@'
p67
tp68
Rp69
asS'mse_train'
p70
(lp71
cnumpy.core.multiarray
_reconstruct
p72
(cnumpy
ndarray
p73
(I0
tp74
S'b'
p75
tp76
Rp77
(I1
(I1
tp78
g7
I00
S'."\xcdO\xa7o\x96@'
p79
tp80
bag72
(g73
(I0
tp81
g75
tp82
Rp83
(I1
(I1
tp84
g7
I00
S'\x04\xf8\xad\x1a\x10\x81\x98@'
p85
tp86
bag72
(g73
(I0
tp87
g75
tp88
Rp89
(I1
(I1
tp90
g7
I00
S'\xb8\xc14y\xf8Z\x9b@'
p91
tp92
bag72
(g73
(I0
tp93
g75
tp94
Rp95
(I1
(I1
tp96
g7
I00
S'\xd8\xb0F\xf6@~\x9e@'
p97
tp98
bag72
(g73
(I0
tp99
g75
tp100
Rp101
(I1
(I1
tp102
g7
I00
S'\x15\xc8\xa80\x00\x84\x9a@'
p103
tp104
bag72
(g73
(I0
tp105
g75
tp106
Rp107
(I1
(I1
tp108
g7
I00
S'\xca\xf7\xa6\xdeL\x1f\x96@'
p109
tp110
bag72
(g73
(I0
tp111
g75
tp112
Rp113
(I1
(I1
tp114
g7
I00
S'C\x9d\xec\xe0\xb8-\x98@'
p115
tp116
bag72
(g73
(I0
tp117
g75
tp118
Rp119
(I1
(I1
tp120
g7
I00
S'\xd1\xa2\x96`K\xc1\xa3@'
p121
tp122
bag72
(g73
(I0
tp123
g75
tp124
Rp125
(I1
(I1
tp126
g7
I00
S'\x06\xd0)\x10\x85\x88\x99@'
p127
tp128
bag72
(g73
(I0
tp129
g75
tp130
Rp131
(I1
(I1
tp132
g7
I00
S'\x87^/3\t\xdd\x97@'
p133
tp134
bag72
(g73
(I0
tp135
g75
tp136
Rp137
(I1
(I1
tp138
g7
I00
S'\xca\x12A\xaa\xbc{\x9c@'
p139
tp140
bag72
(g73
(I0
tp141
g75
tp142
Rp143
(I1
(I1
tp144
g7
I00
S'h\xa0\xfeT\xd1\xec\x98@'
p145
tp146
bag72
(g73
(I0
tp147
g75
tp148
Rp149
(I1
(I1
tp150
g7
I00
S'{\x10\xd5\x08\xa4S\x9b@'
p151
tp152
bag72
(g73
(I0
tp153
g75
tp154
Rp155
(I1
(I1
tp156
g7
I00
S'W\xf0\xb9\xd7!b\x9c@'
p157
tp158
bag72
(g73
(I0
tp159
g75
tp160
Rp161
(I1
(I1
tp162
g7
I00
S'\rF\xdf2+9\x9b@'
p163
tp164
bag72
(g73
(I0
tp165
g75
tp166
Rp167
(I1
(I1
tp168
g7
I00
S'S\xc2\xcaZ&t\xa0@'
p169
tp170
bag72
(g73
(I0
tp171
g75
tp172
Rp173
(I1
(I1
tp174
g7
I00
S'\xf0\xab\xae3%\xb4\x9a@'
p175
tp176
bag72
(g73
(I0
tp177
g75
tp178
Rp179
(I1
(I1
tp180
g7
I00
S'p2\x8e\xeeu\x07\x9d@'
p181
tp182
bag72
(g73
(I0
tp183
g75
tp184
Rp185
(I1
(I1
tp186
g7
I00
S'\x13&\x8e\xdd6>\x9a@'
p187
tp188
bag72
(g73
(I0
tp189
g75
tp190
Rp191
(I1
(I1
tp192
g7
I00
S'\x04\x13-t\xb1\xfe\x99@'
p193
tp194
basS'size'
p195
(lp196
I12
aI23
aI19
aI18
aI34
aI52
aI19
aI19
aI20
aI28
aI59
aI30
aI40
aI52
aI15
aI18
aI15
aI20
aI40
aI20
as.