(dp0
S'mse_test'
p1
(lp2
cnumpy.core.multiarray
scalar
p3
(cnumpy
dtype
p4
(S'f4'
p5
I0
I1
tp6
Rp7
(I3
S'<'
p8
NNNI-1
I-1
I0
tp9
bS'\xfa@1B'
p10
tp11
Rp12
ag3
(g7
S'^\xb6\x00B'
p13
tp14
Rp15
ag3
(g7
S'\x82\xceDB'
p16
tp17
Rp18
ag3
(g7
S'\xf4\xdb.B'
p19
tp20
Rp21
ag3
(g7
S'3z\x14B'
p22
tp23
Rp24
ag3
(g7
S'\xac\xb6=B'
p25
tp26
Rp27
ag3
(g7
S'\xf4%%B'
p28
tp29
Rp30
ag3
(g7
S'l\xe4*B'
p31
tp32
Rp33
ag3
(g7
S'\xf6\x12\x10B'
p34
tp35
Rp36
ag3
(g7
S'\xfeG\x1cB'
p37
tp38
Rp39
ag3
(g7
S'`[GB'
p40
tp41
Rp42
ag3
(g7
S'\x12:\x16B'
p43
tp44
Rp45
ag3
(g7
S'\xb9z\x14B'
p46
tp47
Rp48
ag3
(g7
S'\xdc\x98\xf3A'
p49
tp50
Rp51
ag3
(g7
S'h?NB'
p52
tp53
Rp54
ag3
(g7
S'Iw B'
p55
tp56
Rp57
ag3
(g7
S'0n\x18B'
p58
tp59
Rp60
ag3
(g7
S'\xd0\xcdTB'
p61
tp62
Rp63
ag3
(g7
S'q\xc0\x0eB'
p64
tp65
Rp66
ag3
(g7
S'F\xa8\x1dB'
p67
tp68
Rp69
asS'mse_train'
p70
(lp71
g3
(g7
S'\xc26"B'
p72
tp73
Rp74
ag3
(g7
S'hY.B'
p75
tp76
Rp77
ag3
(g7
S'`S\x1dB'
p78
tp79
Rp80
ag3
(g7
S'\x04\xd0"B'
p81
tp82
Rp83
ag3
(g7
S'sh)B'
p84
tp85
Rp86
ag3
(g7
S'T\x19\x1fB'
p87
tp88
Rp89
ag3
(g7
S'\x83=%B'
p90
tp91
Rp92
ag3
(g7
S'\xe5\xcd#B'
p93
tp94
Rp95
ag3
(g7
S'C\x82*B'
p96
tp97
Rp98
ag3
(g7
S"\x00u'B"
p99
tp100
Rp101
ag3
(g7
S'(\xb0\x1cB'
p102
tp103
Rp104
ag3
(g7
S'{\xf8(B'
p105
tp106
Rp107
ag3
(g7
S'Rh)B'
p108
tp109
Rp110
ag3
(g7
S'\xe4\x130B'
p111
tp112
Rp113
ag3
(g7
S'&\xf7\x1aB'
p114
tp115
Rp116
ag3
(g7
S'.i&B'
p117
tp118
Rp119
ag3
(g7
S'tk(B'
p120
tp121
Rp122
ag3
(g7
S'\x8cS\x19B'
p123
tp124
Rp125
ag3
(g7
S'\xe4\xd6*B'
p126
tp127
Rp128
ag3
(g7
S"\xee\x1c'B"
p129
tp130
Rp131
as.