(dp0
S'mse_test'
p1
(lp2
cnumpy.core.multiarray
scalar
p3
(cnumpy
dtype
p4
(S'f8'
p5
I0
I1
tp6
Rp7
(I3
S'<'
p8
NNNI-1
I-1
I0
tp9
bS'\xe0\x15\xca\xb2\x96\x0e\x95@'
p10
tp11
Rp12
ag3
(g7
S'\xeau\xff\xa2\xc7*\x8b@'
p13
tp14
Rp15
ag3
(g7
S" \x91`\xdf'\xb7\x94@"
p16
tp17
Rp18
ag3
(g7
S'>\x1ex\xec5\xc4\x8d@'
p19
tp20
Rp21
ag3
(g7
S'\x89V\xd8\x1cHa\x9d@'
p22
tp23
Rp24
ag3
(g7
S'\x8c\xd6Xj\xfc\xd2\x93@'
p25
tp26
Rp27
ag3
(g7
S'\xb9\x16\x85e\xc2u\x8f@'
p28
tp29
Rp30
ag3
(g7
S'\xde\x82\x89\xac\x10=\x96@'
p31
tp32
Rp33
ag3
(g7
S'\x0b\xf0\x10\x0c$K\x92@'
p34
tp35
Rp36
ag3
(g7
S'\x8e\xdf\x90\x7fdR\x91@'
p37
tp38
Rp39
ag3
(g7
S':\xf7\x8e{\xc9\x1e\x95@'
p40
tp41
Rp42
ag3
(g7
S'G\x98Ps\xa2q\x8d@'
p43
tp44
Rp45
ag3
(g7
S'\xf0\xda%z\xe4\xef\x84@'
p46
tp47
Rp48
ag3
(g7
S'\xab\xb9\xb8\x02\xf5J\x8d@'
p49
tp50
Rp51
ag3
(g7
S'\x14\xf5Y$`2\x8e@'
p52
tp53
Rp54
ag3
(g7
S"\xf3\xd7\xcc'\xe05\x8c@"
p55
tp56
Rp57
ag3
(g7
S'9\xc5\x98\x96\x1e\x02\x93@'
p58
tp59
Rp60
ag3
(g7
S'\xb3t\xd5\xe8\x87\xbe\x98@'
p61
tp62
Rp63
ag3
(g7
S'R\x1d<\xf9\x9e\xdc\x92@'
p64
tp65
Rp66
ag3
(g7
S'L\x8e\xe2\x80\xff\xf5\x8d@'
p67
tp68
Rp69
asS'mse_train'
p70
(lp71
cnumpy.core.multiarray
_reconstruct
p72
(cnumpy
ndarray
p73
(I0
tp74
S'b'
p75
tp76
Rp77
(I1
(I1
tp78
g7
I00
S'\xbf\x00c\xc8\xfe\xa1\x97@'
p79
tp80
bag72
(g73
(I0
tp81
g75
tp82
Rp83
(I1
(I1
tp84
g7
I00
S'\xf2\\L\xc7d\x83\xac@'
p85
tp86
bag72
(g73
(I0
tp87
g75
tp88
Rp89
(I1
(I1
tp90
g7
I00
S'\xcd^`s\xfc\xb9\x9e@'
p91
tp92
bag72
(g73
(I0
tp93
g75
tp94
Rp95
(I1
(I1
tp96
g7
I00
S'\x8bZ\n\xa1/\xa9\xa0@'
p97
tp98
bag72
(g73
(I0
tp99
g75
tp100
Rp101
(I1
(I1
tp102
g7
I00
S'p^M<\xf3\x04\xa0@'
p103
tp104
bag72
(g73
(I0
tp105
g75
tp106
Rp107
(I1
(I1
tp108
g7
I00
S'\xffh\xc2/\xdf\x19\x9b@'
p109
tp110
bag72
(g73
(I0
tp111
g75
tp112
Rp113
(I1
(I1
tp114
g7
I00
S'\xa0V\\=*\xdb\x96@'
p115
tp116
bag72
(g73
(I0
tp117
g75
tp118
Rp119
(I1
(I1
tp120
g7
I00
S'\xc6r\x9b@Te\x9e@'
p121
tp122
bag72
(g73
(I0
tp123
g75
tp124
Rp125
(I1
(I1
tp126
g7
I00
S'<\x9d#\xe0\xa6$\x9f@'
p127
tp128
bag72
(g73
(I0
tp129
g75
tp130
Rp131
(I1
(I1
tp132
g7
I00
S'fX\xd7Hd\x01\xa0@'
p133
tp134
bag72
(g73
(I0
tp135
g75
tp136
Rp137
(I1
(I1
tp138
g7
I00
S'KUK\xdcT\xe3\x9a@'
p139
tp140
bag72
(g73
(I0
tp141
g75
tp142
Rp143
(I1
(I1
tp144
g7
I00
S'D\x18M\xcd\x10_\x9b@'
p145
tp146
bag72
(g73
(I0
tp147
g75
tp148
Rp149
(I1
(I1
tp150
g7
I00
S'\xf2\xa8i\xc1\xae\x05\x97@'
p151
tp152
bag72
(g73
(I0
tp153
g75
tp154
Rp155
(I1
(I1
tp156
g7
I00
S'b|\x96\x9a\xeb\x19\xb0@'
p157
tp158
bag72
(g73
(I0
tp159
g75
tp160
Rp161
(I1
(I1
tp162
g7
I00
S'\x1a\xe1\x0bQ\x84\xfe\xa7@'
p163
tp164
bag72
(g73
(I0
tp165
g75
tp166
Rp167
(I1
(I1
tp168
g7
I00
S'\xf9I\xc5\xb6\x82\xd7\xa3@'
p169
tp170
bag72
(g73
(I0
tp171
g75
tp172
Rp173
(I1
(I1
tp174
g7
I00
S'}\xef\xec^\x19\xb9\xa2@'
p175
tp176
bag72
(g73
(I0
tp177
g75
tp178
Rp179
(I1
(I1
tp180
g7
I00
S'\xbf\xc4z>\xd5;\xa1@'
p181
tp182
bag72
(g73
(I0
tp183
g75
tp184
Rp185
(I1
(I1
tp186
g7
I00
S's\x8d\xe3\xce\xcd\xa6\xa3@'
p187
tp188
bag72
(g73
(I0
tp189
g75
tp190
Rp191
(I1
(I1
tp192
g7
I00
S'\x19/\x04\x07"P\x9b@'
p193
tp194
basS'size'
p195
(lp196
I177
aI100
aI104
aI128
aI3
aI90
aI95
aI48
aI125
aI150
aI81
aI105
aI158
aI88
aI215
aI129
aI123
aI96
aI115
aI175
as.