(dp0
S'mse_test'
p1
(lp2
cnumpy.core.multiarray
scalar
p3
(cnumpy
dtype
p4
(S'f8'
p5
I0
I1
tp6
Rp7
(I3
S'<'
p8
NNNI-1
I-1
I0
tp9
bS'\x19\x8c\xaa\x87\xd9\x83\x8f@'
p10
tp11
Rp12
ag3
(g7
S'\xe4.\x9c\x7f\xe4\x9c\x90@'
p13
tp14
Rp15
ag3
(g7
S'a\xe5l\xcewQ\x92@'
p16
tp17
Rp18
ag3
(g7
S'&,Bt6\xf3\x90@'
p19
tp20
Rp21
ag3
(g7
S'\xde\xd1\xaa\nM\xac\x91@'
p22
tp23
Rp24
ag3
(g7
S'\xd4\xd7\xb2.@B\x8b@'
p25
tp26
Rp27
ag3
(g7
S'~$\x0b\x99\xa0,\x94@'
p28
tp29
Rp30
ag3
(g7
S'\xfdn\\:.\x9b\x93@'
p31
tp32
Rp33
ag3
(g7
S' \x9a \xb7-\x9e\x8e@'
p34
tp35
Rp36
ag3
(g7
S'p \x00:nE\x91@'
p37
tp38
Rp39
ag3
(g7
S')\xb8\xd5\xeb\xb0\xc2\x94@'
p40
tp41
Rp42
ag3
(g7
S'\x94\xf2\xadp\xee4\x8f@'
p43
tp44
Rp45
ag3
(g7
S'\xaca-\xe7\xcf[\x90@'
p46
tp47
Rp48
ag3
(g7
S'~\xc3$?\x15\xa3\x90@'
p49
tp50
Rp51
ag3
(g7
S'\x8eo\x10i\xd1T\x94@'
p52
tp53
Rp54
ag3
(g7
S'h\xadsh/D\x86@'
p55
tp56
Rp57
ag3
(g7
S'\xa7J\x02<\x1c\xf2\x8f@'
p58
tp59
Rp60
ag3
(g7
S'\x99\xa2\x03\xf0w\xff\x95@'
p61
tp62
Rp63
ag3
(g7
S'\xb4l\xa6\x94\xc1\x8f\x95@'
p64
tp65
Rp66
ag3
(g7
S'\xacT\xe7po\xfb\x8a@'
p67
tp68
Rp69
asS'mse_train'
p70
(lp71
cnumpy.core.multiarray
_reconstruct
p72
(cnumpy
ndarray
p73
(I0
tp74
S'b'
p75
tp76
Rp77
(I1
(I1
tp78
g7
I00
S'@Z\x03W3\xb0\xab@'
p79
tp80
bag72
(g73
(I0
tp81
g75
tp82
Rp83
(I1
(I1
tp84
g7
I00
S'\x89\x8c\x9b\rn\x92\x97@'
p85
tp86
bag72
(g73
(I0
tp87
g75
tp88
Rp89
(I1
(I1
tp90
g7
I00
S'\x82N\xf0\xbf*\x1f\x9c@'
p91
tp92
bag72
(g73
(I0
tp93
g75
tp94
Rp95
(I1
(I1
tp96
g7
I00
S'\xd6e\x8cf\x8e\x174A'
p97
tp98
bag72
(g73
(I0
tp99
g75
tp100
Rp101
(I1
(I1
tp102
g7
I00
S'+\xa6\xd9\x17\xa1\xa6\x9e@'
p103
tp104
bag72
(g73
(I0
tp105
g75
tp106
Rp107
(I1
(I1
tp108
g7
I00
S'\xb59\xbf\xcf\x08\xa9\x12A'
p109
tp110
bag72
(g73
(I0
tp111
g75
tp112
Rp113
(I1
(I1
tp114
g7
I00
S'\xf7\rafh\xb2\x9e@'
p115
tp116
bag72
(g73
(I0
tp117
g75
tp118
Rp119
(I1
(I1
tp120
g7
I00
S'\xc1\xa3f]\xe64\xa5@'
p121
tp122
bag72
(g73
(I0
tp123
g75
tp124
Rp125
(I1
(I1
tp126
g7
I00
S'q*Q\x11s{\x96@'
p127
tp128
bag72
(g73
(I0
tp129
g75
tp130
Rp131
(I1
(I1
tp132
g7
I00
S'\x14Z\x05\xc4\xcfk\xba@'
p133
tp134
bag72
(g73
(I0
tp135
g75
tp136
Rp137
(I1
(I1
tp138
g7
I00
S'\x06\xab\x12s\xcb\xd7\xac@'
p139
tp140
bag72
(g73
(I0
tp141
g75
tp142
Rp143
(I1
(I1
tp144
g7
I00
S'\x1b\xf7\xef0\xdd\xe5\xa0@'
p145
tp146
bag72
(g73
(I0
tp147
g75
tp148
Rp149
(I1
(I1
tp150
g7
I00
S'u\xaf.,\xa1J\xa0@'
p151
tp152
bag72
(g73
(I0
tp153
g75
tp154
Rp155
(I1
(I1
tp156
g7
I00
S'6\x03\x8f\x90\xea\xae\xa2@'
p157
tp158
bag72
(g73
(I0
tp159
g75
tp160
Rp161
(I1
(I1
tp162
g7
I00
S'\x9b\x8a\xea\xdc\xc9\xc6\xa3@'
p163
tp164
bag72
(g73
(I0
tp165
g75
tp166
Rp167
(I1
(I1
tp168
g7
I00
S'9\xa0&\xc3d\x91\xe0@'
p169
tp170
bag72
(g73
(I0
tp171
g75
tp172
Rp173
(I1
(I1
tp174
g7
I00
S'\xa9\x1c\xa6\xe6\xb0\xe6\x90@'
p175
tp176
bag72
(g73
(I0
tp177
g75
tp178
Rp179
(I1
(I1
tp180
g7
I00
S'bo\xe9\x8c\xf2H\x9c@'
p181
tp182
bag72
(g73
(I0
tp183
g75
tp184
Rp185
(I1
(I1
tp186
g7
I00
S'\xfb\x80W*Q\x13\x9a@'
p187
tp188
bag72
(g73
(I0
tp189
g75
tp190
Rp191
(I1
(I1
tp192
g7
I00
S'4`\xdc$\xc8\x96\x9c@'
p193
tp194
basS'size'
p195
(lp196
I15
aI7
aI13
aI13
aI10
aI15
aI13
aI9
aI15
aI14
aI8
aI13
aI6
aI14
aI13
aI14
aI15
aI7
aI9
aI14
as.