(dp0
S'mse_test'
p1
(lp2
cnumpy.core.multiarray
scalar
p3
(cnumpy
dtype
p4
(S'f8'
p5
I0
I1
tp6
Rp7
(I3
S'<'
p8
NNNI-1
I-1
I0
tp9
bS'\xf2~\xc0\xfb\x01M7@'
p10
tp11
Rp12
ag3
(g7
S'q_\xd5\xf9J\x900@'
p13
tp14
Rp15
ag3
(g7
S'\x18\x17\xcb\xb1\x11\xf89@'
p16
tp17
Rp18
ag3
(g7
S'LzI}\n\xb3=@'
p19
tp20
Rp21
ag3
(g7
S'T\xbbu]/$+@'
p22
tp23
Rp24
ag3
(g7
S'\xe4\xab\xc37X\xca:@'
p25
tp26
Rp27
ag3
(g7
S'\x06\xfb\xef\x1b\xd1\xc0@@'
p28
tp29
Rp30
ag3
(g7
S'\xeaF\xae`)\x882@'
p31
tp32
Rp33
ag3
(g7
S'Hy\xaf\xd4\xdd\xc6?@'
p34
tp35
Rp36
ag3
(g7
S'\x98\x17\xa1o\xd8F/@'
p37
tp38
Rp39
ag3
(g7
S'\xcf\x1eD\x9f`95@'
p40
tp41
Rp42
ag3
(g7
S'w\xd1\x7f\x19]\xab1@'
p43
tp44
Rp45
ag3
(g7
S'V\xb8<\x90\xcbx0@'
p46
tp47
Rp48
ag3
(g7
S'\xdf\xf3\x83\x821&2@'
p49
tp50
Rp51
ag3
(g7
S'\x01\x1ev\x96nH5@'
p52
tp53
Rp54
ag3
(g7
S'=U5L\xd2\x881@'
p55
tp56
Rp57
ag3
(g7
S'\x89[\xa9\xad\xf6\xb78@'
p58
tp59
Rp60
ag3
(g7
S'v\xf1\x83\x95\x07\xd0>@'
p61
tp62
Rp63
ag3
(g7
S'\x0f\xcc\xd6\x8au\x96.@'
p64
tp65
Rp66
ag3
(g7
S'P\x0e(\x8e\xd04;@'
p67
tp68
Rp69
asS'mse_train'
p70
(lp71
cnumpy.core.multiarray
_reconstruct
p72
(cnumpy
ndarray
p73
(I0
tp74
S'b'
p75
tp76
Rp77
(I1
(I1
tp78
g7
I00
S'=\xf2D8}zA@'
p79
tp80
bag72
(g73
(I0
tp81
g75
tp82
Rp83
(I1
(I1
tp84
g7
I00
S'\xf84~\xe3E\xebG@'
p85
tp86
bag72
(g73
(I0
tp87
g75
tp88
Rp89
(I1
(I1
tp90
g7
I00
S'D8\x07(\xa5oN@'
p91
tp92
bag72
(g73
(I0
tp93
g75
tp94
Rp95
(I1
(I1
tp96
g7
I00
S'L\xe4\x0bK?/B@'
p97
tp98
bag72
(g73
(I0
tp99
g75
tp100
Rp101
(I1
(I1
tp102
g7
I00
S'\xf3\xb0\xf7\xe7X`:@'
p103
tp104
bag72
(g73
(I0
tp105
g75
tp106
Rp107
(I1
(I1
tp108
g7
I00
S'O\x0f4\x9a\x0e\x12?@'
p109
tp110
bag72
(g73
(I0
tp111
g75
tp112
Rp113
(I1
(I1
tp114
g7
I00
S'\x10\xd4\rI\xc7\x9aP@'
p115
tp116
bag72
(g73
(I0
tp117
g75
tp118
Rp119
(I1
(I1
tp120
g7
I00
S'\x98\xe3\xcd\xb9\x19\xe59@'
p121
tp122
bag72
(g73
(I0
tp123
g75
tp124
Rp125
(I1
(I1
tp126
g7
I00
S'\x95\xf9L\x10\x9a\x9cK@'
p127
tp128
bag72
(g73
(I0
tp129
g75
tp130
Rp131
(I1
(I1
tp132
g7
I00
S'\xa5\xf9$;0\x04@@'
p133
tp134
bag72
(g73
(I0
tp135
g75
tp136
Rp137
(I1
(I1
tp138
g7
I00
S'\xb9\x12\xaeycV7@'
p139
tp140
bag72
(g73
(I0
tp141
g75
tp142
Rp143
(I1
(I1
tp144
g7
I00
S'\x06\x97\x98]"\x0e9@'
p145
tp146
bag72
(g73
(I0
tp147
g75
tp148
Rp149
(I1
(I1
tp150
g7
I00
S'\xd6\x06\x08\xa0\x05\x10@@'
p151
tp152
bag72
(g73
(I0
tp153
g75
tp154
Rp155
(I1
(I1
tp156
g7
I00
S'\x83B\x87\xba\x89\x86;@'
p157
tp158
bag72
(g73
(I0
tp159
g75
tp160
Rp161
(I1
(I1
tp162
g7
I00
S't\xb4\x95\xd7\x88\xeeA@'
p163
tp164
bag72
(g73
(I0
tp165
g75
tp166
Rp167
(I1
(I1
tp168
g7
I00
S'F\xc8kT\x0b\x94>@'
p169
tp170
bag72
(g73
(I0
tp171
g75
tp172
Rp173
(I1
(I1
tp174
g7
I00
S'\x04w\x9b\x04\xc2\xc5H@'
p175
tp176
bag72
(g73
(I0
tp177
g75
tp178
Rp179
(I1
(I1
tp180
g7
I00
S'\xd5\x97k\xd4\xf7\x02=@'
p181
tp182
bag72
(g73
(I0
tp183
g75
tp184
Rp185
(I1
(I1
tp186
g7
I00
S'\xc8\x91\xb1\xb9\xdc\xf27@'
p187
tp188
bag72
(g73
(I0
tp189
g75
tp190
Rp191
(I1
(I1
tp192
g7
I00
S'\x0f\x8ceh\xab\xb4C@'
p193
tp194
basS'size'
p195
(lp196
I48
aI132
aI100
aI72
aI35
aI59
aI56
aI36
aI84
aI39
aI41
aI41
aI34
aI60
aI50
aI53
aI87
aI76
aI75
aI67
as.