(dp0
S'mse_test'
p1
(lp2
cnumpy.core.multiarray
scalar
p3
(cnumpy
dtype
p4
(S'f4'
p5
I0
I1
tp6
Rp7
(I3
S'<'
p8
NNNI-1
I-1
I0
tp9
bS'\xaaz2;'
p10
tp11
Rp12
ag3
(g7
S'\xc4\xd0%;'
p13
tp14
Rp15
ag3
(g7
S'\x90\xa1\xe3:'
p16
tp17
Rp18
ag3
(g7
S'\x82\xc3\x9c:'
p19
tp20
Rp21
ag3
(g7
S'\xa2\xe0\x04;'
p22
tp23
Rp24
ag3
(g7
S'\xde\xe0\xa0:'
p25
tp26
Rp27
ag3
(g7
S't\xdf\xb2:'
p28
tp29
Rp30
ag3
(g7
S'\x90\xe4[:'
p31
tp32
Rp33
ag3
(g7
S'\x08\x89\xe1:'
p34
tp35
Rp36
ag3
(g7
S'\xf6N+:'
p37
tp38
Rp39
ag3
(g7
S'\x83Y?:'
p40
tp41
Rp42
ag3
(g7
S'0\xbf\t:'
p43
tp44
Rp45
ag3
(g7
S'{\x9e\xf3:'
p46
tp47
Rp48
ag3
(g7
S'2\x7f\x11:'
p49
tp50
Rp51
ag3
(g7
S'\x926\x8c9'
p52
tp53
Rp54
ag3
(g7
S'\xd0\x99j9'
p55
tp56
Rp57
ag3
(g7
S'\xa5N\x1f9'
p58
tp59
Rp60
ag3
(g7
S'@\x9a\xb2:'
p61
tp62
Rp63
ag3
(g7
S'\xa4\x8a7;'
p64
tp65
Rp66
ag3
(g7
S'\x0b\x89\xb89'
p67
tp68
Rp69
asS'mse_train'
p70
(lp71
g3
(g7
S';\xc7!;'
p72
tp73
Rp74
ag3
(g7
S'\t\xf5@;'
p75
tp76
Rp77
ag3
(g7
S'\x9a\x87\xae:'
p78
tp79
Rp80
ag3
(g7
S'l<\x94:'
p81
tp82
Rp83
ag3
(g7
S'x\xb9\xfa:'
p84
tp85
Rp86
ag3
(g7
S'k:\xb0:'
p87
tp88
Rp89
ag3
(g7
S'\xc8\xd2\xb6:'
p90
tp91
Rp92
ag3
(g7
S'F\x93::'
p93
tp94
Rp95
ag3
(g7
S'\x97\x1b\xce:'
p96
tp97
Rp98
ag3
(g7
S'\x9b0\x14:'
p99
tp100
Rp101
ag3
(g7
S'9CG:'
p102
tp103
Rp104
ag3
(g7
S'\xe0\xd2\xf39'
p105
tp106
Rp107
ag3
(g7
S'R,\xe6:'
p108
tp109
Rp110
ag3
(g7
S'\x19~\x15:'
p111
tp112
Rp113
ag3
(g7
S'MC\x889'
p114
tp115
Rp116
ag3
(g7
S'\x9c\xfdV9'
p117
tp118
Rp119
ag3
(g7
S'\x08\xb729'
p120
tp121
Rp122
ag3
(g7
S'\x8a\x0b\xc2:'
p123
tp124
Rp125
ag3
(g7
S'\x08\xe0F;'
p126
tp127
Rp128
ag3
(g7
S'\x86\xb4\xa69'
p129
tp130
Rp131
as.