(dp0
S'mse_test'
p1
(lp2
cnumpy.core.multiarray
scalar
p3
(cnumpy
dtype
p4
(S'f8'
p5
I0
I1
tp6
Rp7
(I3
S'<'
p8
NNNI-1
I-1
I0
tp9
bS'\x8b\x91\xaf\xf1b\xd6\x91@'
p10
tp11
Rp12
ag3
(g7
S'\xb7\r^\ti\xf8\x86@'
p13
tp14
Rp15
ag3
(g7
S'~\xf5\xe7\x08"\x84\x8a@'
p16
tp17
Rp18
ag3
(g7
S'4\x96\xce5\x8e\xe8\x84@'
p19
tp20
Rp21
ag3
(g7
S'\xf2aS\xa6\x94a\x93@'
p22
tp23
Rp24
ag3
(g7
S'\xe6\xd8{\x08\xd3\x11\x86@'
p25
tp26
Rp27
ag3
(g7
S'`\xaa8\xe5\x13\xfd\x91@'
p28
tp29
Rp30
ag3
(g7
S'\xff\xb1\xec\xdf\xcds\x93@'
p31
tp32
Rp33
ag3
(g7
S'\x84\x8ami\n\xd0\x88@'
p34
tp35
Rp36
ag3
(g7
S'\xfb(k\xc7a\x08\x90@'
p37
tp38
Rp39
ag3
(g7
S'\xc7\x85\xadd\x88\xb9\x8f@'
p40
tp41
Rp42
ag3
(g7
S'\x7fkl\xae\xd2)\x82@'
p43
tp44
Rp45
ag3
(g7
S'j\xfbj\xa9\xc4\x98\xa0@'
p46
tp47
Rp48
ag3
(g7
S'I\xd6Y*\xfbz\x91@'
p49
tp50
Rp51
ag3
(g7
S'"\x14\xa5\x15g\x14\x8b@'
p52
tp53
Rp54
ag3
(g7
S'\xcb}\x99Xb\xf3\x87@'
p55
tp56
Rp57
ag3
(g7
S'\xb0RDy=h\x8d@'
p58
tp59
Rp60
ag3
(g7
S'Th\xaf\xaaR&\x8e@'
p61
tp62
Rp63
ag3
(g7
S'I\x0f\xaf\xb0\xd0K\x8f@'
p64
tp65
Rp66
ag3
(g7
S'_\x823\xe0\xaf\xc4\x87@'
p67
tp68
Rp69
asS'mse_train'
p70
(lp71
cnumpy.core.multiarray
_reconstruct
p72
(cnumpy
ndarray
p73
(I0
tp74
S'b'
p75
tp76
Rp77
(I1
(I1
tp78
g7
I00
S'\xfe\xa8\x0e\xe8\\C\xa8@'
p79
tp80
bag72
(g73
(I0
tp81
g75
tp82
Rp83
(I1
(I1
tp84
g7
I00
S'}\x13\x9d=\x0cO\x9b@'
p85
tp86
bag72
(g73
(I0
tp87
g75
tp88
Rp89
(I1
(I1
tp90
g7
I00
S'?g\x1eh\xd3\xf4\x9e@'
p91
tp92
bag72
(g73
(I0
tp93
g75
tp94
Rp95
(I1
(I1
tp96
g7
I00
S'\x1e\x9e\x8b\x05\xdaR\x97@'
p97
tp98
bag72
(g73
(I0
tp99
g75
tp100
Rp101
(I1
(I1
tp102
g7
I00
S'\x90\xd5N\xe3C\xc7\x96@'
p103
tp104
bag72
(g73
(I0
tp105
g75
tp106
Rp107
(I1
(I1
tp108
g7
I00
S'\xba\xd6$t\x04\xd1\xa1B'
p109
tp110
bag72
(g73
(I0
tp111
g75
tp112
Rp113
(I1
(I1
tp114
g7
I00
S'c*\x13\xa7\xe69\x90C'
p115
tp116
bag72
(g73
(I0
tp117
g75
tp118
Rp119
(I1
(I1
tp120
g7
I00
S'F3R{\x92"\x9b@'
p121
tp122
bag72
(g73
(I0
tp123
g75
tp124
Rp125
(I1
(I1
tp126
g7
I00
S'\x965H\x1a=\\\x90@'
p127
tp128
bag72
(g73
(I0
tp129
g75
tp130
Rp131
(I1
(I1
tp132
g7
I00
S'\x9a\xd0\xb8\xcb\x9c\xcb\xd3@'
p133
tp134
bag72
(g73
(I0
tp135
g75
tp136
Rp137
(I1
(I1
tp138
g7
I00
S'\xcf\xb0\xe3F\x0b\x05\x14A'
p139
tp140
bag72
(g73
(I0
tp141
g75
tp142
Rp143
(I1
(I1
tp144
g7
I00
S'$s\x9c\x9d\x16w\xb0@'
p145
tp146
bag72
(g73
(I0
tp147
g75
tp148
Rp149
(I1
(I1
tp150
g7
I00
S'\xab\x91\x8a\x1f\xda\x8d\xa1@'
p151
tp152
bag72
(g73
(I0
tp153
g75
tp154
Rp155
(I1
(I1
tp156
g7
I00
S'^@X]\x82J\xa0@'
p157
tp158
bag72
(g73
(I0
tp159
g75
tp160
Rp161
(I1
(I1
tp162
g7
I00
S'\xe5\xc2Q\xaf\xf6\x9d\x92@'
p163
tp164
bag72
(g73
(I0
tp165
g75
tp166
Rp167
(I1
(I1
tp168
g7
I00
S'\xd4\xea\xf4\x91aM\x9b@'
p169
tp170
bag72
(g73
(I0
tp171
g75
tp172
Rp173
(I1
(I1
tp174
g7
I00
S'\xe8\xf1\x1b}\xba\xab\xa1@'
p175
tp176
bag72
(g73
(I0
tp177
g75
tp178
Rp179
(I1
(I1
tp180
g7
I00
S'WoLIi\t\x8f@'
p181
tp182
bag72
(g73
(I0
tp183
g75
tp184
Rp185
(I1
(I1
tp186
g7
I00
S'\xcbb\x8b1\x16&\x95@'
p187
tp188
bag72
(g73
(I0
tp189
g75
tp190
Rp191
(I1
(I1
tp192
g7
I00
S'\x0c"\xb5\xbf\xf8^\x9b@'
p193
tp194
basS'size'
p195
(lp196
I136
aI394
aI194
aI183
aI219
aI94
aI193
aI82
aI141
aI134
aI200
aI162
aI9
aI49
aI196
aI123
aI118
aI356
aI213
aI149
as.