(dp0
S'mse_test'
p1
(lp2
cnumpy.core.multiarray
scalar
p3
(cnumpy
dtype
p4
(S'f8'
p5
I0
I1
tp6
Rp7
(I3
S'<'
p8
NNNI-1
I-1
I0
tp9
bS'r*eE\xd0\xd3\xdb?'
p10
tp11
Rp12
ag3
(g7
S'\xe6\xe7\xeb\xb0R;\xc1?'
p13
tp14
Rp15
ag3
(g7
S'c\xea\xcf|\xbf\x14\xde?'
p16
tp17
Rp18
ag3
(g7
S'X\x85k8\\h\xd9?'
p19
tp20
Rp21
ag3
(g7
S'J\\\xf8\n\xda\xc0\xd4?'
p22
tp23
Rp24
ag3
(g7
S'\xa6u\x94\rk\xbb\xd7?'
p25
tp26
Rp27
ag3
(g7
S'\x8e\xf1\x9c\xaa2\x07\xdd?'
p28
tp29
Rp30
ag3
(g7
S'\x93\xadMRE6\xde?'
p31
tp32
Rp33
ag3
(g7
S'\xbc\xd7cd\xc1/\xdd?'
p34
tp35
Rp36
ag3
(g7
S'\xa5k\xfcY\x16\xb9\xd8?'
p37
tp38
Rp39
ag3
(g7
S'\xacKz\xd7\xac\xad\xa4?'
p40
tp41
Rp42
ag3
(g7
S'\x9d\xac\x88Q\x8d\\\xdc?'
p43
tp44
Rp45
ag3
(g7
S'\x08+q\x1f0\x02\xd7?'
p46
tp47
Rp48
ag3
(g7
S'N:\xeb]\xedT\xdf?'
p49
tp50
Rp51
ag3
(g7
S'1\xf2\x8c\x07?\xf0\xdc?'
p52
tp53
Rp54
ag3
(g7
S'\x88\xff\x1d\xbb\x7fZ\xd7?'
p55
tp56
Rp57
ag3
(g7
S'.G\xd3\xa4\xa4\xc0\xd4?'
p58
tp59
Rp60
ag3
(g7
S'\xa8\xe8\x84\xfe0\x11\xd9?'
p61
tp62
Rp63
ag3
(g7
S'n\xd3\xd8\xa0\xb2D\xdd?'
p64
tp65
Rp66
ag3
(g7
S'\xc8n\xae\xbfi\xd0\xde?'
p67
tp68
Rp69
asS'mse_train'
p70
(lp71
cnumpy.core.multiarray
_reconstruct
p72
(cnumpy
ndarray
p73
(I0
tp74
S'b'
p75
tp76
Rp77
(I1
(I1
tp78
g7
I00
S'd\x8b\xde\xa0zC\xdb?'
p79
tp80
bag72
(g73
(I0
tp81
g75
tp82
Rp83
(I1
(I1
tp84
g7
I00
S'\tq\xff\x93\x1er\xc7?'
p85
tp86
bag72
(g73
(I0
tp87
g75
tp88
Rp89
(I1
(I1
tp90
g7
I00
S'i\xdb\x03\xd3>\xb3\xda?'
p91
tp92
bag72
(g73
(I0
tp93
g75
tp94
Rp95
(I1
(I1
tp96
g7
I00
S'\xae\xf4\x1c\xa4W\xde\xdb?'
p97
tp98
bag72
(g73
(I0
tp99
g75
tp100
Rp101
(I1
(I1
tp102
g7
I00
S'\xa8\x13\xff\xdd\xed\x9e\xd5?'
p103
tp104
bag72
(g73
(I0
tp105
g75
tp106
Rp107
(I1
(I1
tp108
g7
I00
S'\x9f\xb8\xd2\xee\x93I\xdc?'
p109
tp110
bag72
(g73
(I0
tp111
g75
tp112
Rp113
(I1
(I1
tp114
g7
I00
S'\x9a\x99\x90\x07\xa2\xf6\xda?'
p115
tp116
bag72
(g73
(I0
tp117
g75
tp118
Rp119
(I1
(I1
tp120
g7
I00
S'\x9bj\xa4]\xdd\xaa\xda?'
p121
tp122
bag72
(g73
(I0
tp123
g75
tp124
Rp125
(I1
(I1
tp126
g7
I00
S'\x0f\xe0\x1eY~\xec\xda?'
p127
tp128
bag72
(g73
(I0
tp129
g75
tp130
Rp131
(I1
(I1
tp132
g7
I00
S'\x18\xbb\xb8\x1b)\n\xdc?'
p133
tp134
bag72
(g73
(I0
tp135
g75
tp136
Rp137
(I1
(I1
tp138
g7
I00
S'\x01z\xb3\xae\x13\x94\xa2?'
p139
tp140
bag72
(g73
(I0
tp141
g75
tp142
Rp143
(I1
(I1
tp144
g7
I00
S'\xdd\xaa\xd5]K!\xdb?'
p145
tp146
bag72
(g73
(I0
tp147
g75
tp148
Rp149
(I1
(I1
tp150
g7
I00
S':\x8b[\xaa\xe2w\xdc?'
p151
tp152
bag72
(g73
(I0
tp153
g75
tp154
Rp155
(I1
(I1
tp156
g7
I00
S'\xfey\xea\xd0\xb9\x81\xe1?'
p157
tp158
bag72
(g73
(I0
tp159
g75
tp160
Rp161
(I1
(I1
tp162
g7
I00
S'\x80\x99T\xf0^\xfc\xda?'
p163
tp164
bag72
(g73
(I0
tp165
g75
tp166
Rp167
(I1
(I1
tp168
g7
I00
S'!Vp\xc3\xcea\xdc?'
p169
tp170
bag72
(g73
(I0
tp171
g75
tp172
Rp173
(I1
(I1
tp174
g7
I00
S'4\x04\x03\x89E\x08\xdd?'
p175
tp176
bag72
(g73
(I0
tp177
g75
tp178
Rp179
(I1
(I1
tp180
g7
I00
S'\x9a\rP\xc2\xf1\x8e\xd8?'
p181
tp182
bag72
(g73
(I0
tp183
g75
tp184
Rp185
(I1
(I1
tp186
g7
I00
S'&\xa1\x01\nB\xe7\xda?'
p187
tp188
bag72
(g73
(I0
tp189
g75
tp190
Rp191
(I1
(I1
tp192
g7
I00
S'm\x13\xb2DJ\x92\xe1?'
p193
tp194
basS'size'
p195
(lp196
I3
aI16
aI1
aI3
aI16
aI1
aI2
aI1
aI1
aI1
aI17
aI1
aI3
aI1
aI1
aI1
aI2
aI12
aI1
aI1
as.