(dp0
S'mse_test'
p1
(lp2
cnumpy.core.multiarray
scalar
p3
(cnumpy
dtype
p4
(S'f8'
p5
I0
I1
tp6
Rp7
(I3
S'<'
p8
NNNI-1
I-1
I0
tp9
bS"\xc6o\x08\x14'\xafK@"
p10
tp11
Rp12
ag3
(g7
S'\xe5\xca\xfdhR\xe5L@'
p13
tp14
Rp15
ag3
(g7
S'\xff\xfb\xe8\xff\x92\xcc@@'
p16
tp17
Rp18
ag3
(g7
S'\xf2V\xe2KY\x93P@'
p19
tp20
Rp21
ag3
(g7
S'\xec,\xb3\xf2\x7f\x9cF@'
p22
tp23
Rp24
ag3
(g7
S'\x9c\x06\x867@\x10N@'
p25
tp26
Rp27
ag3
(g7
S'\xb1\xfd"Bx\x17M@'
p28
tp29
Rp30
ag3
(g7
S'\x7f\x0f\xc1(\xff\x97R@'
p31
tp32
Rp33
ag3
(g7
S'j\x98z\xf4\xb6\x08E@'
p34
tp35
Rp36
ag3
(g7
S'b0S\xb5\x9fj2@'
p37
tp38
Rp39
ag3
(g7
S'\x04y\xdby}sA@'
p40
tp41
Rp42
ag3
(g7
S'l1\xc8\x1c\x11\x8a7@'
p43
tp44
Rp45
ag3
(g7
S'\x1e\x14c\r\xefFO@'
p46
tp47
Rp48
ag3
(g7
S'\xa1e\xa4\x9c\x06X?@'
p49
tp50
Rp51
ag3
(g7
S'\xb0N\x82\xdd\x0f\x83A@'
p52
tp53
Rp54
ag3
(g7
S'Xd\xa88\x94\xafQ@'
p55
tp56
Rp57
ag3
(g7
S'\xe3F\xfe\xe4\xe0"E@'
p58
tp59
Rp60
ag3
(g7
S'\xbe\x82=\xdd\xe8\xafP@'
p61
tp62
Rp63
ag3
(g7
S'\x99x\x91_\xd0rD@'
p64
tp65
Rp66
ag3
(g7
S'\xfa\x90d\xa9\xf1*F@'
p67
tp68
Rp69
asS'mse_train'
p70
(lp71
cnumpy.core.multiarray
_reconstruct
p72
(cnumpy
ndarray
p73
(I0
tp74
S'b'
p75
tp76
Rp77
(I1
(I1
tp78
g7
I00
S'[K\xef\xf8N\x80Y@'
p79
tp80
bag72
(g73
(I0
tp81
g75
tp82
Rp83
(I1
(I1
tp84
g7
I00
S"'\x89\x1d\xa0\xe8\xfcN@"
p85
tp86
bag72
(g73
(I0
tp87
g75
tp88
Rp89
(I1
(I1
tp90
g7
I00
S'\x0e(\x05\xfaN\xe1@@'
p91
tp92
bag72
(g73
(I0
tp93
g75
tp94
Rp95
(I1
(I1
tp96
g7
I00
S'\x80H\xcd\x18\x8a\xb0S@'
p97
tp98
bag72
(g73
(I0
tp99
g75
tp100
Rp101
(I1
(I1
tp102
g7
I00
S'K\xa1/\x83\x15hI@'
p103
tp104
bag72
(g73
(I0
tp105
g75
tp106
Rp107
(I1
(I1
tp108
g7
I00
S'\x9bs\x1f\x16\x87\xb2I@'
p109
tp110
bag72
(g73
(I0
tp111
g75
tp112
Rp113
(I1
(I1
tp114
g7
I00
S'mL\r\np\x03O@'
p115
tp116
bag72
(g73
(I0
tp117
g75
tp118
Rp119
(I1
(I1
tp120
g7
I00
S'\x9bl\xafL\xb6\xc5L@'
p121
tp122
bag72
(g73
(I0
tp123
g75
tp124
Rp125
(I1
(I1
tp126
g7
I00
S'\x8c\x8ayK}\n\x99@'
p127
tp128
bag72
(g73
(I0
tp129
g75
tp130
Rp131
(I1
(I1
tp132
g7
I00
S'a{\xd8\x06\xc7`A@'
p133
tp134
bag72
(g73
(I0
tp135
g75
tp136
Rp137
(I1
(I1
tp138
g7
I00
S'\n\xe6\xda\xa3\xa8\\E@'
p139
tp140
bag72
(g73
(I0
tp141
g75
tp142
Rp143
(I1
(I1
tp144
g7
I00
S'w\x19\xf9\x8d\xbe\xfe;@'
p145
tp146
bag72
(g73
(I0
tp147
g75
tp148
Rp149
(I1
(I1
tp150
g7
I00
S'\xf7\x9cBK\x1dOU@'
p151
tp152
bag72
(g73
(I0
tp153
g75
tp154
Rp155
(I1
(I1
tp156
g7
I00
S'/L\xf2\xd5RXA@'
p157
tp158
bag72
(g73
(I0
tp159
g75
tp160
Rp161
(I1
(I1
tp162
g7
I00
S'\x93\x1cI%.\xc3>@'
p163
tp164
bag72
(g73
(I0
tp165
g75
tp166
Rp167
(I1
(I1
tp168
g7
I00
S'=i\xc1\xbd\xca\rX@'
p169
tp170
bag72
(g73
(I0
tp171
g75
tp172
Rp173
(I1
(I1
tp174
g7
I00
S'q\n\x89\xf4\xf07G@'
p175
tp176
bag72
(g73
(I0
tp177
g75
tp178
Rp179
(I1
(I1
tp180
g7
I00
S'\x95\xc2\x05sb\x89U@'
p181
tp182
bag72
(g73
(I0
tp183
g75
tp184
Rp185
(I1
(I1
tp186
g7
I00
S'\xc4\xd0T\x96=?C@'
p187
tp188
bag72
(g73
(I0
tp189
g75
tp190
Rp191
(I1
(I1
tp192
g7
I00
S'9\xcc\x92\xfb\x8b\x03N@'
p193
tp194
basS'size'
p195
(lp196
I5
aI31
aI26
aI23
aI14
aI19
aI9
aI13
aI48
aI87
aI20
aI21
aI9
aI56
aI21
aI20
aI12
aI58
aI24
aI22
as.