(dp0
S'mse_test'
p1
(lp2
cnumpy.core.multiarray
scalar
p3
(cnumpy
dtype
p4
(S'f8'
p5
I0
I1
tp6
Rp7
(I3
S'<'
p8
NNNI-1
I-1
I0
tp9
bS'\x15x`\x94O\xf0G@'
p10
tp11
Rp12
ag3
(g7
S'\xe4\xa3\xf3\xfc\x1dt;@'
p13
tp14
Rp15
ag3
(g7
S'\x9ek\xfd\xb7h\xa3=@'
p16
tp17
Rp18
ag3
(g7
S'\xaa\x92\xa6<\nVB@'
p19
tp20
Rp21
ag3
(g7
S'\x7fr\xf7\xc3\xda\xa17@'
p22
tp23
Rp24
ag3
(g7
S'\xd4u\xa6\xdf^\xee=@'
p25
tp26
Rp27
ag3
(g7
S'\x0b\xa9\t\x963~9@'
p28
tp29
Rp30
ag3
(g7
S'\xfa\x01\x9d\x90\ty:@'
p31
tp32
Rp33
ag3
(g7
S'&\xcc!>8-=@'
p34
tp35
Rp36
ag3
(g7
S'j\xd5}\xe1\xac\x01<@'
p37
tp38
Rp39
ag3
(g7
S'\ty\xf7\x81e\xc16@'
p40
tp41
Rp42
ag3
(g7
S'\xc7\x19s\xb8\xc3\xb31@'
p43
tp44
Rp45
ag3
(g7
S'\x00\xd5]%+c6@'
p46
tp47
Rp48
ag3
(g7
S'\xa5V:\x01\xa0\xf44@'
p49
tp50
Rp51
ag3
(g7
S'w\x11\xb31]u6@'
p52
tp53
Rp54
ag3
(g7
S'TC\xbd\x06{NP@'
p55
tp56
Rp57
ag3
(g7
S'\xe3\x1f\xf87\xd2\xf89@'
p58
tp59
Rp60
ag3
(g7
S'\x80t\x13\xae\x9cq6@'
p61
tp62
Rp63
ag3
(g7
S'\t\xf9;\x98\xef\\1@'
p64
tp65
Rp66
ag3
(g7
S'\xd5\x90\x99x\x9c\xc65@'
p67
tp68
Rp69
asS'mse_train'
p70
(lp71
cnumpy.core.multiarray
_reconstruct
p72
(cnumpy
ndarray
p73
(I0
tp74
S'b'
p75
tp76
Rp77
(I1
(I1
tp78
g7
I00
S')^\x06\x9a^\x94S@'
p79
tp80
bag72
(g73
(I0
tp81
g75
tp82
Rp83
(I1
(I1
tp84
g7
I00
S'\xab\xf93\x84\xde\xc1D@'
p85
tp86
bag72
(g73
(I0
tp87
g75
tp88
Rp89
(I1
(I1
tp90
g7
I00
S'\x01\x01mFUJ>@'
p91
tp92
bag72
(g73
(I0
tp93
g75
tp94
Rp95
(I1
(I1
tp96
g7
I00
S'\xb1&\x1f\xd8\x9brG@'
p97
tp98
bag72
(g73
(I0
tp99
g75
tp100
Rp101
(I1
(I1
tp102
g7
I00
S'\xeb\xb8t\x0e\xf4.7@'
p103
tp104
bag72
(g73
(I0
tp105
g75
tp106
Rp107
(I1
(I1
tp108
g7
I00
S'\x94~\xff\x84A\x0f8@'
p109
tp110
bag72
(g73
(I0
tp111
g75
tp112
Rp113
(I1
(I1
tp114
g7
I00
S'\xb7\xfc\x9c\x17\x8d\xa8<@'
p115
tp116
bag72
(g73
(I0
tp117
g75
tp118
Rp119
(I1
(I1
tp120
g7
I00
S'\xdc\xff\xa9\xe5\xbc\x1bA@'
p121
tp122
bag72
(g73
(I0
tp123
g75
tp124
Rp125
(I1
(I1
tp126
g7
I00
S"\xf0PQ\t'\xb2M@"
p127
tp128
bag72
(g73
(I0
tp129
g75
tp130
Rp131
(I1
(I1
tp132
g7
I00
S'(\xd9u\x9bYoD@'
p133
tp134
bag72
(g73
(I0
tp135
g75
tp136
Rp137
(I1
(I1
tp138
g7
I00
S'\xa5\x80\xccN6Y9@'
p139
tp140
bag72
(g73
(I0
tp141
g75
tp142
Rp143
(I1
(I1
tp144
g7
I00
S'\xec\xa9>\x83e\xb48@'
p145
tp146
bag72
(g73
(I0
tp147
g75
tp148
Rp149
(I1
(I1
tp150
g7
I00
S'%\x83z\x94\x97"9@'
p151
tp152
bag72
(g73
(I0
tp153
g75
tp154
Rp155
(I1
(I1
tp156
g7
I00
S'\xa2M]\xdb\x01\x81A@'
p157
tp158
bag72
(g73
(I0
tp159
g75
tp160
Rp161
(I1
(I1
tp162
g7
I00
S'\xb2\xaa\xcc\x07\xce0?@'
p163
tp164
bag72
(g73
(I0
tp165
g75
tp166
Rp167
(I1
(I1
tp168
g7
I00
S'\xa9\xbc\x19\xea\xc7\xdfQ@'
p169
tp170
bag72
(g73
(I0
tp171
g75
tp172
Rp173
(I1
(I1
tp174
g7
I00
S'Vx\xfa\xeeu\x16E@'
p175
tp176
bag72
(g73
(I0
tp177
g75
tp178
Rp179
(I1
(I1
tp180
g7
I00
S'>5\xafv\x9dm@@'
p181
tp182
bag72
(g73
(I0
tp183
g75
tp184
Rp185
(I1
(I1
tp186
g7
I00
S'k\x1c\n\x10\xd5\xd6:@'
p187
tp188
bag72
(g73
(I0
tp189
g75
tp190
Rp191
(I1
(I1
tp192
g7
I00
S'\xe1)r\xb0\x8a\x89B@'
p193
tp194
basS'size'
p195
(lp196
I12
aI15
aI10
aI8
aI12
aI17
aI16
aI17
aI10
aI7
aI10
aI14
aI7
aI16
aI16
aI8
aI17
aI15
aI12
aI9
as.