(dp0
S'mse_test'
p1
(lp2
cnumpy.core.multiarray
scalar
p3
(cnumpy
dtype
p4
(S'f8'
p5
I0
I1
tp6
Rp7
(I3
S'<'
p8
NNNI-1
I-1
I0
tp9
bS'X\x00/\xeb\x12\n$@'
p10
tp11
Rp12
ag3
(g7
S'\xeb6\xe8\xe5\x8d\xba @'
p13
tp14
Rp15
ag3
(g7
S'\x904\xba\xa04]0@'
p16
tp17
Rp18
ag3
(g7
S'K\xc9\xd0\x06\xbcK*@'
p19
tp20
Rp21
ag3
(g7
S'\xc7o.\x9c\xa7\xae4@'
p22
tp23
Rp24
ag3
(g7
S'\xbcP\xdb\xee\xa68/@'
p25
tp26
Rp27
ag3
(g7
S'\xcf\x97\xe7\x97\xe1>%@'
p28
tp29
Rp30
ag3
(g7
S'\rJnx\x9f%#@'
p31
tp32
Rp33
ag3
(g7
S')s\xefd\x15:*@'
p34
tp35
Rp36
ag3
(g7
S'\xb6\xc92J\xf8\xac4@'
p37
tp38
Rp39
ag3
(g7
S'\x0b\xc1,o\t`@@'
p40
tp41
Rp42
ag3
(g7
S'V\xa3\xf3a\xf1\xf40@'
p43
tp44
Rp45
ag3
(g7
S'\xf4\xf5\xb9\xa7hU1@'
p46
tp47
Rp48
ag3
(g7
S'\xffe\xf1YK\xa24@'
p49
tp50
Rp51
ag3
(g7
S'n@\x8c\xc5\x8d\x1e-@'
p52
tp53
Rp54
ag3
(g7
S'3\x94U\xf5\xc4\xa6$@'
p55
tp56
Rp57
ag3
(g7
S'\xfb\xfbn85T%@'
p58
tp59
Rp60
ag3
(g7
S':\xf3d\xb8Dl,@'
p61
tp62
Rp63
ag3
(g7
S'\x19q\xd5M\x95\x98%@'
p64
tp65
Rp66
ag3
(g7
S'I\xb7d\xe6\xb3\x92#@'
p67
tp68
Rp69
asS'mse_train'
p70
(lp71
cnumpy.core.multiarray
_reconstruct
p72
(cnumpy
ndarray
p73
(I0
tp74
S'b'
p75
tp76
Rp77
(I1
(I1
tp78
g7
I00
S'\x125\xd7_\x98\x80\x90@'
p79
tp80
bag72
(g73
(I0
tp81
g75
tp82
Rp83
(I1
(I1
tp84
g7
I00
S'\xd6\x1d\xdc\x9c\xf8\x9f7@'
p85
tp86
bag72
(g73
(I0
tp87
g75
tp88
Rp89
(I1
(I1
tp90
g7
I00
S'G\xef\x88\xc8Z\x019@'
p91
tp92
bag72
(g73
(I0
tp93
g75
tp94
Rp95
(I1
(I1
tp96
g7
I00
S'e\xe7{z\x9a\x80P@'
p97
tp98
bag72
(g73
(I0
tp99
g75
tp100
Rp101
(I1
(I1
tp102
g7
I00
S' \x8c\xe6\xe4\x14\xd09@'
p103
tp104
bag72
(g73
(I0
tp105
g75
tp106
Rp107
(I1
(I1
tp108
g7
I00
S'\xcf\xcfo0\xe9)J@'
p109
tp110
bag72
(g73
(I0
tp111
g75
tp112
Rp113
(I1
(I1
tp114
g7
I00
S'\xf1\x06T\x82\xcb\x83Q@'
p115
tp116
bag72
(g73
(I0
tp117
g75
tp118
Rp119
(I1
(I1
tp120
g7
I00
S'\xf5\xb4\xa7\t\x13+P@'
p121
tp122
bag72
(g73
(I0
tp123
g75
tp124
Rp125
(I1
(I1
tp126
g7
I00
S'{\xac\x1b\xad$\xf7;@'
p127
tp128
bag72
(g73
(I0
tp129
g75
tp130
Rp131
(I1
(I1
tp132
g7
I00
S'\xbf\xa8NS\xee\x05a@'
p133
tp134
bag72
(g73
(I0
tp135
g75
tp136
Rp137
(I1
(I1
tp138
g7
I00
S'\x9e\xfc\xf1\x81\xd6\xd7E@'
p139
tp140
bag72
(g73
(I0
tp141
g75
tp142
Rp143
(I1
(I1
tp144
g7
I00
S'\xee"\xf8\x0c\xeaO:@'
p145
tp146
bag72
(g73
(I0
tp147
g75
tp148
Rp149
(I1
(I1
tp150
g7
I00
S'L\xef\xf6\xcc\x98\xfcZ@'
p151
tp152
bag72
(g73
(I0
tp153
g75
tp154
Rp155
(I1
(I1
tp156
g7
I00
S'\xd1\xb8=Z$\xe1@@'
p157
tp158
bag72
(g73
(I0
tp159
g75
tp160
Rp161
(I1
(I1
tp162
g7
I00
S'\xb9D\x15i\x0cN<@'
p163
tp164
bag72
(g73
(I0
tp165
g75
tp166
Rp167
(I1
(I1
tp168
g7
I00
S'\x87\xd0\x80O \xe01@'
p169
tp170
bag72
(g73
(I0
tp171
g75
tp172
Rp173
(I1
(I1
tp174
g7
I00
S'\x85$\xd7VN\x06:@'
p175
tp176
bag72
(g73
(I0
tp177
g75
tp178
Rp179
(I1
(I1
tp180
g7
I00
S'\x83\x9a\x97\x0f>\x90>@'
p181
tp182
bag72
(g73
(I0
tp183
g75
tp184
Rp185
(I1
(I1
tp186
g7
I00
S'b\x8b\xa0\xa5\xb8u6@'
p187
tp188
bag72
(g73
(I0
tp189
g75
tp190
Rp191
(I1
(I1
tp192
g7
I00
S'(\xfe\xfb\xf3.\x1b:@'
p193
tp194
basS'size'
p195
(lp196
I134
aI105
aI182
aI227
aI68
aI237
aI281
aI153
aI179
aI189
aI149
aI162
aI111
aI71
aI86
aI132
aI225
aI132
aI90
aI335
as.