(dp0
S'mse_test'
p1
(lp2
cnumpy.core.multiarray
scalar
p3
(cnumpy
dtype
p4
(S'f8'
p5
I0
I1
tp6
Rp7
(I3
S'<'
p8
NNNI-1
I-1
I0
tp9
bS'-\xcd\xad=\xe6\xb9\x8d@'
p10
tp11
Rp12
ag3
(g7
S'f\x1a\x91I\xefLt@'
p13
tp14
Rp15
ag3
(g7
S'J\xa1\x14J\xa1\xf4r@'
p16
tp17
Rp18
ag3
(g7
S'c,\xc6b,\xb6v@'
p19
tp20
Rp21
ag3
(g7
S'\x98\x839\x98\x83\ty@'
p22
tp23
Rp24
ag3
(g7
S'\x039\xf5r\xe0\x85\x81@'
p25
tp26
Rp27
ag3
(g7
S'z\x1b\xa4\xae\xa4J\x87@'
p28
tp29
Rp30
ag3
(g7
S';\xb1\x13;\xb1\x93x@'
p31
tp32
Rp33
ag3
(g7
S'gr&gr\x9eq@'
p34
tp35
Rp36
ag3
(g7
S'~\xdf\xf7}\xdf\x17v@'
p37
tp38
Rp39
ag3
(g7
S'\xecl\x067-\x16\x8f@'
p40
tp41
Rp42
ag3
(g7
S'\xc6\xbd\x17XT\xecv@'
p43
tp44
Rp45
ag3
(g7
S'\xa0\x00\n\xa0\x00\x92v@'
p46
tp47
Rp48
ag3
(g7
S'~\xda\xa7}\xda?t@'
p49
tp50
Rp51
ag3
(g7
S'\r\xd7p\r\xd7(s@'
p52
tp53
Rp54
ag3
(g7
S'\x8b\xfdF\x120\x0c{@'
p55
tp56
Rp57
ag3
(g7
S"\x0c'\n\xe9\xf4\xd0t@"
p58
tp59
Rp60
ag3
(g7
S'\xb9\x95[\xb9\x95\x0br@'
p61
tp62
Rp63
ag3
(g7
S'Wn\xe5VnMw@'
p64
tp65
Rp66
ag3
(g7
S'\xd5\xc6\x7f\x7f\xb8\x1dc@'
p67
tp68
Rp69
asS'mse_train'
p70
(lp71
cnumpy.core.multiarray
_reconstruct
p72
(cnumpy
ndarray
p73
(I0
tp74
S'b'
p75
tp76
Rp77
(I1
(I1
tp78
g7
I00
S'\x1f\xce&\xfe#\xce\x90@'
p79
tp80
bag72
(g73
(I0
tp81
g75
tp82
Rp83
(I1
(I1
tp84
g7
I00
S'\x18\x15\x84\x03\x96`u@'
p85
tp86
bag72
(g73
(I0
tp87
g75
tp88
Rp89
(I1
(I1
tp90
g7
I00
S'\x80\xe9\x9f\x05\x98\xb6u@'
p91
tp92
bag72
(g73
(I0
tp93
g75
tp94
Rp95
(I1
(I1
tp96
g7
I00
S'\x90\x10\xdc\xfb\x08\xd9t@'
p97
tp98
bag72
(g73
(I0
tp99
g75
tp100
Rp101
(I1
(I1
tp102
g7
I00
S'\xed\xc3\x04\xcf>Dt@'
p103
tp104
bag72
(g73
(I0
tp105
g75
tp106
Rp107
(I1
(I1
tp108
g7
I00
S'Jg\x8cf\x17\x99\x81@'
p109
tp110
bag72
(g73
(I0
tp111
g75
tp112
Rp113
(I1
(I1
tp114
g7
I00
S'O\x07\x95\xbc"\xe5\x87@'
p115
tp116
bag72
(g73
(I0
tp117
g75
tp118
Rp119
(I1
(I1
tp120
g7
I00
S'\x12\x9b;\x19\xb1at@'
p121
tp122
bag72
(g73
(I0
tp123
g75
tp124
Rp125
(I1
(I1
tp126
g7
I00
S'\xb8\x15\x92z[!v@'
p127
tp128
bag72
(g73
(I0
tp129
g75
tp130
Rp131
(I1
(I1
tp132
g7
I00
S"\x92a\x9b'\x19\x9eu@"
p133
tp134
bag72
(g73
(I0
tp135
g75
tp136
Rp137
(I1
(I1
tp138
g7
I00
S'Pc\x9b\xbdv\xe9\x8d@'
p139
tp140
bag72
(g73
(I0
tp141
g75
tp142
Rp143
(I1
(I1
tp144
g7
I00
S'\x04\x9b\x80\xc4j\xcbt@'
p145
tp146
bag72
(g73
(I0
tp147
g75
tp148
Rp149
(I1
(I1
tp150
g7
I00
S'9\xcd\xb1\x8c\xd3\x1cu@'
p151
tp152
bag72
(g73
(I0
tp153
g75
tp154
Rp155
(I1
(I1
tp156
g7
I00
S'\x03=\xbf0\xd0cu@'
p157
tp158
bag72
(g73
(I0
tp159
g75
tp160
Rp161
(I1
(I1
tp162
g7
I00
S'\xba\x98\xd1\x99\x8b\xa9u@'
p163
tp164
bag72
(g73
(I0
tp165
g75
tp166
Rp167
(I1
(I1
tp168
g7
I00
S'\xe3\xbbg"\'\xe7z@'
p169
tp170
bag72
(g73
(I0
tp171
g75
tp172
Rp173
(I1
(I1
tp174
g7
I00
S'[pd\xbd\x90?u@'
p175
tp176
bag72
(g73
(I0
tp177
g75
tp178
Rp179
(I1
(I1
tp180
g7
I00
S'L\xe1\xac\xc7\x14\x06v@'
p181
tp182
bag72
(g73
(I0
tp183
g75
tp184
Rp185
(I1
(I1
tp186
g7
I00
S'\xb73\x12s;\xb3t@'
p187
tp188
bag72
(g73
(I0
tp189
g75
tp190
Rp191
(I1
(I1
tp192
g7
I00
S'\xe4uG\xedO\x85a@'
p193
tp194
basS'size'
p195
(lp196
I17
aI16
aI17
aI17
aI17
aI17
aI17
aI16
aI17
aI16
aI17
aI14
aI16
aI17
aI16
aI17
aI14
aI17
aI16
aI17
as.