(dp0
S'mse_test'
p1
(lp2
cnumpy.core.multiarray
scalar
p3
(cnumpy
dtype
p4
(S'f8'
p5
I0
I1
tp6
Rp7
(I3
S'<'
p8
NNNI-1
I-1
I0
tp9
bS"\x18\xe8k'\xdb\xa2T@"
p10
tp11
Rp12
ag3
(g7
S'\x04\x82\xe3\x17^\x85R@'
p13
tp14
Rp15
ag3
(g7
S'\xa2()/\x87\xa2N@'
p16
tp17
Rp18
ag3
(g7
S'\xc3\xa1\xe2\x8f]OF@'
p19
tp20
Rp21
ag3
(g7
S'\x01/le\xae*F@'
p22
tp23
Rp24
ag3
(g7
S'\xb5\x10\x9eK\xe6\xddU@'
p25
tp26
Rp27
ag3
(g7
S'\x05n\x1c\x0bx\x9bH@'
p28
tp29
Rp30
ag3
(g7
S'\x7f\x82g\x89T\xbdA@'
p31
tp32
Rp33
ag3
(g7
S'\xac\x19\x1b\xd75\xef1@'
p34
tp35
Rp36
ag3
(g7
S']\x98e~\x860U@'
p37
tp38
Rp39
ag3
(g7
S'Z\xdd\xd6\xa7\x92cH@'
p40
tp41
Rp42
ag3
(g7
S'\xc2\x17\x05\xc5qKK@'
p43
tp44
Rp45
ag3
(g7
S'e\xd4A\x1e\x99\xa2S@'
p46
tp47
Rp48
ag3
(g7
S'x\xd8\xc3\xec\xaa\x9d:@'
p49
tp50
Rp51
ag3
(g7
S'\xa2k\xd1\xbd\xe5\x8dX@'
p52
tp53
Rp54
ag3
(g7
S'\x1c\xf1\x9c\n\xba\xc3X@'
p55
tp56
Rp57
ag3
(g7
S'\x97\xe8\xd3\xf9q\xc6M@'
p58
tp59
Rp60
ag3
(g7
S'?!e\xb4\xbbbW@'
p61
tp62
Rp63
ag3
(g7
S'"\xe5\xff|:\xbaQ@'
p64
tp65
Rp66
ag3
(g7
S'p\xd7*l\x9a\x98C@'
p67
tp68
Rp69
asS'mse_train'
p70
(lp71
cnumpy.core.multiarray
_reconstruct
p72
(cnumpy
ndarray
p73
(I0
tp74
S'b'
p75
tp76
Rp77
(I1
(I1
tp78
g7
I00
S'\x96\xb5\xe0\xb0\xf6\x08`@'
p79
tp80
bag72
(g73
(I0
tp81
g75
tp82
Rp83
(I1
(I1
tp84
g7
I00
S'\xc2\xc9\x1d\x928\xb9T@'
p85
tp86
bag72
(g73
(I0
tp87
g75
tp88
Rp89
(I1
(I1
tp90
g7
I00
S'\xbc\x88]\n\xa0\x05K@'
p91
tp92
bag72
(g73
(I0
tp93
g75
tp94
Rp95
(I1
(I1
tp96
g7
I00
S'\xa4G\xa6\x82\xfeTF@'
p97
tp98
bag72
(g73
(I0
tp99
g75
tp100
Rp101
(I1
(I1
tp102
g7
I00
S'6\x9a\x86&\x07\x13J@'
p103
tp104
bag72
(g73
(I0
tp105
g75
tp106
Rp107
(I1
(I1
tp108
g7
I00
S'\xb5\xf8"\xe1Z\xb4U@'
p109
tp110
bag72
(g73
(I0
tp111
g75
tp112
Rp113
(I1
(I1
tp114
g7
I00
S'y\x1d\x9c\xff\x99SM@'
p115
tp116
bag72
(g73
(I0
tp117
g75
tp118
Rp119
(I1
(I1
tp120
g7
I00
S'\xb7\xddL\xcdf\xf8C@'
p121
tp122
bag72
(g73
(I0
tp123
g75
tp124
Rp125
(I1
(I1
tp126
g7
I00
S'\x06\x84\xeb\x18\x81(>@'
p127
tp128
bag72
(g73
(I0
tp129
g75
tp130
Rp131
(I1
(I1
tp132
g7
I00
S'i\xbaj\x17\x0f\xe0W@'
p133
tp134
bag72
(g73
(I0
tp135
g75
tp136
Rp137
(I1
(I1
tp138
g7
I00
S'|\xed\xa7g\xf4\x80N@'
p139
tp140
bag72
(g73
(I0
tp141
g75
tp142
Rp143
(I1
(I1
tp144
g7
I00
S'\xab#Q\xb7\x93\xb2U@'
p145
tp146
bag72
(g73
(I0
tp147
g75
tp148
Rp149
(I1
(I1
tp150
g7
I00
S'3\xcdX\x01\xb1\x1c[@'
p151
tp152
bag72
(g73
(I0
tp153
g75
tp154
Rp155
(I1
(I1
tp156
g7
I00
S'\x1c\x86\x1a6h\xb7C@'
p157
tp158
bag72
(g73
(I0
tp159
g75
tp160
Rp161
(I1
(I1
tp162
g7
I00
S'\xd8S\xb4\xdd\xe4\x8bZ@'
p163
tp164
bag72
(g73
(I0
tp165
g75
tp166
Rp167
(I1
(I1
tp168
g7
I00
S'\x1d\x06,\x1dnTX@'
p169
tp170
bag72
(g73
(I0
tp171
g75
tp172
Rp173
(I1
(I1
tp174
g7
I00
S'\xe9\xa5?V\xf8\xbcT@'
p175
tp176
bag72
(g73
(I0
tp177
g75
tp178
Rp179
(I1
(I1
tp180
g7
I00
S'\xe3O\x9f\xd8\xd8\xfeZ@'
p181
tp182
bag72
(g73
(I0
tp183
g75
tp184
Rp185
(I1
(I1
tp186
g7
I00
S'\xabE\xae\x03\x9e\xbaK@'
p187
tp188
bag72
(g73
(I0
tp189
g75
tp190
Rp191
(I1
(I1
tp192
g7
I00
S'\xa1\xd1\xbf\xf7+\x87M@'
p193
tp194
basS'size'
p195
(lp196
I3
aI11
aI5
aI16
aI6
aI9
aI9
aI11
aI6
aI5
aI3
aI6
aI4
aI10
aI1
aI9
aI6
aI4
aI3
aI6
as.