(dp0
S'mse_test'
p1
(lp2
cnumpy.core.multiarray
scalar
p3
(cnumpy
dtype
p4
(S'f8'
p5
I0
I1
tp6
Rp7
(I3
S'<'
p8
NNNI-1
I-1
I0
tp9
bS'\xf8#Z\xc0\x9b\\G@'
p10
tp11
Rp12
ag3
(g7
S'\x0bHJ\x04O\xbbJ@'
p13
tp14
Rp15
ag3
(g7
S'\xf3lV}\xae6F@'
p16
tp17
Rp18
ag3
(g7
S'\xe5?\x9a\xf0l\xaaB@'
p19
tp20
Rp21
ag3
(g7
S'bX$\xfc\xc2\xc4E@'
p22
tp23
Rp24
ag3
(g7
S'\x91\x02k\xfc\xe9\xceS@'
p25
tp26
Rp27
ag3
(g7
S'RN\x85\xae\x1d\xe8=@'
p28
tp29
Rp30
ag3
(g7
S' 8\x82\xad\x91jB@'
p31
tp32
Rp33
ag3
(g7
S'\xcfn\x81]\xcc|4@'
p34
tp35
Rp36
ag3
(g7
S'\x12\xc8\xf6Yu\x1eH@'
p37
tp38
Rp39
ag3
(g7
S'\xeb2o\x0f|fG@'
p40
tp41
Rp42
ag3
(g7
S'\xf2b\xd1\x12L0[@'
p43
tp44
Rp45
ag3
(g7
S'i}\x04\x82\xcfvP@'
p46
tp47
Rp48
ag3
(g7
S'\xda9\xbc\xbc\xea\xa6@@'
p49
tp50
Rp51
ag3
(g7
S'\xaf\xf3u<>\xb2D@'
p52
tp53
Rp54
ag3
(g7
S'\xcf\xcdV\x1a\xf4\xaeG@'
p55
tp56
Rp57
ag3
(g7
S'\xd6lV#\xe2\nP@'
p58
tp59
Rp60
ag3
(g7
S'V\xc1V\xa8\x86vI@'
p61
tp62
Rp63
ag3
(g7
S'\xb1d\x06<)\xd48@'
p64
tp65
Rp66
ag3
(g7
S'9\xb7\x8a\x8a\xf8OL@'
p67
tp68
Rp69
asS'mse_train'
p70
(lp71
cnumpy.core.multiarray
_reconstruct
p72
(cnumpy
ndarray
p73
(I0
tp74
S'b'
p75
tp76
Rp77
(I1
(I1
tp78
g7
I00
S'+OX|-\x85J@'
p79
tp80
bag72
(g73
(I0
tp81
g75
tp82
Rp83
(I1
(I1
tp84
g7
I00
S'\xff$\xd9\xeeLbN@'
p85
tp86
bag72
(g73
(I0
tp87
g75
tp88
Rp89
(I1
(I1
tp90
g7
I00
S"\x9f\x90' \x9c,I@"
p91
tp92
bag72
(g73
(I0
tp93
g75
tp94
Rp95
(I1
(I1
tp96
g7
I00
S'\xf8\xc7\xad\xcbXbG@'
p97
tp98
bag72
(g73
(I0
tp99
g75
tp100
Rp101
(I1
(I1
tp102
g7
I00
S'\xb1B\xd6{P\xe1G@'
p103
tp104
bag72
(g73
(I0
tp105
g75
tp106
Rp107
(I1
(I1
tp108
g7
I00
S'\xc8,\xe6_\xddyR@'
p109
tp110
bag72
(g73
(I0
tp111
g75
tp112
Rp113
(I1
(I1
tp114
g7
I00
S'\xefzj\xb7\xcf\x019@'
p115
tp116
bag72
(g73
(I0
tp117
g75
tp118
Rp119
(I1
(I1
tp120
g7
I00
S'\x8aM\xceA%zE@'
p121
tp122
bag72
(g73
(I0
tp123
g75
tp124
Rp125
(I1
(I1
tp126
g7
I00
S'\xa6\x06\xe9\xa09x@@'
p127
tp128
bag72
(g73
(I0
tp129
g75
tp130
Rp131
(I1
(I1
tp132
g7
I00
S'\x9b\xe5\x97\x91\xd3\xecM@'
p133
tp134
bag72
(g73
(I0
tp135
g75
tp136
Rp137
(I1
(I1
tp138
g7
I00
S'\xffI\xa3\xc4\x88\x86M@'
p139
tp140
bag72
(g73
(I0
tp141
g75
tp142
Rp143
(I1
(I1
tp144
g7
I00
S'\x12\xe6\xa9\xc8?\xb8Y@'
p145
tp146
bag72
(g73
(I0
tp147
g75
tp148
Rp149
(I1
(I1
tp150
g7
I00
S'\xeb\xd4r\xc1\xb5\xefS@'
p151
tp152
bag72
(g73
(I0
tp153
g75
tp154
Rp155
(I1
(I1
tp156
g7
I00
S'X\xce\x0e\xc6\xa9\x01F@'
p157
tp158
bag72
(g73
(I0
tp159
g75
tp160
Rp161
(I1
(I1
tp162
g7
I00
S')\x01\xda\x0b\x99\xb1C@'
p163
tp164
bag72
(g73
(I0
tp165
g75
tp166
Rp167
(I1
(I1
tp168
g7
I00
S'6oJUGgN@'
p169
tp170
bag72
(g73
(I0
tp171
g75
tp172
Rp173
(I1
(I1
tp174
g7
I00
S'\x03O\xd3\x88\xb6zT@'
p175
tp176
bag72
(g73
(I0
tp177
g75
tp178
Rp179
(I1
(I1
tp180
g7
I00
S'c\xb8\x11\xe6\t\xd3B@'
p181
tp182
bag72
(g73
(I0
tp183
g75
tp184
Rp185
(I1
(I1
tp186
g7
I00
S'l\xeb\xa3\xeb[\xb4;@'
p187
tp188
bag72
(g73
(I0
tp189
g75
tp190
Rp191
(I1
(I1
tp192
g7
I00
S'\xd9\xbeG\xb0\xf3\xffY@'
p193
tp194
basS'size'
p195
(lp196
I7
aI3
aI3
aI16
aI5
aI15
aI7
aI7
aI9
aI2
aI6
aI2
aI6
aI12
aI15
aI6
aI4
aI6
aI9
aI7
as.