(dp0
S'mse_test'
p1
(lp2
cnumpy.core.multiarray
scalar
p3
(cnumpy
dtype
p4
(S'f8'
p5
I0
I1
tp6
Rp7
(I3
S'<'
p8
NNNI-1
I-1
I0
tp9
bS'\xa1\x8bh\xcet=\x9c@'
p10
tp11
Rp12
ag3
(g7
S'\x8a\xe6\xbe\xf2\xb6\x05\x93@'
p13
tp14
Rp15
ag3
(g7
S'*?\xdcoGL\x98@'
p16
tp17
Rp18
ag3
(g7
S'\xfd\xc1\x0c\xb6_\t\x96@'
p19
tp20
Rp21
ag3
(g7
S'\xed)h\x84dp\x99@'
p22
tp23
Rp24
ag3
(g7
S'\x1d\xd4\xf0\x17\x1fp\x95@'
p25
tp26
Rp27
ag3
(g7
S'g\xb4v\x8a\xaa\x9d\x97@'
p28
tp29
Rp30
ag3
(g7
S'\xf3`\x8fl\xf0\xda\x99@'
p31
tp32
Rp33
ag3
(g7
S'\x05\xe3pA\x0cJ\x92@'
p34
tp35
Rp36
ag3
(g7
S'C\x02\xf99\x1d\x96\x9b@'
p37
tp38
Rp39
ag3
(g7
S'\x96\x91\x89&\x04\xec\x98@'
p40
tp41
Rp42
ag3
(g7
S'\xfcps\xb0\x12\x86\x92@'
p43
tp44
Rp45
ag3
(g7
S'\xd4\xc5\\Z\x9e<\x96@'
p46
tp47
Rp48
ag3
(g7
S'\x87\xb5\x0b*\xf6\x06\x95@'
p49
tp50
Rp51
ag3
(g7
S'\x1d_?p\xdbv\x9d@'
p52
tp53
Rp54
ag3
(g7
S'\xa0mA\xf5z6\x8f@'
p55
tp56
Rp57
ag3
(g7
S'\x96\x16|\\M\x92\x98@'
p58
tp59
Rp60
ag3
(g7
S'p\xa0\x1f\x91\xb50\x9e@'
p61
tp62
Rp63
ag3
(g7
S'\x8c9\xd7w\xbd\xaf\x9a@'
p64
tp65
Rp66
ag3
(g7
S'\x9a-\x17\xe6a\xf7\x94@'
p67
tp68
Rp69
asS'mse_train'
p70
(lp71
cnumpy.core.multiarray
_reconstruct
p72
(cnumpy
ndarray
p73
(I0
tp74
S'b'
p75
tp76
Rp77
(I1
(I1
tp78
g7
I00
S'\x07\x14\xb6\x195\n\x96@'
p79
tp80
bag72
(g73
(I0
tp81
g75
tp82
Rp83
(I1
(I1
tp84
g7
I00
S'\xfb\xbb\x1f\x7fN\xb5\x99@'
p85
tp86
bag72
(g73
(I0
tp87
g75
tp88
Rp89
(I1
(I1
tp90
g7
I00
S'\xd5\x1d \x18C\xaa\x9c@'
p91
tp92
bag72
(g73
(I0
tp93
g75
tp94
Rp95
(I1
(I1
tp96
g7
I00
S'6\x85\xc4D\rw\xa2@'
p97
tp98
bag72
(g73
(I0
tp99
g75
tp100
Rp101
(I1
(I1
tp102
g7
I00
S'tu0\x89\xa2g\x9a@'
p103
tp104
bag72
(g73
(I0
tp105
g75
tp106
Rp107
(I1
(I1
tp108
g7
I00
S'\xae\x81~P\xcf\xf3\xa1@'
p109
tp110
bag72
(g73
(I0
tp111
g75
tp112
Rp113
(I1
(I1
tp114
g7
I00
S'^\x0bQ\r\x960\x9e@'
p115
tp116
bag72
(g73
(I0
tp117
g75
tp118
Rp119
(I1
(I1
tp120
g7
I00
S'\xfc\x83g\x1a\xaeM\x9b@'
p121
tp122
bag72
(g73
(I0
tp123
g75
tp124
Rp125
(I1
(I1
tp126
g7
I00
S"\xf0B'\x8e\x03\xf8\x9a@"
p127
tp128
bag72
(g73
(I0
tp129
g75
tp130
Rp131
(I1
(I1
tp132
g7
I00
S'\xbd\x13\x1a\x1aXa\x9c@'
p133
tp134
bag72
(g73
(I0
tp135
g75
tp136
Rp137
(I1
(I1
tp138
g7
I00
S'\xadQI\xe6\xf6\t\xaa@'
p139
tp140
bag72
(g73
(I0
tp141
g75
tp142
Rp143
(I1
(I1
tp144
g7
I00
S'\xdd<\xa0xD;\x9d@'
p145
tp146
bag72
(g73
(I0
tp147
g75
tp148
Rp149
(I1
(I1
tp150
g7
I00
S'\x87\xf3*\xfcn8\x9d@'
p151
tp152
bag72
(g73
(I0
tp153
g75
tp154
Rp155
(I1
(I1
tp156
g7
I00
S'J\xd9c\xf9;f\xa0@'
p157
tp158
bag72
(g73
(I0
tp159
g75
tp160
Rp161
(I1
(I1
tp162
g7
I00
S'\x16\xf1\x92\x05\x12\x1d\x9b@'
p163
tp164
bag72
(g73
(I0
tp165
g75
tp166
Rp167
(I1
(I1
tp168
g7
I00
S'\x7f\xf0\x0c\x1c!\xb2\xa1@'
p169
tp170
bag72
(g73
(I0
tp171
g75
tp172
Rp173
(I1
(I1
tp174
g7
I00
S'\x02\xad92\x8a\xe3\xa0@'
p175
tp176
bag72
(g73
(I0
tp177
g75
tp178
Rp179
(I1
(I1
tp180
g7
I00
S'\xf238U\x8c\xda\x9c@'
p181
tp182
bag72
(g73
(I0
tp183
g75
tp184
Rp185
(I1
(I1
tp186
g7
I00
S'+S\xbb\xb7v\xcb\x9b@'
p187
tp188
bag72
(g73
(I0
tp189
g75
tp190
Rp191
(I1
(I1
tp192
g7
I00
S'\x90\xd97.\xad\x95\x9a@'
p193
tp194
basS'size'
p195
(lp196
I19
aI13
aI14
aI18
aI35
aI22
aI23
aI33
aI11
aI14
aI13
aI27
aI15
aI19
aI34
aI33
aI15
aI19
aI34
aI39
as.