(dp0
S'mse_test'
p1
(lp2
cnumpy.core.multiarray
scalar
p3
(cnumpy
dtype
p4
(S'f4'
p5
I0
I1
tp6
Rp7
(I3
S'<'
p8
NNNI-1
I-1
I0
tp9
bS'\xad\x9f,<'
p10
tp11
Rp12
ag3
(g7
S'\x80\xce\x87;'
p13
tp14
Rp15
ag3
(g7
S'\x1d\x05F;'
p16
tp17
Rp18
ag3
(g7
S'nH\xe8;'
p19
tp20
Rp21
ag3
(g7
S'\xa2\xce\x0f;'
p22
tp23
Rp24
ag3
(g7
S'(;7;'
p25
tp26
Rp27
ag3
(g7
S'\x9eI\xec:'
p28
tp29
Rp30
ag3
(g7
S'\xd0\x19\x83;'
p31
tp32
Rp33
ag3
(g7
S'\xce\xa4[;'
p34
tp35
Rp36
ag3
(g7
S')\xaf\xa7:'
p37
tp38
Rp39
ag3
(g7
S'\xa0"\x81:'
p40
tp41
Rp42
ag3
(g7
S'\xf4\xf8\x13;'
p43
tp44
Rp45
ag3
(g7
S'\xf1\xad\x0e;'
p46
tp47
Rp48
ag3
(g7
S'\x1f\xcd\xcb:'
p49
tp50
Rp51
ag3
(g7
S'\xf4oF;'
p52
tp53
Rp54
ag3
(g7
S'4B\x16:'
p55
tp56
Rp57
ag3
(g7
S'\xa8\x06\x0e;'
p58
tp59
Rp60
ag3
(g7
S'\xe0\xb3\x9e:'
p61
tp62
Rp63
ag3
(g7
S'\xf6\xb2\xd3:'
p64
tp65
Rp66
ag3
(g7
S'\x91R\xbd;'
p67
tp68
Rp69
asS'mse_train'
p70
(lp71
g3
(g7
S'\xab\x17%;'
p72
tp73
Rp74
ag3
(g7
S'\xe4m\xaa:'
p75
tp76
Rp77
ag3
(g7
S'\xd2\xf6\xc1:'
p78
tp79
Rp80
ag3
(g7
S']\x91\xb5;'
p81
tp82
Rp83
ag3
(g7
S'M\xe0\xd6:'
p84
tp85
Rp86
ag3
(g7
S'c:\x00;'
p87
tp88
Rp89
ag3
(g7
S'Cje:'
p90
tp91
Rp92
ag3
(g7
S'jqe;'
p93
tp94
Rp95
ag3
(g7
S'\xc9Z1;'
p96
tp97
Rp98
ag3
(g7
S'@D\xab:'
p99
tp100
Rp101
ag3
(g7
S'\xf7|+:'
p102
tp103
Rp104
ag3
(g7
S'9\x91\xe3:'
p105
tp106
Rp107
ag3
(g7
S'\xe2\x12\xfd:'
p108
tp109
Rp110
ag3
(g7
S'\xa8f\x9d:'
p111
tp112
Rp113
ag3
(g7
S')\xc7\x17;'
p114
tp115
Rp116
ag3
(g7
S'}f\xbe9'
p117
tp118
Rp119
ag3
(g7
S'\xe4+\xf0:'
p120
tp121
Rp122
ag3
(g7
S'\x17K\x98:'
p123
tp124
Rp125
ag3
(g7
S'\xc0\xc1\xce:'
p126
tp127
Rp128
ag3
(g7
S'f\x03\xb4;'
p129
tp130
Rp131
as.