(dp0
S'nb_hidden3'
p1
cnumpy.core.multiarray
scalar
p2
(cnumpy
dtype
p3
(S'i8'
p4
I0
I1
tp5
Rp6
(I3
S'<'
p7
NNNI-1
I-1
I0
tp8
bS'\xaf\x00\x00\x00\x00\x00\x00\x00'
p9
tp10
Rp11
sS'nb_hidden2'
p12
g2
(g6
S'\x7f\x01\x00\x00\x00\x00\x00\x00'
p13
tp14
Rp15
sS'nb_hidden1'
p16
g2
(g6
S'r\x00\x00\x00\x00\x00\x00\x00'
p17
tp18
Rp19
sS'learning_rate'
p20
g2
(g3
(S'f8'
p21
I0
I1
tp22
Rp23
(I3
S'<'
p24
NNNI-1
I-1
I0
tp25
bS'1\xb7\xa8\x92\xcd\x1f&?'
p26
tp27
Rp28
sS'reg_scale'
p29
g2
(g23
S'\xa10\xaac\xb3&\xd6>'
p30
tp31
Rp32
sS'mse'
p33
g2
(g3
(S'f4'
p34
I0
I1
tp35
Rp36
(I3
S'<'
p37
NNNI-1
I-1
I0
tp38
bS'% (='
p39
tp40
Rp41
sS'keep_value'
p42
g2
(g23
S'\xf4`\x87\x8a\xda\xd4\xc2?'
p43
tp44
Rp45
sS'nb_hidden_layer'
p46
g2
(g6
S'\x03\x00\x00\x00\x00\x00\x00\x00'
p47
tp48
Rp49
s.