(dp0
S'n_tournament'
p1
I4
sS'init_depth'
p2
I5
sS'pop_size'
p3
I200
sS'mse'
p4
cnumpy.core.multiarray
scalar
p5
(cnumpy
dtype
p6
(S'f8'
p7
I0
I1
tp8
Rp9
(I3
S'<'
p10
NNNI-1
I-1
I0
tp11
bS'\x00\x00\x00\x00\x00\x00\x00\x00'
p12
tp13
Rp14
s.